   1               		.file	"USBInterrupt.c"
   2               	__SP_H__ = 0x3e
   3               	__SP_L__ = 0x3d
   4               	__SREG__ = 0x3f
   5               	__tmp_reg__ = 0
   6               	__zero_reg__ = 1
   7               		.text
   8               	.Ltext0:
   9               		.cfi_sections	.debug_frame
  10               		.section	.text.USB_INT_DisableAllInterrupts,"ax",@progbits
  11               	.global	USB_INT_DisableAllInterrupts
  13               	USB_INT_DisableAllInterrupts:
  14               	.LFB64:
  15               		.file 1 "../LUFA/Drivers/USB/LowLevel/USBInterrupt.c"
   1:../LUFA/Drivers/USB/LowLevel/USBInterrupt.c **** /*
   2:../LUFA/Drivers/USB/LowLevel/USBInterrupt.c ****              LUFA Library
   3:../LUFA/Drivers/USB/LowLevel/USBInterrupt.c ****      Copyright (C) Dean Camera, 2010.
   4:../LUFA/Drivers/USB/LowLevel/USBInterrupt.c ****               
   5:../LUFA/Drivers/USB/LowLevel/USBInterrupt.c ****   dean [at] fourwalledcubicle [dot] com
   6:../LUFA/Drivers/USB/LowLevel/USBInterrupt.c ****       www.fourwalledcubicle.com
   7:../LUFA/Drivers/USB/LowLevel/USBInterrupt.c **** */
   8:../LUFA/Drivers/USB/LowLevel/USBInterrupt.c **** 
   9:../LUFA/Drivers/USB/LowLevel/USBInterrupt.c **** /*
  10:../LUFA/Drivers/USB/LowLevel/USBInterrupt.c ****   Copyright 2010  Dean Camera (dean [at] fourwalledcubicle [dot] com)
  11:../LUFA/Drivers/USB/LowLevel/USBInterrupt.c **** 
  12:../LUFA/Drivers/USB/LowLevel/USBInterrupt.c ****   Permission to use, copy, modify, distribute, and sell this 
  13:../LUFA/Drivers/USB/LowLevel/USBInterrupt.c ****   software and its documentation for any purpose is hereby granted
  14:../LUFA/Drivers/USB/LowLevel/USBInterrupt.c ****   without fee, provided that the above copyright notice appear in 
  15:../LUFA/Drivers/USB/LowLevel/USBInterrupt.c ****   all copies and that both that the copyright notice and this
  16:../LUFA/Drivers/USB/LowLevel/USBInterrupt.c ****   permission notice and warranty disclaimer appear in supporting 
  17:../LUFA/Drivers/USB/LowLevel/USBInterrupt.c ****   documentation, and that the name of the author not be used in 
  18:../LUFA/Drivers/USB/LowLevel/USBInterrupt.c ****   advertising or publicity pertaining to distribution of the 
  19:../LUFA/Drivers/USB/LowLevel/USBInterrupt.c ****   software without specific, written prior permission.
  20:../LUFA/Drivers/USB/LowLevel/USBInterrupt.c **** 
  21:../LUFA/Drivers/USB/LowLevel/USBInterrupt.c ****   The author disclaim all warranties with regard to this
  22:../LUFA/Drivers/USB/LowLevel/USBInterrupt.c ****   software, including all implied warranties of merchantability
  23:../LUFA/Drivers/USB/LowLevel/USBInterrupt.c ****   and fitness.  In no event shall the author be liable for any
  24:../LUFA/Drivers/USB/LowLevel/USBInterrupt.c ****   special, indirect or consequential damages or any damages
  25:../LUFA/Drivers/USB/LowLevel/USBInterrupt.c ****   whatsoever resulting from loss of use, data or profits, whether
  26:../LUFA/Drivers/USB/LowLevel/USBInterrupt.c ****   in an action of contract, negligence or other tortious action,
  27:../LUFA/Drivers/USB/LowLevel/USBInterrupt.c ****   arising out of or in connection with the use or performance of
  28:../LUFA/Drivers/USB/LowLevel/USBInterrupt.c ****   this software.
  29:../LUFA/Drivers/USB/LowLevel/USBInterrupt.c **** */
  30:../LUFA/Drivers/USB/LowLevel/USBInterrupt.c **** 
  31:../LUFA/Drivers/USB/LowLevel/USBInterrupt.c **** #define  __INCLUDE_FROM_USB_DRIVER
  32:../LUFA/Drivers/USB/LowLevel/USBInterrupt.c **** #include "USBInterrupt.h"
  33:../LUFA/Drivers/USB/LowLevel/USBInterrupt.c **** 
  34:../LUFA/Drivers/USB/LowLevel/USBInterrupt.c **** void USB_INT_DisableAllInterrupts(void)
  35:../LUFA/Drivers/USB/LowLevel/USBInterrupt.c **** {
  16               		.loc 1 35 0
  17               		.cfi_startproc
  18               	/* prologue: function */
  19               	/* frame size = 0 */
  20               	/* stack size = 0 */
  21               	.L__stack_usage = 0
  36:../LUFA/Drivers/USB/LowLevel/USBInterrupt.c **** 	#if defined(USB_SERIES_6_AVR) || defined(USB_SERIES_7_AVR)
  37:../LUFA/Drivers/USB/LowLevel/USBInterrupt.c **** 	USBCON &= ~((1 << VBUSTE) | (1 << IDTE));				
  38:../LUFA/Drivers/USB/LowLevel/USBInterrupt.c **** 	#elif defined(USB_SERIES_4_AVR)
  39:../LUFA/Drivers/USB/LowLevel/USBInterrupt.c **** 	USBCON &= ~(1 << VBUSTE);
  40:../LUFA/Drivers/USB/LowLevel/USBInterrupt.c **** 	#endif
  41:../LUFA/Drivers/USB/LowLevel/USBInterrupt.c **** 	
  42:../LUFA/Drivers/USB/LowLevel/USBInterrupt.c **** 	#if defined(USB_CAN_BE_HOST)
  43:../LUFA/Drivers/USB/LowLevel/USBInterrupt.c **** 	UHIEN   = 0;
  44:../LUFA/Drivers/USB/LowLevel/USBInterrupt.c **** 	OTGIEN  = 0;
  45:../LUFA/Drivers/USB/LowLevel/USBInterrupt.c **** 	#endif
  46:../LUFA/Drivers/USB/LowLevel/USBInterrupt.c **** 	
  47:../LUFA/Drivers/USB/LowLevel/USBInterrupt.c **** 	#if defined(USB_CAN_BE_DEVICE)
  48:../LUFA/Drivers/USB/LowLevel/USBInterrupt.c **** 	UDIEN   = 0;
  22               		.loc 1 48 0
  23 0000 1092 E200 		sts 226,__zero_reg__
  24 0004 0895      		ret
  25               		.cfi_endproc
  26               	.LFE64:
  28               		.section	.text.USB_INT_ClearAllInterrupts,"ax",@progbits
  29               	.global	USB_INT_ClearAllInterrupts
  31               	USB_INT_ClearAllInterrupts:
  32               	.LFB65:
  49:../LUFA/Drivers/USB/LowLevel/USBInterrupt.c **** 	#endif
  50:../LUFA/Drivers/USB/LowLevel/USBInterrupt.c **** }
  51:../LUFA/Drivers/USB/LowLevel/USBInterrupt.c **** 
  52:../LUFA/Drivers/USB/LowLevel/USBInterrupt.c **** void USB_INT_ClearAllInterrupts(void)
  53:../LUFA/Drivers/USB/LowLevel/USBInterrupt.c **** {
  33               		.loc 1 53 0
  34               		.cfi_startproc
  35               	/* prologue: function */
  36               	/* frame size = 0 */
  37               	/* stack size = 0 */
  38               	.L__stack_usage = 0
  54:../LUFA/Drivers/USB/LowLevel/USBInterrupt.c **** 	#if defined(USB_SERIES_4_AVR) || defined(USB_SERIES_6_AVR) || defined(USB_SERIES_7_AVR)
  55:../LUFA/Drivers/USB/LowLevel/USBInterrupt.c **** 	USBINT  = 0;
  56:../LUFA/Drivers/USB/LowLevel/USBInterrupt.c **** 	#endif
  57:../LUFA/Drivers/USB/LowLevel/USBInterrupt.c **** 	
  58:../LUFA/Drivers/USB/LowLevel/USBInterrupt.c **** 	#if defined(USB_CAN_BE_HOST)
  59:../LUFA/Drivers/USB/LowLevel/USBInterrupt.c **** 	UHINT   = 0;
  60:../LUFA/Drivers/USB/LowLevel/USBInterrupt.c **** 	OTGINT  = 0;
  61:../LUFA/Drivers/USB/LowLevel/USBInterrupt.c **** 	#endif
  62:../LUFA/Drivers/USB/LowLevel/USBInterrupt.c **** 	
  63:../LUFA/Drivers/USB/LowLevel/USBInterrupt.c **** 	#if defined(USB_CAN_BE_DEVICE)
  64:../LUFA/Drivers/USB/LowLevel/USBInterrupt.c **** 	UDINT   = 0;
  39               		.loc 1 64 0
  40 0000 1092 E100 		sts 225,__zero_reg__
  41 0004 0895      		ret
  42               		.cfi_endproc
  43               	.LFE65:
  45               		.section	.text.__vector_11,"ax",@progbits
  46               	.global	__vector_11
  48               	__vector_11:
  49               	.LFB66:
  65:../LUFA/Drivers/USB/LowLevel/USBInterrupt.c **** 	#endif
  66:../LUFA/Drivers/USB/LowLevel/USBInterrupt.c **** }
  67:../LUFA/Drivers/USB/LowLevel/USBInterrupt.c **** 
  68:../LUFA/Drivers/USB/LowLevel/USBInterrupt.c **** ISR(USB_GEN_vect, ISR_BLOCK)
  69:../LUFA/Drivers/USB/LowLevel/USBInterrupt.c **** {
  50               		.loc 1 69 0
  51               		.cfi_startproc
  52 0000 1F92      		push r1
  53               	.LCFI0:
  54               		.cfi_def_cfa_offset 3
  55               		.cfi_offset 1, -2
  56 0002 0F92      		push r0
  57               	.LCFI1:
  58               		.cfi_def_cfa_offset 4
  59               		.cfi_offset 0, -3
  60 0004 0FB6      		in r0,__SREG__
  61 0006 0F92      		push r0
  62 0008 1124      		clr __zero_reg__
  63 000a 2F93      		push r18
  64               	.LCFI2:
  65               		.cfi_def_cfa_offset 5
  66               		.cfi_offset 18, -4
  67 000c 3F93      		push r19
  68               	.LCFI3:
  69               		.cfi_def_cfa_offset 6
  70               		.cfi_offset 19, -5
  71 000e 4F93      		push r20
  72               	.LCFI4:
  73               		.cfi_def_cfa_offset 7
  74               		.cfi_offset 20, -6
  75 0010 5F93      		push r21
  76               	.LCFI5:
  77               		.cfi_def_cfa_offset 8
  78               		.cfi_offset 21, -7
  79 0012 6F93      		push r22
  80               	.LCFI6:
  81               		.cfi_def_cfa_offset 9
  82               		.cfi_offset 22, -8
  83 0014 7F93      		push r23
  84               	.LCFI7:
  85               		.cfi_def_cfa_offset 10
  86               		.cfi_offset 23, -9
  87 0016 8F93      		push r24
  88               	.LCFI8:
  89               		.cfi_def_cfa_offset 11
  90               		.cfi_offset 24, -10
  91 0018 9F93      		push r25
  92               	.LCFI9:
  93               		.cfi_def_cfa_offset 12
  94               		.cfi_offset 25, -11
  95 001a AF93      		push r26
  96               	.LCFI10:
  97               		.cfi_def_cfa_offset 13
  98               		.cfi_offset 26, -12
  99 001c BF93      		push r27
 100               	.LCFI11:
 101               		.cfi_def_cfa_offset 14
 102               		.cfi_offset 27, -13
 103 001e EF93      		push r30
 104               	.LCFI12:
 105               		.cfi_def_cfa_offset 15
 106               		.cfi_offset 30, -14
 107 0020 FF93      		push r31
 108               	.LCFI13:
 109               		.cfi_def_cfa_offset 16
 110               		.cfi_offset 31, -15
 111               	/* prologue: Signal */
 112               	/* frame size = 0 */
 113               	/* stack size = 15 */
 114               	.L__stack_usage = 15
  70:../LUFA/Drivers/USB/LowLevel/USBInterrupt.c **** 	#if defined(USB_CAN_BE_DEVICE)
  71:../LUFA/Drivers/USB/LowLevel/USBInterrupt.c **** 	#if defined(USB_SERIES_4_AVR) || defined(USB_SERIES_6_AVR) || defined(USB_SERIES_7_AVR)
  72:../LUFA/Drivers/USB/LowLevel/USBInterrupt.c **** 	if (USB_INT_HasOccurred(USB_INT_VBUS) && USB_INT_IsEnabled(USB_INT_VBUS))
  73:../LUFA/Drivers/USB/LowLevel/USBInterrupt.c **** 	{
  74:../LUFA/Drivers/USB/LowLevel/USBInterrupt.c **** 		USB_INT_Clear(USB_INT_VBUS);
  75:../LUFA/Drivers/USB/LowLevel/USBInterrupt.c **** 
  76:../LUFA/Drivers/USB/LowLevel/USBInterrupt.c **** 		if (USB_VBUS_GetStatus())
  77:../LUFA/Drivers/USB/LowLevel/USBInterrupt.c **** 		{
  78:../LUFA/Drivers/USB/LowLevel/USBInterrupt.c **** 			USB_DeviceState = DEVICE_STATE_Powered;
  79:../LUFA/Drivers/USB/LowLevel/USBInterrupt.c **** 			EVENT_USB_Device_Connect();
  80:../LUFA/Drivers/USB/LowLevel/USBInterrupt.c **** 		}
  81:../LUFA/Drivers/USB/LowLevel/USBInterrupt.c **** 		else
  82:../LUFA/Drivers/USB/LowLevel/USBInterrupt.c **** 		{
  83:../LUFA/Drivers/USB/LowLevel/USBInterrupt.c **** 			USB_DeviceState = DEVICE_STATE_Unattached;		
  84:../LUFA/Drivers/USB/LowLevel/USBInterrupt.c **** 			EVENT_USB_Device_Disconnect();
  85:../LUFA/Drivers/USB/LowLevel/USBInterrupt.c **** 		}
  86:../LUFA/Drivers/USB/LowLevel/USBInterrupt.c **** 	}
  87:../LUFA/Drivers/USB/LowLevel/USBInterrupt.c **** 	#endif
  88:../LUFA/Drivers/USB/LowLevel/USBInterrupt.c **** 
  89:../LUFA/Drivers/USB/LowLevel/USBInterrupt.c **** 	if (USB_INT_HasOccurred(USB_INT_SUSPEND) && USB_INT_IsEnabled(USB_INT_SUSPEND))
 115               		.loc 1 89 0
 116 0022 8091 E100 		lds r24,225
 117 0026 80FF      		sbrs r24,0
 118 0028 00C0      		rjmp .L4
 119               		.loc 1 89 0 is_stmt 0 discriminator 1
 120 002a 8091 E200 		lds r24,226
 121 002e 80FF      		sbrs r24,0
 122 0030 00C0      		rjmp .L4
  90:../LUFA/Drivers/USB/LowLevel/USBInterrupt.c **** 	{
  91:../LUFA/Drivers/USB/LowLevel/USBInterrupt.c **** 		USB_INT_Clear(USB_INT_SUSPEND);
 123               		.loc 1 91 0 is_stmt 1
 124 0032 8091 E100 		lds r24,225
 125 0036 8E7F      		andi r24,lo8(-2)
 126 0038 8093 E100 		sts 225,r24
  92:../LUFA/Drivers/USB/LowLevel/USBInterrupt.c **** 
  93:../LUFA/Drivers/USB/LowLevel/USBInterrupt.c **** 		USB_INT_Disable(USB_INT_SUSPEND);
 127               		.loc 1 93 0
 128 003c 8091 E200 		lds r24,226
 129 0040 8E7F      		andi r24,lo8(-2)
 130 0042 8093 E200 		sts 226,r24
  94:../LUFA/Drivers/USB/LowLevel/USBInterrupt.c **** 		USB_INT_Enable(USB_INT_WAKEUP);
 131               		.loc 1 94 0
 132 0046 8091 E200 		lds r24,226
 133 004a 8061      		ori r24,lo8(16)
 134 004c 8093 E200 		sts 226,r24
 135               	.LBB52:
 136               	.LBB53:
 137               		.file 2 "../LUFA/Drivers/USB/LowLevel/USBController.h"
   1:../LUFA/Drivers/USB/LowLevel/USBController.h **** /*
   2:../LUFA/Drivers/USB/LowLevel/USBController.h ****              LUFA Library
   3:../LUFA/Drivers/USB/LowLevel/USBController.h ****      Copyright (C) Dean Camera, 2010.
   4:../LUFA/Drivers/USB/LowLevel/USBController.h ****               
   5:../LUFA/Drivers/USB/LowLevel/USBController.h ****   dean [at] fourwalledcubicle [dot] com
   6:../LUFA/Drivers/USB/LowLevel/USBController.h ****       www.fourwalledcubicle.com
   7:../LUFA/Drivers/USB/LowLevel/USBController.h **** */
   8:../LUFA/Drivers/USB/LowLevel/USBController.h **** 
   9:../LUFA/Drivers/USB/LowLevel/USBController.h **** /*
  10:../LUFA/Drivers/USB/LowLevel/USBController.h ****   Copyright 2010  Dean Camera (dean [at] fourwalledcubicle [dot] com)
  11:../LUFA/Drivers/USB/LowLevel/USBController.h **** 
  12:../LUFA/Drivers/USB/LowLevel/USBController.h ****   Permission to use, copy, modify, distribute, and sell this 
  13:../LUFA/Drivers/USB/LowLevel/USBController.h ****   software and its documentation for any purpose is hereby granted
  14:../LUFA/Drivers/USB/LowLevel/USBController.h ****   without fee, provided that the above copyright notice appear in 
  15:../LUFA/Drivers/USB/LowLevel/USBController.h ****   all copies and that both that the copyright notice and this
  16:../LUFA/Drivers/USB/LowLevel/USBController.h ****   permission notice and warranty disclaimer appear in supporting 
  17:../LUFA/Drivers/USB/LowLevel/USBController.h ****   documentation, and that the name of the author not be used in 
  18:../LUFA/Drivers/USB/LowLevel/USBController.h ****   advertising or publicity pertaining to distribution of the 
  19:../LUFA/Drivers/USB/LowLevel/USBController.h ****   software without specific, written prior permission.
  20:../LUFA/Drivers/USB/LowLevel/USBController.h **** 
  21:../LUFA/Drivers/USB/LowLevel/USBController.h ****   The author disclaim all warranties with regard to this
  22:../LUFA/Drivers/USB/LowLevel/USBController.h ****   software, including all implied warranties of merchantability
  23:../LUFA/Drivers/USB/LowLevel/USBController.h ****   and fitness.  In no event shall the author be liable for any
  24:../LUFA/Drivers/USB/LowLevel/USBController.h ****   special, indirect or consequential damages or any damages
  25:../LUFA/Drivers/USB/LowLevel/USBController.h ****   whatsoever resulting from loss of use, data or profits, whether
  26:../LUFA/Drivers/USB/LowLevel/USBController.h ****   in an action of contract, negligence or other tortious action,
  27:../LUFA/Drivers/USB/LowLevel/USBController.h ****   arising out of or in connection with the use or performance of
  28:../LUFA/Drivers/USB/LowLevel/USBController.h ****   this software.
  29:../LUFA/Drivers/USB/LowLevel/USBController.h **** */
  30:../LUFA/Drivers/USB/LowLevel/USBController.h **** 
  31:../LUFA/Drivers/USB/LowLevel/USBController.h **** /** \file
  32:../LUFA/Drivers/USB/LowLevel/USBController.h ****  *  \brief USB low level USB controller definitions.
  33:../LUFA/Drivers/USB/LowLevel/USBController.h ****  *
  34:../LUFA/Drivers/USB/LowLevel/USBController.h ****  *  This file contains structures, function prototypes and macros related to the low level configur
  35:../LUFA/Drivers/USB/LowLevel/USBController.h ****  *  USB controller, to start, stop and reset the USB library core.
  36:../LUFA/Drivers/USB/LowLevel/USBController.h ****  *
  37:../LUFA/Drivers/USB/LowLevel/USBController.h ****  *  \note This file should not be included directly. It is automatically included as needed by the 
  38:../LUFA/Drivers/USB/LowLevel/USBController.h ****  *        dispatch header located in LUFA/Drivers/USB/USB.h.
  39:../LUFA/Drivers/USB/LowLevel/USBController.h ****  */
  40:../LUFA/Drivers/USB/LowLevel/USBController.h ****  
  41:../LUFA/Drivers/USB/LowLevel/USBController.h **** /** \ingroup Group_USB
  42:../LUFA/Drivers/USB/LowLevel/USBController.h ****  *  @defgroup Group_USBManagement USB Interface Management
  43:../LUFA/Drivers/USB/LowLevel/USBController.h ****  *
  44:../LUFA/Drivers/USB/LowLevel/USBController.h ****  *  Functions, macros, variables, enums and types related to the setup and management of the USB in
  45:../LUFA/Drivers/USB/LowLevel/USBController.h ****  *
  46:../LUFA/Drivers/USB/LowLevel/USBController.h ****  *  @{
  47:../LUFA/Drivers/USB/LowLevel/USBController.h ****  */
  48:../LUFA/Drivers/USB/LowLevel/USBController.h **** 
  49:../LUFA/Drivers/USB/LowLevel/USBController.h **** #ifndef __USBCONTROLLER_H__
  50:../LUFA/Drivers/USB/LowLevel/USBController.h **** #define __USBCONTROLLER_H__
  51:../LUFA/Drivers/USB/LowLevel/USBController.h **** 
  52:../LUFA/Drivers/USB/LowLevel/USBController.h **** 	/* Includes: */
  53:../LUFA/Drivers/USB/LowLevel/USBController.h **** 		#include <avr/io.h>
  54:../LUFA/Drivers/USB/LowLevel/USBController.h **** 		#include <avr/interrupt.h>
  55:../LUFA/Drivers/USB/LowLevel/USBController.h **** 		#include <stdbool.h>
  56:../LUFA/Drivers/USB/LowLevel/USBController.h **** 		
  57:../LUFA/Drivers/USB/LowLevel/USBController.h **** 		#include "../HighLevel/USBMode.h"
  58:../LUFA/Drivers/USB/LowLevel/USBController.h **** 
  59:../LUFA/Drivers/USB/LowLevel/USBController.h **** 		#include "../../../Common/Common.h"
  60:../LUFA/Drivers/USB/LowLevel/USBController.h **** 		#include "../HighLevel/USBMode.h"
  61:../LUFA/Drivers/USB/LowLevel/USBController.h **** 		#include "../HighLevel/Events.h"
  62:../LUFA/Drivers/USB/LowLevel/USBController.h **** 		#include "../HighLevel/USBTask.h"
  63:../LUFA/Drivers/USB/LowLevel/USBController.h **** 		#include "USBInterrupt.h"
  64:../LUFA/Drivers/USB/LowLevel/USBController.h **** 		
  65:../LUFA/Drivers/USB/LowLevel/USBController.h **** 		#if defined(USB_CAN_BE_HOST) || defined(__DOXYGEN__)
  66:../LUFA/Drivers/USB/LowLevel/USBController.h **** 			#include "Host.h"
  67:../LUFA/Drivers/USB/LowLevel/USBController.h **** 			#include "Pipe.h"
  68:../LUFA/Drivers/USB/LowLevel/USBController.h **** 			#include "OTG.h"
  69:../LUFA/Drivers/USB/LowLevel/USBController.h **** 			#include "../HighLevel/HostStandardReq.h"
  70:../LUFA/Drivers/USB/LowLevel/USBController.h **** 		#endif
  71:../LUFA/Drivers/USB/LowLevel/USBController.h **** 		
  72:../LUFA/Drivers/USB/LowLevel/USBController.h **** 		#if defined(USB_CAN_BE_DEVICE) || defined(__DOXYGEN__)
  73:../LUFA/Drivers/USB/LowLevel/USBController.h **** 			#include "Device.h"
  74:../LUFA/Drivers/USB/LowLevel/USBController.h **** 			#include "Endpoint.h"
  75:../LUFA/Drivers/USB/LowLevel/USBController.h **** 			#include "../HighLevel/DeviceStandardReq.h"
  76:../LUFA/Drivers/USB/LowLevel/USBController.h **** 		#endif
  77:../LUFA/Drivers/USB/LowLevel/USBController.h **** 
  78:../LUFA/Drivers/USB/LowLevel/USBController.h **** 	/* Enable C linkage for C++ Compilers: */
  79:../LUFA/Drivers/USB/LowLevel/USBController.h **** 		#if defined(__cplusplus)
  80:../LUFA/Drivers/USB/LowLevel/USBController.h **** 			extern "C" {
  81:../LUFA/Drivers/USB/LowLevel/USBController.h **** 		#endif
  82:../LUFA/Drivers/USB/LowLevel/USBController.h **** 
  83:../LUFA/Drivers/USB/LowLevel/USBController.h **** 	/* Preprocessor Checks and Defines: */
  84:../LUFA/Drivers/USB/LowLevel/USBController.h **** 		#if !defined(__INCLUDE_FROM_USB_DRIVER)
  85:../LUFA/Drivers/USB/LowLevel/USBController.h **** 			#error Do not include this file directly. Include LUFA/Drivers/USB/USB.h instead.
  86:../LUFA/Drivers/USB/LowLevel/USBController.h **** 		#endif
  87:../LUFA/Drivers/USB/LowLevel/USBController.h **** 
  88:../LUFA/Drivers/USB/LowLevel/USBController.h **** 		#if !defined(F_CLOCK)
  89:../LUFA/Drivers/USB/LowLevel/USBController.h **** 			#error F_CLOCK is not defined. You must define F_CLOCK to the frequency of the unprescaled input
  90:../LUFA/Drivers/USB/LowLevel/USBController.h **** 		#endif
  91:../LUFA/Drivers/USB/LowLevel/USBController.h **** 	
  92:../LUFA/Drivers/USB/LowLevel/USBController.h **** 		#if (F_CLOCK == 8000000)
  93:../LUFA/Drivers/USB/LowLevel/USBController.h **** 			#if (defined(__AVR_AT90USB82__) || defined(__AVR_AT90USB162__) || \
  94:../LUFA/Drivers/USB/LowLevel/USBController.h **** 			     defined(__AVR_ATmega8U2__) || defined(__AVR_ATmega16U2__) || \
  95:../LUFA/Drivers/USB/LowLevel/USBController.h **** 			     defined(__AVR_ATmega32U2__))
  96:../LUFA/Drivers/USB/LowLevel/USBController.h **** 				#define USB_PLL_PSC                0
  97:../LUFA/Drivers/USB/LowLevel/USBController.h **** 			#elif (defined(__AVR_ATmega16U4__) || defined(__AVR_ATmega32U4__))
  98:../LUFA/Drivers/USB/LowLevel/USBController.h **** 				#define USB_PLL_PSC                0
  99:../LUFA/Drivers/USB/LowLevel/USBController.h **** 			#elif (defined(__AVR_AT90USB646__)  || defined(__AVR_AT90USB1286__) || defined(__AVR_ATmega32U6_
 100:../LUFA/Drivers/USB/LowLevel/USBController.h **** 				#define USB_PLL_PSC                ((1 << PLLP1) | (1 << PLLP0))
 101:../LUFA/Drivers/USB/LowLevel/USBController.h **** 			#elif (defined(__AVR_AT90USB647__)  || defined(__AVR_AT90USB1287__))
 102:../LUFA/Drivers/USB/LowLevel/USBController.h **** 				#define USB_PLL_PSC                ((1 << PLLP1) | (1 << PLLP0))
 103:../LUFA/Drivers/USB/LowLevel/USBController.h **** 			#endif
 104:../LUFA/Drivers/USB/LowLevel/USBController.h **** 		#elif (F_CLOCK == 16000000)
 105:../LUFA/Drivers/USB/LowLevel/USBController.h **** 			#if (defined(__AVR_AT90USB82__) || defined(__AVR_AT90USB162__) || \
 106:../LUFA/Drivers/USB/LowLevel/USBController.h **** 			     defined(__AVR_ATmega8U2__) || defined(__AVR_ATmega16U2__) || \
 107:../LUFA/Drivers/USB/LowLevel/USBController.h **** 			     defined(__AVR_ATmega32U2__))
 108:../LUFA/Drivers/USB/LowLevel/USBController.h **** 				#define USB_PLL_PSC                (1 << PLLP0)
 109:../LUFA/Drivers/USB/LowLevel/USBController.h **** 			#elif (defined(__AVR_ATmega16U4__) || defined(__AVR_ATmega32U4__))
 110:../LUFA/Drivers/USB/LowLevel/USBController.h **** 				#define USB_PLL_PSC                (1 << PINDIV)
 111:../LUFA/Drivers/USB/LowLevel/USBController.h **** 			#elif (defined(__AVR_AT90USB646__) || defined(__AVR_AT90USB647__) || defined(__AVR_ATmega32U6__)
 112:../LUFA/Drivers/USB/LowLevel/USBController.h **** 				#define USB_PLL_PSC                ((1 << PLLP2) | (1 << PLLP1))
 113:../LUFA/Drivers/USB/LowLevel/USBController.h **** 			#elif (defined(__AVR_AT90USB1286__) || defined(__AVR_AT90USB1287__))
 114:../LUFA/Drivers/USB/LowLevel/USBController.h **** 				#define USB_PLL_PSC                ((1 << PLLP2) | (1 << PLLP0))
 115:../LUFA/Drivers/USB/LowLevel/USBController.h **** 			#endif
 116:../LUFA/Drivers/USB/LowLevel/USBController.h **** 		#endif
 117:../LUFA/Drivers/USB/LowLevel/USBController.h **** 		
 118:../LUFA/Drivers/USB/LowLevel/USBController.h **** 		#if !defined(USB_PLL_PSC)
 119:../LUFA/Drivers/USB/LowLevel/USBController.h **** 			#error No PLL prescale value available for chosen F_CPU value and AVR model.
 120:../LUFA/Drivers/USB/LowLevel/USBController.h **** 		#endif
 121:../LUFA/Drivers/USB/LowLevel/USBController.h **** 		
 122:../LUFA/Drivers/USB/LowLevel/USBController.h **** 	/* Public Interface - May be used in end-application: */
 123:../LUFA/Drivers/USB/LowLevel/USBController.h **** 		/* Macros: */
 124:../LUFA/Drivers/USB/LowLevel/USBController.h **** 			/** Mode mask for the \ref USB_CurrentMode global. This indicates that the USB interface is curr
 125:../LUFA/Drivers/USB/LowLevel/USBController.h **** 			 *  initialized into any mode.
 126:../LUFA/Drivers/USB/LowLevel/USBController.h **** 			 */
 127:../LUFA/Drivers/USB/LowLevel/USBController.h **** 			#define USB_MODE_NONE                      0
 128:../LUFA/Drivers/USB/LowLevel/USBController.h **** 
 129:../LUFA/Drivers/USB/LowLevel/USBController.h **** 			/** Mode mask for the \ref USB_CurrentMode global and the \ref USB_Init() function. This indicat
 130:../LUFA/Drivers/USB/LowLevel/USBController.h **** 			 *  USB interface is or should be initialized in the USB device mode.
 131:../LUFA/Drivers/USB/LowLevel/USBController.h **** 			 */
 132:../LUFA/Drivers/USB/LowLevel/USBController.h **** 			#define USB_MODE_DEVICE                    1
 133:../LUFA/Drivers/USB/LowLevel/USBController.h **** 			
 134:../LUFA/Drivers/USB/LowLevel/USBController.h **** 			/** Mode mask for the \ref USB_CurrentMode global and the \ref USB_Init() function. This indicat
 135:../LUFA/Drivers/USB/LowLevel/USBController.h **** 			 *  USB interface is or should be initialized in the USB host mode.
 136:../LUFA/Drivers/USB/LowLevel/USBController.h **** 			 */
 137:../LUFA/Drivers/USB/LowLevel/USBController.h **** 			#define USB_MODE_HOST                      2
 138:../LUFA/Drivers/USB/LowLevel/USBController.h **** 			
 139:../LUFA/Drivers/USB/LowLevel/USBController.h **** 			#if defined(USB_CAN_BE_BOTH) || defined(__DOXYGEN__)
 140:../LUFA/Drivers/USB/LowLevel/USBController.h **** 				/** Mode mask for the the \ref USB_Init() function. This indicates that the USB interface shoul
 141:../LUFA/Drivers/USB/LowLevel/USBController.h **** 				 *  initialized into whatever mode the UID pin of the USB AVR indicates, and that the device
 142:../LUFA/Drivers/USB/LowLevel/USBController.h **** 				 *  should swap over its mode when the level of the UID pin changes during operation.
 143:../LUFA/Drivers/USB/LowLevel/USBController.h **** 				 *
 144:../LUFA/Drivers/USB/LowLevel/USBController.h **** 				 *  \note This token is not available on AVR models which do not support both host and device m
 145:../LUFA/Drivers/USB/LowLevel/USBController.h **** 				 */
 146:../LUFA/Drivers/USB/LowLevel/USBController.h **** 				#define USB_MODE_UID                       3
 147:../LUFA/Drivers/USB/LowLevel/USBController.h **** 			#endif
 148:../LUFA/Drivers/USB/LowLevel/USBController.h **** 			
 149:../LUFA/Drivers/USB/LowLevel/USBController.h **** 			/** Regulator disable option mask for \ref USB_Init(). This indicates that the internal 3.3V USB
 150:../LUFA/Drivers/USB/LowLevel/USBController.h **** 			 *  regulator should be enabled to regulate the data pin voltages to within the USB standard.
 151:../LUFA/Drivers/USB/LowLevel/USBController.h **** 			 *
 152:../LUFA/Drivers/USB/LowLevel/USBController.h **** 			 *  \note See USB AVR data sheet for more information on the internal pad regulator.
 153:../LUFA/Drivers/USB/LowLevel/USBController.h **** 			 */
 154:../LUFA/Drivers/USB/LowLevel/USBController.h **** 			#define USB_OPT_REG_DISABLED               (1 << 1)
 155:../LUFA/Drivers/USB/LowLevel/USBController.h **** 
 156:../LUFA/Drivers/USB/LowLevel/USBController.h **** 			/** Regulator enable option mask for \ref USB_Init(). This indicates that the internal 3.3V USB 
 157:../LUFA/Drivers/USB/LowLevel/USBController.h **** 			 *  regulator should be disabled and the AVR's VCC level used for the data pads.
 158:../LUFA/Drivers/USB/LowLevel/USBController.h **** 			 *
 159:../LUFA/Drivers/USB/LowLevel/USBController.h **** 			 *  \note See USB AVR data sheet for more information on the internal pad regulator.
 160:../LUFA/Drivers/USB/LowLevel/USBController.h **** 			 */
 161:../LUFA/Drivers/USB/LowLevel/USBController.h **** 			#define USB_OPT_REG_ENABLED                (0 << 1)
 162:../LUFA/Drivers/USB/LowLevel/USBController.h **** 			
 163:../LUFA/Drivers/USB/LowLevel/USBController.h **** 			/** Manual PLL control option mask for \ref USB_Init(). This indicates to the library that the u
 164:../LUFA/Drivers/USB/LowLevel/USBController.h **** 			 *  will take full responsibility for controlling the AVR's PLL (used to generate the high frequ
 165:../LUFA/Drivers/USB/LowLevel/USBController.h **** 			 *  that the USB controller requires) and ensuring that it is locked at the correct frequency fo
 166:../LUFA/Drivers/USB/LowLevel/USBController.h **** 			 */
 167:../LUFA/Drivers/USB/LowLevel/USBController.h **** 			#define USB_OPT_MANUAL_PLL                 (1 << 2)
 168:../LUFA/Drivers/USB/LowLevel/USBController.h **** 
 169:../LUFA/Drivers/USB/LowLevel/USBController.h **** 			/** Automatic PLL control option mask for \ref USB_Init(). This indicates to the library that th
 170:../LUFA/Drivers/USB/LowLevel/USBController.h **** 			 *  take full responsibility for controlling the AVR's PLL (used to generate the high frequency 
 171:../LUFA/Drivers/USB/LowLevel/USBController.h **** 			 *  that the USB controller requires) and ensuring that it is locked at the correct frequency fo
 172:../LUFA/Drivers/USB/LowLevel/USBController.h **** 			 */
 173:../LUFA/Drivers/USB/LowLevel/USBController.h **** 			#define USB_OPT_AUTO_PLL                   (0 << 2)
 174:../LUFA/Drivers/USB/LowLevel/USBController.h **** 
 175:../LUFA/Drivers/USB/LowLevel/USBController.h **** 			/** Mask for a CONTROL type endpoint or pipe.
 176:../LUFA/Drivers/USB/LowLevel/USBController.h **** 			 *
 177:../LUFA/Drivers/USB/LowLevel/USBController.h **** 			 *  \note See \ref Group_EndpointManagement and \ref Group_PipeManagement for endpoint/pipe func
 178:../LUFA/Drivers/USB/LowLevel/USBController.h **** 			 */
 179:../LUFA/Drivers/USB/LowLevel/USBController.h **** 			#define EP_TYPE_CONTROL                    0x00
 180:../LUFA/Drivers/USB/LowLevel/USBController.h **** 
 181:../LUFA/Drivers/USB/LowLevel/USBController.h **** 			/** Mask for an ISOCHRONOUS type endpoint or pipe.
 182:../LUFA/Drivers/USB/LowLevel/USBController.h **** 			 *
 183:../LUFA/Drivers/USB/LowLevel/USBController.h **** 			 *  \note See \ref Group_EndpointManagement and \ref Group_PipeManagement for endpoint/pipe func
 184:../LUFA/Drivers/USB/LowLevel/USBController.h **** 			 */
 185:../LUFA/Drivers/USB/LowLevel/USBController.h **** 			#define EP_TYPE_ISOCHRONOUS                0x01
 186:../LUFA/Drivers/USB/LowLevel/USBController.h **** 
 187:../LUFA/Drivers/USB/LowLevel/USBController.h **** 			/** Mask for a BULK type endpoint or pipe.
 188:../LUFA/Drivers/USB/LowLevel/USBController.h **** 			 *
 189:../LUFA/Drivers/USB/LowLevel/USBController.h **** 			 *  \note See \ref Group_EndpointManagement and \ref Group_PipeManagement for endpoint/pipe func
 190:../LUFA/Drivers/USB/LowLevel/USBController.h **** 			 */
 191:../LUFA/Drivers/USB/LowLevel/USBController.h **** 			#define EP_TYPE_BULK                       0x02
 192:../LUFA/Drivers/USB/LowLevel/USBController.h **** 
 193:../LUFA/Drivers/USB/LowLevel/USBController.h **** 			/** Mask for an INTERRUPT type endpoint or pipe.
 194:../LUFA/Drivers/USB/LowLevel/USBController.h **** 			 *
 195:../LUFA/Drivers/USB/LowLevel/USBController.h **** 			 *  \note See \ref Group_EndpointManagement and \ref Group_PipeManagement for endpoint/pipe func
 196:../LUFA/Drivers/USB/LowLevel/USBController.h **** 			 */
 197:../LUFA/Drivers/USB/LowLevel/USBController.h **** 			#define EP_TYPE_INTERRUPT                  0x03
 198:../LUFA/Drivers/USB/LowLevel/USBController.h **** 
 199:../LUFA/Drivers/USB/LowLevel/USBController.h **** 			#if !defined(USB_STREAM_TIMEOUT_MS) || defined(__DOXYGEN__)
 200:../LUFA/Drivers/USB/LowLevel/USBController.h **** 				/** Constant for the maximum software timeout period of the USB data stream transfer functions
 201:../LUFA/Drivers/USB/LowLevel/USBController.h **** 				 *  (both control and standard) when in either device or host mode. If the next packet of a str
 202:../LUFA/Drivers/USB/LowLevel/USBController.h **** 				 *  is not received or acknowledged within this time period, the stream function will fail.
 203:../LUFA/Drivers/USB/LowLevel/USBController.h **** 				 *
 204:../LUFA/Drivers/USB/LowLevel/USBController.h **** 				 *  This value may be overridden in the user project makefile as the value of the 
 205:../LUFA/Drivers/USB/LowLevel/USBController.h **** 				 *  \ref USB_STREAM_TIMEOUT_MS token, and passed to the compiler using the -D switch.
 206:../LUFA/Drivers/USB/LowLevel/USBController.h **** 				 */
 207:../LUFA/Drivers/USB/LowLevel/USBController.h **** 				#define USB_STREAM_TIMEOUT_MS       100
 208:../LUFA/Drivers/USB/LowLevel/USBController.h **** 			#endif
 209:../LUFA/Drivers/USB/LowLevel/USBController.h **** 		
 210:../LUFA/Drivers/USB/LowLevel/USBController.h **** 		/* Inline Functions: */
 211:../LUFA/Drivers/USB/LowLevel/USBController.h **** 			#if defined(USB_SERIES_4_AVR) || defined(USB_SERIES_6_AVR) || defined(USB_SERIES_7_AVR) || defin
 212:../LUFA/Drivers/USB/LowLevel/USBController.h **** 				/** Returns boolean true if the VBUS line is currently high (i.e. the USB host is supplying pow
 213:../LUFA/Drivers/USB/LowLevel/USBController.h **** 				 *  otherwise returns false.
 214:../LUFA/Drivers/USB/LowLevel/USBController.h **** 				 *
 215:../LUFA/Drivers/USB/LowLevel/USBController.h **** 				 *  \note This function is not available on some AVR models which do not support hardware VBUS 
 216:../LUFA/Drivers/USB/LowLevel/USBController.h **** 				 */
 217:../LUFA/Drivers/USB/LowLevel/USBController.h **** 				static inline bool USB_VBUS_GetStatus(void) ATTR_WARN_UNUSED_RESULT ATTR_ALWAYS_INLINE;
 218:../LUFA/Drivers/USB/LowLevel/USBController.h **** 				static inline bool USB_VBUS_GetStatus(void)
 219:../LUFA/Drivers/USB/LowLevel/USBController.h **** 				{
 220:../LUFA/Drivers/USB/LowLevel/USBController.h **** 					return ((USBSTA & (1 << VBUS)) ? true : false);
 221:../LUFA/Drivers/USB/LowLevel/USBController.h **** 				}
 222:../LUFA/Drivers/USB/LowLevel/USBController.h **** 			#endif
 223:../LUFA/Drivers/USB/LowLevel/USBController.h **** 
 224:../LUFA/Drivers/USB/LowLevel/USBController.h **** 			/** Detaches the device from the USB bus. This has the effect of removing the device from any
 225:../LUFA/Drivers/USB/LowLevel/USBController.h **** 			 *  attached host, ceasing USB communications. If no host is present, this prevents any host fro
 226:../LUFA/Drivers/USB/LowLevel/USBController.h **** 			 *  enumerating the device once attached until \ref USB_Attach() is called.
 227:../LUFA/Drivers/USB/LowLevel/USBController.h **** 			 */
 228:../LUFA/Drivers/USB/LowLevel/USBController.h **** 			static inline void USB_Detach(void) ATTR_ALWAYS_INLINE;
 229:../LUFA/Drivers/USB/LowLevel/USBController.h **** 			static inline void USB_Detach(void)
 230:../LUFA/Drivers/USB/LowLevel/USBController.h **** 			{
 231:../LUFA/Drivers/USB/LowLevel/USBController.h **** 				UDCON  |=  (1 << DETACH);
 232:../LUFA/Drivers/USB/LowLevel/USBController.h **** 			}
 233:../LUFA/Drivers/USB/LowLevel/USBController.h **** 
 234:../LUFA/Drivers/USB/LowLevel/USBController.h **** 			/** Attaches the device to the USB bus. This announces the device's presence to any attached
 235:../LUFA/Drivers/USB/LowLevel/USBController.h **** 			 *  USB host, starting the enumeration process. If no host is present, attaching the device
 236:../LUFA/Drivers/USB/LowLevel/USBController.h **** 			 *  will allow for enumeration once a host is connected to the device.
 237:../LUFA/Drivers/USB/LowLevel/USBController.h **** 			 *
 238:../LUFA/Drivers/USB/LowLevel/USBController.h **** 			 *  This is inexplicably also required for proper operation while in host mode, to enable the
 239:../LUFA/Drivers/USB/LowLevel/USBController.h **** 			 *  attachment of a device to the host. This is despite the bit being located in the device-mode
 240:../LUFA/Drivers/USB/LowLevel/USBController.h **** 			 *  register and despite the datasheet making no mention of its requirement in host mode.
 241:../LUFA/Drivers/USB/LowLevel/USBController.h **** 			 */
 242:../LUFA/Drivers/USB/LowLevel/USBController.h **** 			static inline void USB_Attach(void) ATTR_ALWAYS_INLINE;
 243:../LUFA/Drivers/USB/LowLevel/USBController.h **** 			static inline void USB_Attach(void)
 244:../LUFA/Drivers/USB/LowLevel/USBController.h **** 			{
 245:../LUFA/Drivers/USB/LowLevel/USBController.h **** 				UDCON  &= ~(1 << DETACH);
 246:../LUFA/Drivers/USB/LowLevel/USBController.h **** 			}
 247:../LUFA/Drivers/USB/LowLevel/USBController.h **** 
 248:../LUFA/Drivers/USB/LowLevel/USBController.h **** 		/* Function Prototypes: */
 249:../LUFA/Drivers/USB/LowLevel/USBController.h **** 			/** Main function to initialize and start the USB interface. Once active, the USB interface will
 250:../LUFA/Drivers/USB/LowLevel/USBController.h **** 			 *  allow for device connection to a host when in device mode, or for device enumeration while i
 251:../LUFA/Drivers/USB/LowLevel/USBController.h **** 			 *  host mode.
 252:../LUFA/Drivers/USB/LowLevel/USBController.h **** 			 *
 253:../LUFA/Drivers/USB/LowLevel/USBController.h **** 			 *  As the USB library relies on interrupts for the device and host mode enumeration processes,
 254:../LUFA/Drivers/USB/LowLevel/USBController.h **** 			 *  the user must enable global interrupts before or shortly after this function is called. In
 255:../LUFA/Drivers/USB/LowLevel/USBController.h **** 			 *  device mode, interrupts must be enabled within 500ms of this function being called to ensure
 256:../LUFA/Drivers/USB/LowLevel/USBController.h **** 			 *  that the host does not time out whilst enumerating the device. In host mode, interrupts may 
 257:../LUFA/Drivers/USB/LowLevel/USBController.h **** 			 *  enabled at the application's leisure however enumeration will not begin of an attached devic
 258:../LUFA/Drivers/USB/LowLevel/USBController.h **** 			 *  until after this has occurred.
 259:../LUFA/Drivers/USB/LowLevel/USBController.h **** 			 *
 260:../LUFA/Drivers/USB/LowLevel/USBController.h **** 			 *  Calling this function when the USB interface is already initialized will cause a complete US
 261:../LUFA/Drivers/USB/LowLevel/USBController.h **** 			 *  interface reset and re-enumeration.
 262:../LUFA/Drivers/USB/LowLevel/USBController.h **** 			 *
 263:../LUFA/Drivers/USB/LowLevel/USBController.h **** 			 *  \param[in] Mode     This is a mask indicating what mode the USB interface is to be initializ
 264:../LUFA/Drivers/USB/LowLevel/USBController.h **** 			 *                      Valid mode masks are \ref USB_MODE_DEVICE, \ref USB_MODE_HOST or \ref US
 265:../LUFA/Drivers/USB/LowLevel/USBController.h **** 			 *
 266:../LUFA/Drivers/USB/LowLevel/USBController.h **** 			 *  \param[in] Options  Mask indicating the options which should be used when initializing the U
 267:../LUFA/Drivers/USB/LowLevel/USBController.h **** 			 *                      interface to control the USB interface's behaviour. This should be compr
 268:../LUFA/Drivers/USB/LowLevel/USBController.h **** 			 *                      a USB_OPT_REG_* mask to control the regulator, a USB_OPT_*_PLL mask to c
 269:../LUFA/Drivers/USB/LowLevel/USBController.h **** 			 *                      PLL, and a USB_DEVICE_OPT_* mask (when the device mode is enabled) to se
 270:../LUFA/Drivers/USB/LowLevel/USBController.h **** 			 *                      mode speed.
 271:../LUFA/Drivers/USB/LowLevel/USBController.h **** 			 *
 272:../LUFA/Drivers/USB/LowLevel/USBController.h **** 			 *  \note To reduce the FLASH requirements of the library if only device or host mode is require
 273:../LUFA/Drivers/USB/LowLevel/USBController.h **** 			 *        the mode can be statically set in the project makefile by defining the token USB_DEVIC
 274:../LUFA/Drivers/USB/LowLevel/USBController.h **** 			 *        (for device mode) or USB_HOST_ONLY (for host mode), passing the token to the compiler 
 275:../LUFA/Drivers/USB/LowLevel/USBController.h **** 			 *        via the -D switch. If the mode is statically set, this parameter does not exist in the
 276:../LUFA/Drivers/USB/LowLevel/USBController.h **** 			 *        function prototype.
 277:../LUFA/Drivers/USB/LowLevel/USBController.h **** 			 *        \n\n
 278:../LUFA/Drivers/USB/LowLevel/USBController.h **** 			 *
 279:../LUFA/Drivers/USB/LowLevel/USBController.h **** 			 *  \note To reduce the FLASH requirements of the library if only fixed settings are are require
 280:../LUFA/Drivers/USB/LowLevel/USBController.h **** 			 *        the options may be set statically in the same manner as the mode (see the Mode paramet
 281:../LUFA/Drivers/USB/LowLevel/USBController.h **** 			 *        this function). To statically set the USB options, pass in the USE_STATIC_OPTIONS toke
 282:../LUFA/Drivers/USB/LowLevel/USBController.h **** 			 *        defined to the appropriate options masks. When the options are statically set, this
 283:../LUFA/Drivers/USB/LowLevel/USBController.h **** 			 *        parameter does not exist in the function prototype.
 284:../LUFA/Drivers/USB/LowLevel/USBController.h **** 			 *        \n\n
 285:../LUFA/Drivers/USB/LowLevel/USBController.h **** 			 *        
 286:../LUFA/Drivers/USB/LowLevel/USBController.h **** 			 *  \note The mode parameter does not exist on devices where only one mode is possible, such as 
 287:../LUFA/Drivers/USB/LowLevel/USBController.h **** 			 *        AVR models which only implement the USB device mode in hardware.
 288:../LUFA/Drivers/USB/LowLevel/USBController.h **** 			 *
 289:../LUFA/Drivers/USB/LowLevel/USBController.h **** 			 *  \see Device.h for the USB_DEVICE_OPT_* masks.
 290:../LUFA/Drivers/USB/LowLevel/USBController.h **** 			 */
 291:../LUFA/Drivers/USB/LowLevel/USBController.h **** 			void USB_Init(
 292:../LUFA/Drivers/USB/LowLevel/USBController.h **** 			               #if defined(USB_CAN_BE_BOTH) || defined(__DOXYGEN__)
 293:../LUFA/Drivers/USB/LowLevel/USBController.h **** 			               const uint8_t Mode
 294:../LUFA/Drivers/USB/LowLevel/USBController.h **** 			               #endif
 295:../LUFA/Drivers/USB/LowLevel/USBController.h **** 
 296:../LUFA/Drivers/USB/LowLevel/USBController.h **** 			               #if (defined(USB_CAN_BE_BOTH) && !defined(USE_STATIC_OPTIONS)) || defined(__DOXYG
 297:../LUFA/Drivers/USB/LowLevel/USBController.h **** 			               ,
 298:../LUFA/Drivers/USB/LowLevel/USBController.h **** 			               #elif (!defined(USB_CAN_BE_BOTH) && defined(USE_STATIC_OPTIONS))
 299:../LUFA/Drivers/USB/LowLevel/USBController.h **** 			               void
 300:../LUFA/Drivers/USB/LowLevel/USBController.h **** 			               #endif
 301:../LUFA/Drivers/USB/LowLevel/USBController.h **** 
 302:../LUFA/Drivers/USB/LowLevel/USBController.h **** 			               #if !defined(USE_STATIC_OPTIONS) || defined(__DOXYGEN__)
 303:../LUFA/Drivers/USB/LowLevel/USBController.h **** 			               const uint8_t Options
 304:../LUFA/Drivers/USB/LowLevel/USBController.h **** 			               #endif
 305:../LUFA/Drivers/USB/LowLevel/USBController.h **** 			               );
 306:../LUFA/Drivers/USB/LowLevel/USBController.h **** 			
 307:../LUFA/Drivers/USB/LowLevel/USBController.h **** 			/** Shuts down the USB interface. This turns off the USB interface after deallocating all USB FI
 308:../LUFA/Drivers/USB/LowLevel/USBController.h **** 			 *  memory, endpoints and pipes. When turned off, no USB functionality can be used until the int
 309:../LUFA/Drivers/USB/LowLevel/USBController.h **** 			 *  is restarted with the \ref USB_Init() function.
 310:../LUFA/Drivers/USB/LowLevel/USBController.h **** 			 */
 311:../LUFA/Drivers/USB/LowLevel/USBController.h **** 			void USB_ShutDown(void);
 312:../LUFA/Drivers/USB/LowLevel/USBController.h **** 
 313:../LUFA/Drivers/USB/LowLevel/USBController.h **** 			/** Resets the interface, when already initialized. This will re-enumerate the device if already
 314:../LUFA/Drivers/USB/LowLevel/USBController.h **** 			 *  to a host, or re-enumerate an already attached device when in host mode.
 315:../LUFA/Drivers/USB/LowLevel/USBController.h **** 			 */
 316:../LUFA/Drivers/USB/LowLevel/USBController.h **** 			void USB_ResetInterface(void);
 317:../LUFA/Drivers/USB/LowLevel/USBController.h **** 
 318:../LUFA/Drivers/USB/LowLevel/USBController.h **** 		/* Enums: */
 319:../LUFA/Drivers/USB/LowLevel/USBController.h **** 			/** Enum for error codes relating to the powering on of the USB interface. These error codes are
 320:../LUFA/Drivers/USB/LowLevel/USBController.h **** 			 *  used in the ErrorCode parameter value of the \ref EVENT_USB_InitFailure() event.
 321:../LUFA/Drivers/USB/LowLevel/USBController.h **** 			 */
 322:../LUFA/Drivers/USB/LowLevel/USBController.h **** 			enum USB_InitErrorCodes_t
 323:../LUFA/Drivers/USB/LowLevel/USBController.h **** 			{
 324:../LUFA/Drivers/USB/LowLevel/USBController.h **** 				USB_INITERROR_NoUSBModeSpecified       = 0, /**< Indicates that \ref USB_Init() was called with
 325:../LUFA/Drivers/USB/LowLevel/USBController.h **** 				                                             *   invalid or missing Mode parameter.
 326:../LUFA/Drivers/USB/LowLevel/USBController.h **** 				                                             */
 327:../LUFA/Drivers/USB/LowLevel/USBController.h **** 			};
 328:../LUFA/Drivers/USB/LowLevel/USBController.h **** 
 329:../LUFA/Drivers/USB/LowLevel/USBController.h **** 		/* Global Variables: */
 330:../LUFA/Drivers/USB/LowLevel/USBController.h **** 			#if (!defined(USB_HOST_ONLY) && !defined(USB_DEVICE_ONLY)) || defined(__DOXYGEN__)
 331:../LUFA/Drivers/USB/LowLevel/USBController.h **** 				/** Indicates the mode that the USB interface is currently initialized to. This value will be
 332:../LUFA/Drivers/USB/LowLevel/USBController.h **** 				 *  one of the USB_MODE_* masks defined elsewhere in this module.
 333:../LUFA/Drivers/USB/LowLevel/USBController.h **** 				 *
 334:../LUFA/Drivers/USB/LowLevel/USBController.h **** 				 *  \note This variable should be treated as read-only in the user application, and never manua
 335:../LUFA/Drivers/USB/LowLevel/USBController.h **** 				 *        changed in value.
 336:../LUFA/Drivers/USB/LowLevel/USBController.h **** 				 */
 337:../LUFA/Drivers/USB/LowLevel/USBController.h **** 				extern volatile uint8_t USB_CurrentMode;
 338:../LUFA/Drivers/USB/LowLevel/USBController.h **** 			#elif defined(USB_HOST_ONLY)
 339:../LUFA/Drivers/USB/LowLevel/USBController.h **** 				#define USB_CurrentMode USB_MODE_HOST
 340:../LUFA/Drivers/USB/LowLevel/USBController.h **** 			#elif defined(USB_DEVICE_ONLY)
 341:../LUFA/Drivers/USB/LowLevel/USBController.h **** 				#define USB_CurrentMode USB_MODE_DEVICE
 342:../LUFA/Drivers/USB/LowLevel/USBController.h **** 			#endif
 343:../LUFA/Drivers/USB/LowLevel/USBController.h **** 			
 344:../LUFA/Drivers/USB/LowLevel/USBController.h **** 			#if !defined(USE_STATIC_OPTIONS) || defined(__DOXYGEN__)
 345:../LUFA/Drivers/USB/LowLevel/USBController.h **** 				/** Indicates the current USB options that the USB interface was initialized with when \ref USB
 346:../LUFA/Drivers/USB/LowLevel/USBController.h **** 				 *  was called. This value will be one of the USB_MODE_* masks defined elsewhere in this module
 347:../LUFA/Drivers/USB/LowLevel/USBController.h **** 				 *
 348:../LUFA/Drivers/USB/LowLevel/USBController.h **** 				 *  \note This variable should be treated as read-only in the user application, and never manua
 349:../LUFA/Drivers/USB/LowLevel/USBController.h **** 				 *        changed in value.
 350:../LUFA/Drivers/USB/LowLevel/USBController.h **** 				 */
 351:../LUFA/Drivers/USB/LowLevel/USBController.h **** 				extern volatile uint8_t USB_Options;
 352:../LUFA/Drivers/USB/LowLevel/USBController.h **** 			#elif defined(USE_STATIC_OPTIONS)
 353:../LUFA/Drivers/USB/LowLevel/USBController.h **** 				#define USB_Options USE_STATIC_OPTIONS
 354:../LUFA/Drivers/USB/LowLevel/USBController.h **** 			#endif
 355:../LUFA/Drivers/USB/LowLevel/USBController.h **** 
 356:../LUFA/Drivers/USB/LowLevel/USBController.h **** 	/* Private Interface - For use in library only: */
 357:../LUFA/Drivers/USB/LowLevel/USBController.h **** 	#if !defined(__DOXYGEN__)
 358:../LUFA/Drivers/USB/LowLevel/USBController.h **** 		/* Inline Functions: */
 359:../LUFA/Drivers/USB/LowLevel/USBController.h **** 			static inline void USB_PLL_On(void) ATTR_ALWAYS_INLINE;
 360:../LUFA/Drivers/USB/LowLevel/USBController.h **** 			static inline void USB_PLL_On(void)
 361:../LUFA/Drivers/USB/LowLevel/USBController.h **** 			{
 362:../LUFA/Drivers/USB/LowLevel/USBController.h **** 				PLLCSR  = USB_PLL_PSC;
 363:../LUFA/Drivers/USB/LowLevel/USBController.h **** 				PLLCSR |= (1 << PLLE);
 364:../LUFA/Drivers/USB/LowLevel/USBController.h **** 			}
 365:../LUFA/Drivers/USB/LowLevel/USBController.h **** 			
 366:../LUFA/Drivers/USB/LowLevel/USBController.h **** 			static inline void USB_PLL_Off(void) ATTR_ALWAYS_INLINE;
 367:../LUFA/Drivers/USB/LowLevel/USBController.h **** 			static inline void USB_PLL_Off(void)
 368:../LUFA/Drivers/USB/LowLevel/USBController.h **** 			{
 369:../LUFA/Drivers/USB/LowLevel/USBController.h **** 				PLLCSR  = 0;
 370:../LUFA/Drivers/USB/LowLevel/USBController.h **** 			}
 371:../LUFA/Drivers/USB/LowLevel/USBController.h **** 			
 372:../LUFA/Drivers/USB/LowLevel/USBController.h **** 			static inline bool USB_PLL_IsReady(void) ATTR_WARN_UNUSED_RESULT ATTR_ALWAYS_INLINE;
 373:../LUFA/Drivers/USB/LowLevel/USBController.h **** 			static inline bool USB_PLL_IsReady(void)
 374:../LUFA/Drivers/USB/LowLevel/USBController.h **** 			{
 375:../LUFA/Drivers/USB/LowLevel/USBController.h **** 				return ((PLLCSR  &   (1 << PLOCK)) ? true : false);
 376:../LUFA/Drivers/USB/LowLevel/USBController.h **** 			}
 377:../LUFA/Drivers/USB/LowLevel/USBController.h **** 
 378:../LUFA/Drivers/USB/LowLevel/USBController.h **** 			static inline void USB_REG_On(void) ATTR_ALWAYS_INLINE;
 379:../LUFA/Drivers/USB/LowLevel/USBController.h **** 			static inline void USB_REG_On(void)
 380:../LUFA/Drivers/USB/LowLevel/USBController.h **** 			{
 381:../LUFA/Drivers/USB/LowLevel/USBController.h **** 			#if defined(USB_SERIES_4_AVR) || defined(USB_SERIES_6_AVR) || defined(USB_SERIES_7_AVR)
 382:../LUFA/Drivers/USB/LowLevel/USBController.h **** 				UHWCON  |=  (1 << UVREGE);
 383:../LUFA/Drivers/USB/LowLevel/USBController.h **** 			#else
 384:../LUFA/Drivers/USB/LowLevel/USBController.h **** 				REGCR   &= ~(1 << REGDIS);
 385:../LUFA/Drivers/USB/LowLevel/USBController.h **** 			#endif			
 386:../LUFA/Drivers/USB/LowLevel/USBController.h **** 			}
 387:../LUFA/Drivers/USB/LowLevel/USBController.h **** 
 388:../LUFA/Drivers/USB/LowLevel/USBController.h **** 			static inline void USB_REG_Off(void) ATTR_ALWAYS_INLINE;
 389:../LUFA/Drivers/USB/LowLevel/USBController.h **** 			static inline void USB_REG_Off(void)
 390:../LUFA/Drivers/USB/LowLevel/USBController.h **** 			{
 391:../LUFA/Drivers/USB/LowLevel/USBController.h **** 			#if defined(USB_SERIES_4_AVR) || defined(USB_SERIES_6_AVR) || defined(USB_SERIES_7_AVR)
 392:../LUFA/Drivers/USB/LowLevel/USBController.h **** 				UHWCON  &= ~(1 << UVREGE);
 393:../LUFA/Drivers/USB/LowLevel/USBController.h **** 			#else
 394:../LUFA/Drivers/USB/LowLevel/USBController.h **** 				REGCR   |=  (1 << REGDIS);
 395:../LUFA/Drivers/USB/LowLevel/USBController.h **** 			#endif			
 396:../LUFA/Drivers/USB/LowLevel/USBController.h **** 			}
 397:../LUFA/Drivers/USB/LowLevel/USBController.h **** 			
 398:../LUFA/Drivers/USB/LowLevel/USBController.h **** 			#if defined(USB_SERIES_4_AVR) || defined(USB_SERIES_6_AVR) || defined(USB_SERIES_7_AVR)
 399:../LUFA/Drivers/USB/LowLevel/USBController.h **** 			static inline void USB_OTGPAD_On(void) ATTR_ALWAYS_INLINE;
 400:../LUFA/Drivers/USB/LowLevel/USBController.h **** 			static inline void USB_OTGPAD_On(void)
 401:../LUFA/Drivers/USB/LowLevel/USBController.h **** 			{
 402:../LUFA/Drivers/USB/LowLevel/USBController.h **** 				USBCON  |=  (1 << OTGPADE);
 403:../LUFA/Drivers/USB/LowLevel/USBController.h **** 			}
 404:../LUFA/Drivers/USB/LowLevel/USBController.h **** 
 405:../LUFA/Drivers/USB/LowLevel/USBController.h **** 			static inline void USB_OTGPAD_Off(void) ATTR_ALWAYS_INLINE;
 406:../LUFA/Drivers/USB/LowLevel/USBController.h **** 			static inline void USB_OTGPAD_Off(void)
 407:../LUFA/Drivers/USB/LowLevel/USBController.h **** 			{
 408:../LUFA/Drivers/USB/LowLevel/USBController.h **** 				USBCON  &= ~(1 << OTGPADE);
 409:../LUFA/Drivers/USB/LowLevel/USBController.h **** 			}
 410:../LUFA/Drivers/USB/LowLevel/USBController.h **** 			#endif
 411:../LUFA/Drivers/USB/LowLevel/USBController.h **** 
 412:../LUFA/Drivers/USB/LowLevel/USBController.h **** 			static inline void USB_CLK_Freeze(void) ATTR_ALWAYS_INLINE;
 413:../LUFA/Drivers/USB/LowLevel/USBController.h **** 			static inline void USB_CLK_Freeze(void)
 414:../LUFA/Drivers/USB/LowLevel/USBController.h **** 			{
 415:../LUFA/Drivers/USB/LowLevel/USBController.h **** 				USBCON  |=  (1 << FRZCLK);
 138               		.loc 2 415 0
 139 0050 8091 D800 		lds r24,216
 140 0054 8062      		ori r24,lo8(32)
 141 0056 8093 D800 		sts 216,r24
 142               	.LBE53:
 143               	.LBE52:
 144               	.LBB54:
 145               	.LBB55:
 369:../LUFA/Drivers/USB/LowLevel/USBController.h **** 			}
 146               		.loc 2 369 0
 147 005a 19BC      		out 0x29,__zero_reg__
 148               	.LBE55:
 149               	.LBE54:
  95:../LUFA/Drivers/USB/LowLevel/USBInterrupt.c **** 		
  96:../LUFA/Drivers/USB/LowLevel/USBInterrupt.c **** 		USB_CLK_Freeze();
  97:../LUFA/Drivers/USB/LowLevel/USBInterrupt.c **** 		
  98:../LUFA/Drivers/USB/LowLevel/USBInterrupt.c **** 		if (!(USB_Options & USB_OPT_MANUAL_PLL))
  99:../LUFA/Drivers/USB/LowLevel/USBInterrupt.c **** 		  USB_PLL_Off();
 100:../LUFA/Drivers/USB/LowLevel/USBInterrupt.c **** 
 101:../LUFA/Drivers/USB/LowLevel/USBInterrupt.c **** 		#if defined(USB_SERIES_2_AVR) && !defined(NO_LIMITED_CONTROLLER_CONNECT)
 102:../LUFA/Drivers/USB/LowLevel/USBInterrupt.c **** 		USB_DeviceState = DEVICE_STATE_Unattached;
 150               		.loc 1 102 0
 151 005c 1EBA      		out 0x1e,__zero_reg__
 103:../LUFA/Drivers/USB/LowLevel/USBInterrupt.c **** 		EVENT_USB_Device_Disconnect();
 152               		.loc 1 103 0
 153 005e 0E94 0000 		call EVENT_USB_Device_Disconnect
 154               	.LVL0:
 155               	.L4:
 104:../LUFA/Drivers/USB/LowLevel/USBInterrupt.c **** 		#else
 105:../LUFA/Drivers/USB/LowLevel/USBInterrupt.c **** 		USB_DeviceState = DEVICE_STATE_Suspended;
 106:../LUFA/Drivers/USB/LowLevel/USBInterrupt.c **** 		EVENT_USB_Device_Suspend();
 107:../LUFA/Drivers/USB/LowLevel/USBInterrupt.c **** 		#endif
 108:../LUFA/Drivers/USB/LowLevel/USBInterrupt.c **** 	}
 109:../LUFA/Drivers/USB/LowLevel/USBInterrupt.c **** 
 110:../LUFA/Drivers/USB/LowLevel/USBInterrupt.c **** 	if (USB_INT_HasOccurred(USB_INT_WAKEUP) && USB_INT_IsEnabled(USB_INT_WAKEUP))
 156               		.loc 1 110 0
 157 0062 8091 E100 		lds r24,225
 158 0066 84FF      		sbrs r24,4
 159 0068 00C0      		rjmp .L5
 160               		.loc 1 110 0 is_stmt 0 discriminator 1
 161 006a 8091 E200 		lds r24,226
 162 006e 84FF      		sbrs r24,4
 163 0070 00C0      		rjmp .L5
 164               	.LBB56:
 165               	.LBB57:
 362:../LUFA/Drivers/USB/LowLevel/USBController.h **** 				PLLCSR |= (1 << PLLE);
 166               		.loc 2 362 0 is_stmt 1
 167 0072 84E0      		ldi r24,lo8(4)
 168 0074 89BD      		out 0x29,r24
 363:../LUFA/Drivers/USB/LowLevel/USBController.h **** 			}
 169               		.loc 2 363 0
 170 0076 89B5      		in r24,0x29
 171 0078 8260      		ori r24,lo8(2)
 172 007a 89BD      		out 0x29,r24
 173               	.L6:
 174               	.LBE57:
 175               	.LBE56:
 111:../LUFA/Drivers/USB/LowLevel/USBInterrupt.c **** 	{
 112:../LUFA/Drivers/USB/LowLevel/USBInterrupt.c **** 		if (!(USB_Options & USB_OPT_MANUAL_PLL))
 113:../LUFA/Drivers/USB/LowLevel/USBInterrupt.c **** 		{
 114:../LUFA/Drivers/USB/LowLevel/USBInterrupt.c **** 			USB_PLL_On();
 115:../LUFA/Drivers/USB/LowLevel/USBInterrupt.c **** 			while (!(USB_PLL_IsReady()));
 176               		.loc 1 115 0 discriminator 1
 177 007c 09B4      		in __tmp_reg__,0x29
 178 007e 00FE      		sbrs __tmp_reg__,0
 179 0080 00C0      		rjmp .L6
 180               	.LBB58:
 181               	.LBB59:
 416:../LUFA/Drivers/USB/LowLevel/USBController.h **** 			}
 417:../LUFA/Drivers/USB/LowLevel/USBController.h **** 			
 418:../LUFA/Drivers/USB/LowLevel/USBController.h **** 			static inline void USB_CLK_Unfreeze(void) ATTR_ALWAYS_INLINE;
 419:../LUFA/Drivers/USB/LowLevel/USBController.h **** 			static inline void USB_CLK_Unfreeze(void)
 420:../LUFA/Drivers/USB/LowLevel/USBController.h **** 			{
 421:../LUFA/Drivers/USB/LowLevel/USBController.h **** 				USBCON  &= ~(1 << FRZCLK);
 182               		.loc 2 421 0
 183 0082 8091 D800 		lds r24,216
 184 0086 8F7D      		andi r24,lo8(-33)
 185 0088 8093 D800 		sts 216,r24
 186               	.LBE59:
 187               	.LBE58:
 116:../LUFA/Drivers/USB/LowLevel/USBInterrupt.c **** 		}
 117:../LUFA/Drivers/USB/LowLevel/USBInterrupt.c **** 
 118:../LUFA/Drivers/USB/LowLevel/USBInterrupt.c **** 		USB_CLK_Unfreeze();
 119:../LUFA/Drivers/USB/LowLevel/USBInterrupt.c **** 
 120:../LUFA/Drivers/USB/LowLevel/USBInterrupt.c **** 		USB_INT_Clear(USB_INT_WAKEUP);
 188               		.loc 1 120 0
 189 008c 8091 E100 		lds r24,225
 190 0090 8F7E      		andi r24,lo8(-17)
 191 0092 8093 E100 		sts 225,r24
 121:../LUFA/Drivers/USB/LowLevel/USBInterrupt.c **** 
 122:../LUFA/Drivers/USB/LowLevel/USBInterrupt.c **** 		USB_INT_Disable(USB_INT_WAKEUP);
 192               		.loc 1 122 0
 193 0096 8091 E200 		lds r24,226
 194 009a 8F7E      		andi r24,lo8(-17)
 195 009c 8093 E200 		sts 226,r24
 123:../LUFA/Drivers/USB/LowLevel/USBInterrupt.c **** 		USB_INT_Enable(USB_INT_SUSPEND);
 196               		.loc 1 123 0
 197 00a0 8091 E200 		lds r24,226
 198 00a4 8160      		ori r24,lo8(1)
 199 00a6 8093 E200 		sts 226,r24
 124:../LUFA/Drivers/USB/LowLevel/USBInterrupt.c **** 		
 125:../LUFA/Drivers/USB/LowLevel/USBInterrupt.c **** 		#if defined(USB_SERIES_2_AVR) && !defined(NO_LIMITED_CONTROLLER_CONNECT)
 126:../LUFA/Drivers/USB/LowLevel/USBInterrupt.c **** 		USB_DeviceState = (USB_ConfigurationNumber) ? DEVICE_STATE_Configured : DEVICE_STATE_Powered;
 200               		.loc 1 126 0
 201 00aa 8091 0000 		lds r24,USB_ConfigurationNumber
 202 00ae 8111      		cpse r24,__zero_reg__
 203 00b0 00C0      		rjmp .L10
 204 00b2 81E0      		ldi r24,lo8(1)
 205 00b4 00C0      		rjmp .L7
 206               	.L10:
 207 00b6 84E0      		ldi r24,lo8(4)
 208               	.L7:
 209               		.loc 1 126 0 is_stmt 0 discriminator 4
 210 00b8 8EBB      		out 0x1e,r24
 127:../LUFA/Drivers/USB/LowLevel/USBInterrupt.c **** 		EVENT_USB_Device_Connect();
 211               		.loc 1 127 0 is_stmt 1 discriminator 4
 212 00ba 0E94 0000 		call EVENT_USB_Device_Connect
 213               	.LVL1:
 214               	.L5:
 128:../LUFA/Drivers/USB/LowLevel/USBInterrupt.c **** 		#else
 129:../LUFA/Drivers/USB/LowLevel/USBInterrupt.c **** 		USB_DeviceState = (USB_ConfigurationNumber) ? DEVICE_STATE_Configured : DEVICE_STATE_Addressed;
 130:../LUFA/Drivers/USB/LowLevel/USBInterrupt.c **** 		EVENT_USB_Device_WakeUp();		
 131:../LUFA/Drivers/USB/LowLevel/USBInterrupt.c **** 		#endif
 132:../LUFA/Drivers/USB/LowLevel/USBInterrupt.c **** 	}
 133:../LUFA/Drivers/USB/LowLevel/USBInterrupt.c ****    
 134:../LUFA/Drivers/USB/LowLevel/USBInterrupt.c **** 	if (USB_INT_HasOccurred(USB_INT_EORSTI) && USB_INT_IsEnabled(USB_INT_EORSTI))
 215               		.loc 1 134 0
 216 00be 8091 E100 		lds r24,225
 217 00c2 83FF      		sbrs r24,3
 218 00c4 00C0      		rjmp .L8
 219               		.loc 1 134 0 is_stmt 0 discriminator 1
 220 00c6 8091 E200 		lds r24,226
 221 00ca 83FF      		sbrs r24,3
 222 00cc 00C0      		rjmp .L8
 135:../LUFA/Drivers/USB/LowLevel/USBInterrupt.c **** 	{
 136:../LUFA/Drivers/USB/LowLevel/USBInterrupt.c **** 		USB_INT_Clear(USB_INT_EORSTI);
 223               		.loc 1 136 0 is_stmt 1
 224 00ce 8091 E100 		lds r24,225
 225 00d2 877F      		andi r24,lo8(-9)
 226 00d4 8093 E100 		sts 225,r24
 137:../LUFA/Drivers/USB/LowLevel/USBInterrupt.c **** 
 138:../LUFA/Drivers/USB/LowLevel/USBInterrupt.c **** 		USB_DeviceState         = DEVICE_STATE_Default;
 227               		.loc 1 138 0
 228 00d8 82E0      		ldi r24,lo8(2)
 229 00da 8EBB      		out 0x1e,r24
 139:../LUFA/Drivers/USB/LowLevel/USBInterrupt.c **** 		USB_ConfigurationNumber = 0;
 230               		.loc 1 139 0
 231 00dc 1092 0000 		sts USB_ConfigurationNumber,__zero_reg__
 140:../LUFA/Drivers/USB/LowLevel/USBInterrupt.c **** 
 141:../LUFA/Drivers/USB/LowLevel/USBInterrupt.c **** 		USB_INT_Clear(USB_INT_SUSPEND);
 232               		.loc 1 141 0
 233 00e0 8091 E100 		lds r24,225
 234 00e4 8E7F      		andi r24,lo8(-2)
 235 00e6 8093 E100 		sts 225,r24
 142:../LUFA/Drivers/USB/LowLevel/USBInterrupt.c **** 		USB_INT_Disable(USB_INT_SUSPEND);
 236               		.loc 1 142 0
 237 00ea 8091 E200 		lds r24,226
 238 00ee 8E7F      		andi r24,lo8(-2)
 239 00f0 8093 E200 		sts 226,r24
 143:../LUFA/Drivers/USB/LowLevel/USBInterrupt.c **** 		USB_INT_Enable(USB_INT_WAKEUP);
 240               		.loc 1 143 0
 241 00f4 8091 E200 		lds r24,226
 242 00f8 8061      		ori r24,lo8(16)
 243 00fa 8093 E200 		sts 226,r24
 144:../LUFA/Drivers/USB/LowLevel/USBInterrupt.c **** 
 145:../LUFA/Drivers/USB/LowLevel/USBInterrupt.c **** 		Endpoint_ClearEndpoints();
 244               		.loc 1 145 0
 245 00fe 0E94 0000 		call Endpoint_ClearEndpoints
 246               	.LVL2:
 247               	.LBB60:
 248               	.LBB61:
 249               		.file 3 "../LUFA/Drivers/USB/LowLevel/../HighLevel/../LowLevel/Endpoint.h"
   1:../LUFA/Drivers/USB/LowLevel/../HighLevel/../LowLevel/Endpoint.h **** /*
   2:../LUFA/Drivers/USB/LowLevel/../HighLevel/../LowLevel/Endpoint.h ****              LUFA Library
   3:../LUFA/Drivers/USB/LowLevel/../HighLevel/../LowLevel/Endpoint.h ****      Copyright (C) Dean Camera, 2010.
   4:../LUFA/Drivers/USB/LowLevel/../HighLevel/../LowLevel/Endpoint.h ****               
   5:../LUFA/Drivers/USB/LowLevel/../HighLevel/../LowLevel/Endpoint.h ****   dean [at] fourwalledcubicle [dot] com
   6:../LUFA/Drivers/USB/LowLevel/../HighLevel/../LowLevel/Endpoint.h ****       www.fourwalledcubicle.com
   7:../LUFA/Drivers/USB/LowLevel/../HighLevel/../LowLevel/Endpoint.h **** */
   8:../LUFA/Drivers/USB/LowLevel/../HighLevel/../LowLevel/Endpoint.h **** 
   9:../LUFA/Drivers/USB/LowLevel/../HighLevel/../LowLevel/Endpoint.h **** /*
  10:../LUFA/Drivers/USB/LowLevel/../HighLevel/../LowLevel/Endpoint.h ****   Copyright 2010  Dean Camera (dean [at] fourwalledcubicle [dot] com)
  11:../LUFA/Drivers/USB/LowLevel/../HighLevel/../LowLevel/Endpoint.h **** 
  12:../LUFA/Drivers/USB/LowLevel/../HighLevel/../LowLevel/Endpoint.h ****   Permission to use, copy, modify, distribute, and sell this 
  13:../LUFA/Drivers/USB/LowLevel/../HighLevel/../LowLevel/Endpoint.h ****   software and its documentation for any purpose is hereby granted
  14:../LUFA/Drivers/USB/LowLevel/../HighLevel/../LowLevel/Endpoint.h ****   without fee, provided that the above copyright notice appear in 
  15:../LUFA/Drivers/USB/LowLevel/../HighLevel/../LowLevel/Endpoint.h ****   all copies and that both that the copyright notice and this
  16:../LUFA/Drivers/USB/LowLevel/../HighLevel/../LowLevel/Endpoint.h ****   permission notice and warranty disclaimer appear in supporting 
  17:../LUFA/Drivers/USB/LowLevel/../HighLevel/../LowLevel/Endpoint.h ****   documentation, and that the name of the author not be used in 
  18:../LUFA/Drivers/USB/LowLevel/../HighLevel/../LowLevel/Endpoint.h ****   advertising or publicity pertaining to distribution of the 
  19:../LUFA/Drivers/USB/LowLevel/../HighLevel/../LowLevel/Endpoint.h ****   software without specific, written prior permission.
  20:../LUFA/Drivers/USB/LowLevel/../HighLevel/../LowLevel/Endpoint.h **** 
  21:../LUFA/Drivers/USB/LowLevel/../HighLevel/../LowLevel/Endpoint.h ****   The author disclaim all warranties with regard to this
  22:../LUFA/Drivers/USB/LowLevel/../HighLevel/../LowLevel/Endpoint.h ****   software, including all implied warranties of merchantability
  23:../LUFA/Drivers/USB/LowLevel/../HighLevel/../LowLevel/Endpoint.h ****   and fitness.  In no event shall the author be liable for any
  24:../LUFA/Drivers/USB/LowLevel/../HighLevel/../LowLevel/Endpoint.h ****   special, indirect or consequential damages or any damages
  25:../LUFA/Drivers/USB/LowLevel/../HighLevel/../LowLevel/Endpoint.h ****   whatsoever resulting from loss of use, data or profits, whether
  26:../LUFA/Drivers/USB/LowLevel/../HighLevel/../LowLevel/Endpoint.h ****   in an action of contract, negligence or other tortious action,
  27:../LUFA/Drivers/USB/LowLevel/../HighLevel/../LowLevel/Endpoint.h ****   arising out of or in connection with the use or performance of
  28:../LUFA/Drivers/USB/LowLevel/../HighLevel/../LowLevel/Endpoint.h ****   this software.
  29:../LUFA/Drivers/USB/LowLevel/../HighLevel/../LowLevel/Endpoint.h **** */
  30:../LUFA/Drivers/USB/LowLevel/../HighLevel/../LowLevel/Endpoint.h **** 
  31:../LUFA/Drivers/USB/LowLevel/../HighLevel/../LowLevel/Endpoint.h **** /** \file
  32:../LUFA/Drivers/USB/LowLevel/../HighLevel/../LowLevel/Endpoint.h ****  *  \brief USB device endpoint management definitions.
  33:../LUFA/Drivers/USB/LowLevel/../HighLevel/../LowLevel/Endpoint.h ****  *
  34:../LUFA/Drivers/USB/LowLevel/../HighLevel/../LowLevel/Endpoint.h ****  *  This file contains structures, function prototypes and macros related to the management of the 
  35:../LUFA/Drivers/USB/LowLevel/../HighLevel/../LowLevel/Endpoint.h ****  *  data endpoints when the library is initialized in USB device mode.
  36:../LUFA/Drivers/USB/LowLevel/../HighLevel/../LowLevel/Endpoint.h ****  *
  37:../LUFA/Drivers/USB/LowLevel/../HighLevel/../LowLevel/Endpoint.h ****  *  \note This file should not be included directly. It is automatically included as needed by the 
  38:../LUFA/Drivers/USB/LowLevel/../HighLevel/../LowLevel/Endpoint.h ****  *        dispatch header located in LUFA/Drivers/USB/USB.h.
  39:../LUFA/Drivers/USB/LowLevel/../HighLevel/../LowLevel/Endpoint.h ****  */
  40:../LUFA/Drivers/USB/LowLevel/../HighLevel/../LowLevel/Endpoint.h **** 
  41:../LUFA/Drivers/USB/LowLevel/../HighLevel/../LowLevel/Endpoint.h **** /** \ingroup Group_USB
  42:../LUFA/Drivers/USB/LowLevel/../HighLevel/../LowLevel/Endpoint.h ****  *  @defgroup Group_EndpointManagement Endpoint Management
  43:../LUFA/Drivers/USB/LowLevel/../HighLevel/../LowLevel/Endpoint.h ****  *
  44:../LUFA/Drivers/USB/LowLevel/../HighLevel/../LowLevel/Endpoint.h ****  *  Functions, macros and enums related to endpoint management when in USB Device mode. This
  45:../LUFA/Drivers/USB/LowLevel/../HighLevel/../LowLevel/Endpoint.h ****  *  module contains the endpoint management macros, as well as endpoint interrupt and data
  46:../LUFA/Drivers/USB/LowLevel/../HighLevel/../LowLevel/Endpoint.h ****  *  send/receive functions for various data types.
  47:../LUFA/Drivers/USB/LowLevel/../HighLevel/../LowLevel/Endpoint.h ****  *
  48:../LUFA/Drivers/USB/LowLevel/../HighLevel/../LowLevel/Endpoint.h ****  *  @{
  49:../LUFA/Drivers/USB/LowLevel/../HighLevel/../LowLevel/Endpoint.h ****  */
  50:../LUFA/Drivers/USB/LowLevel/../HighLevel/../LowLevel/Endpoint.h **** 
  51:../LUFA/Drivers/USB/LowLevel/../HighLevel/../LowLevel/Endpoint.h **** /** @defgroup Group_EndpointRW Endpoint Data Reading and Writing
  52:../LUFA/Drivers/USB/LowLevel/../HighLevel/../LowLevel/Endpoint.h ****  *
  53:../LUFA/Drivers/USB/LowLevel/../HighLevel/../LowLevel/Endpoint.h ****  *  Functions, macros, variables, enums and types related to data reading and writing from and to e
  54:../LUFA/Drivers/USB/LowLevel/../HighLevel/../LowLevel/Endpoint.h ****  */
  55:../LUFA/Drivers/USB/LowLevel/../HighLevel/../LowLevel/Endpoint.h ****  
  56:../LUFA/Drivers/USB/LowLevel/../HighLevel/../LowLevel/Endpoint.h **** /** \ingroup Group_EndpointRW  
  57:../LUFA/Drivers/USB/LowLevel/../HighLevel/../LowLevel/Endpoint.h ****  *  @defgroup Group_EndpointPrimitiveRW Read/Write of Primitive Data Types
  58:../LUFA/Drivers/USB/LowLevel/../HighLevel/../LowLevel/Endpoint.h ****  *
  59:../LUFA/Drivers/USB/LowLevel/../HighLevel/../LowLevel/Endpoint.h ****  *  Functions, macros, variables, enums and types related to data reading and writing of primitive 
  60:../LUFA/Drivers/USB/LowLevel/../HighLevel/../LowLevel/Endpoint.h ****  *  from and to endpoints.
  61:../LUFA/Drivers/USB/LowLevel/../HighLevel/../LowLevel/Endpoint.h ****  */ 
  62:../LUFA/Drivers/USB/LowLevel/../HighLevel/../LowLevel/Endpoint.h **** 
  63:../LUFA/Drivers/USB/LowLevel/../HighLevel/../LowLevel/Endpoint.h **** /** \ingroup Group_EndpointRW  
  64:../LUFA/Drivers/USB/LowLevel/../HighLevel/../LowLevel/Endpoint.h ****  *  @defgroup Group_EndpointStreamRW Read/Write of Multi-Byte Streams
  65:../LUFA/Drivers/USB/LowLevel/../HighLevel/../LowLevel/Endpoint.h ****  *
  66:../LUFA/Drivers/USB/LowLevel/../HighLevel/../LowLevel/Endpoint.h ****  *  Functions, macros, variables, enums and types related to data reading and writing of data strea
  67:../LUFA/Drivers/USB/LowLevel/../HighLevel/../LowLevel/Endpoint.h ****  *  and to endpoints.
  68:../LUFA/Drivers/USB/LowLevel/../HighLevel/../LowLevel/Endpoint.h ****  */ 
  69:../LUFA/Drivers/USB/LowLevel/../HighLevel/../LowLevel/Endpoint.h **** 
  70:../LUFA/Drivers/USB/LowLevel/../HighLevel/../LowLevel/Endpoint.h **** /** @defgroup Group_EndpointPacketManagement Endpoint Packet Management
  71:../LUFA/Drivers/USB/LowLevel/../HighLevel/../LowLevel/Endpoint.h ****  *
  72:../LUFA/Drivers/USB/LowLevel/../HighLevel/../LowLevel/Endpoint.h ****  *  Functions, macros, variables, enums and types related to packet management of endpoints.
  73:../LUFA/Drivers/USB/LowLevel/../HighLevel/../LowLevel/Endpoint.h ****  */
  74:../LUFA/Drivers/USB/LowLevel/../HighLevel/../LowLevel/Endpoint.h **** 
  75:../LUFA/Drivers/USB/LowLevel/../HighLevel/../LowLevel/Endpoint.h **** #ifndef __ENDPOINT_H__
  76:../LUFA/Drivers/USB/LowLevel/../HighLevel/../LowLevel/Endpoint.h **** #define __ENDPOINT_H__
  77:../LUFA/Drivers/USB/LowLevel/../HighLevel/../LowLevel/Endpoint.h **** 
  78:../LUFA/Drivers/USB/LowLevel/../HighLevel/../LowLevel/Endpoint.h **** 	/* Includes: */
  79:../LUFA/Drivers/USB/LowLevel/../HighLevel/../LowLevel/Endpoint.h **** 		#include <avr/io.h>
  80:../LUFA/Drivers/USB/LowLevel/../HighLevel/../LowLevel/Endpoint.h **** 		#include <avr/pgmspace.h>
  81:../LUFA/Drivers/USB/LowLevel/../HighLevel/../LowLevel/Endpoint.h **** 		#include <avr/eeprom.h>
  82:../LUFA/Drivers/USB/LowLevel/../HighLevel/../LowLevel/Endpoint.h **** 		#include <stdbool.h>
  83:../LUFA/Drivers/USB/LowLevel/../HighLevel/../LowLevel/Endpoint.h **** 
  84:../LUFA/Drivers/USB/LowLevel/../HighLevel/../LowLevel/Endpoint.h **** 		#include "../../../Common/Common.h"
  85:../LUFA/Drivers/USB/LowLevel/../HighLevel/../LowLevel/Endpoint.h **** 		#include "../HighLevel/USBTask.h"
  86:../LUFA/Drivers/USB/LowLevel/../HighLevel/../LowLevel/Endpoint.h **** 		#include "USBInterrupt.h"
  87:../LUFA/Drivers/USB/LowLevel/../HighLevel/../LowLevel/Endpoint.h **** 
  88:../LUFA/Drivers/USB/LowLevel/../HighLevel/../LowLevel/Endpoint.h **** 		#if !defined(NO_STREAM_CALLBACKS) || defined(__DOXYGEN__)
  89:../LUFA/Drivers/USB/LowLevel/../HighLevel/../LowLevel/Endpoint.h **** 			#include "../HighLevel/StreamCallbacks.h"
  90:../LUFA/Drivers/USB/LowLevel/../HighLevel/../LowLevel/Endpoint.h **** 		#endif
  91:../LUFA/Drivers/USB/LowLevel/../HighLevel/../LowLevel/Endpoint.h **** 		
  92:../LUFA/Drivers/USB/LowLevel/../HighLevel/../LowLevel/Endpoint.h **** 	/* Enable C linkage for C++ Compilers: */
  93:../LUFA/Drivers/USB/LowLevel/../HighLevel/../LowLevel/Endpoint.h **** 		#if defined(__cplusplus)
  94:../LUFA/Drivers/USB/LowLevel/../HighLevel/../LowLevel/Endpoint.h **** 			extern "C" {
  95:../LUFA/Drivers/USB/LowLevel/../HighLevel/../LowLevel/Endpoint.h **** 		#endif
  96:../LUFA/Drivers/USB/LowLevel/../HighLevel/../LowLevel/Endpoint.h **** 
  97:../LUFA/Drivers/USB/LowLevel/../HighLevel/../LowLevel/Endpoint.h **** 	/* Preprocessor Checks: */
  98:../LUFA/Drivers/USB/LowLevel/../HighLevel/../LowLevel/Endpoint.h **** 		#if !defined(__INCLUDE_FROM_USB_DRIVER)
  99:../LUFA/Drivers/USB/LowLevel/../HighLevel/../LowLevel/Endpoint.h **** 			#error Do not include this file directly. Include LUFA/Drivers/USB/USB.h instead.
 100:../LUFA/Drivers/USB/LowLevel/../HighLevel/../LowLevel/Endpoint.h **** 		#endif
 101:../LUFA/Drivers/USB/LowLevel/../HighLevel/../LowLevel/Endpoint.h **** 		
 102:../LUFA/Drivers/USB/LowLevel/../HighLevel/../LowLevel/Endpoint.h **** 	/* Public Interface - May be used in end-application: */
 103:../LUFA/Drivers/USB/LowLevel/../HighLevel/../LowLevel/Endpoint.h **** 		/* Macros: */
 104:../LUFA/Drivers/USB/LowLevel/../HighLevel/../LowLevel/Endpoint.h **** 			/** Endpoint data direction mask for \ref Endpoint_ConfigureEndpoint(). This indicates that the 
 105:../LUFA/Drivers/USB/LowLevel/../HighLevel/../LowLevel/Endpoint.h **** 			 *  should be initialized in the OUT direction - i.e. data flows from host to device.
 106:../LUFA/Drivers/USB/LowLevel/../HighLevel/../LowLevel/Endpoint.h **** 			 */
 107:../LUFA/Drivers/USB/LowLevel/../HighLevel/../LowLevel/Endpoint.h **** 			#define ENDPOINT_DIR_OUT                      (0 << EPDIR)
 108:../LUFA/Drivers/USB/LowLevel/../HighLevel/../LowLevel/Endpoint.h **** 
 109:../LUFA/Drivers/USB/LowLevel/../HighLevel/../LowLevel/Endpoint.h **** 			/** Endpoint data direction mask for \ref Endpoint_ConfigureEndpoint(). This indicates that the 
 110:../LUFA/Drivers/USB/LowLevel/../HighLevel/../LowLevel/Endpoint.h **** 			 *  should be initialized in the IN direction - i.e. data flows from device to host.
 111:../LUFA/Drivers/USB/LowLevel/../HighLevel/../LowLevel/Endpoint.h **** 			 */
 112:../LUFA/Drivers/USB/LowLevel/../HighLevel/../LowLevel/Endpoint.h **** 			#define ENDPOINT_DIR_IN                       (1 << EPDIR)
 113:../LUFA/Drivers/USB/LowLevel/../HighLevel/../LowLevel/Endpoint.h **** 
 114:../LUFA/Drivers/USB/LowLevel/../HighLevel/../LowLevel/Endpoint.h **** 			/** Mask for the bank mode selection for the \ref Endpoint_ConfigureEndpoint() macro. This indic
 115:../LUFA/Drivers/USB/LowLevel/../HighLevel/../LowLevel/Endpoint.h **** 			 *  that the endpoint should have one single bank, which requires less USB FIFO memory but resul
 116:../LUFA/Drivers/USB/LowLevel/../HighLevel/../LowLevel/Endpoint.h **** 			 *  in slower transfers as only one USB device (the AVR or the host) can access the endpoint's
 117:../LUFA/Drivers/USB/LowLevel/../HighLevel/../LowLevel/Endpoint.h **** 			 *  bank at the one time.
 118:../LUFA/Drivers/USB/LowLevel/../HighLevel/../LowLevel/Endpoint.h **** 			 */
 119:../LUFA/Drivers/USB/LowLevel/../HighLevel/../LowLevel/Endpoint.h **** 			#define ENDPOINT_BANK_SINGLE                  (0 << EPBK0)
 120:../LUFA/Drivers/USB/LowLevel/../HighLevel/../LowLevel/Endpoint.h **** 
 121:../LUFA/Drivers/USB/LowLevel/../HighLevel/../LowLevel/Endpoint.h **** 			/** Mask for the bank mode selection for the \ref Endpoint_ConfigureEndpoint() macro. This indic
 122:../LUFA/Drivers/USB/LowLevel/../HighLevel/../LowLevel/Endpoint.h **** 			 *  that the endpoint should have two banks, which requires more USB FIFO memory but results
 123:../LUFA/Drivers/USB/LowLevel/../HighLevel/../LowLevel/Endpoint.h **** 			 *  in faster transfers as one USB device (the AVR or the host) can access one bank while the ot
 124:../LUFA/Drivers/USB/LowLevel/../HighLevel/../LowLevel/Endpoint.h **** 			 *  accesses the second bank.
 125:../LUFA/Drivers/USB/LowLevel/../HighLevel/../LowLevel/Endpoint.h **** 			 */
 126:../LUFA/Drivers/USB/LowLevel/../HighLevel/../LowLevel/Endpoint.h **** 			#define ENDPOINT_BANK_DOUBLE                  (1 << EPBK0)
 127:../LUFA/Drivers/USB/LowLevel/../HighLevel/../LowLevel/Endpoint.h **** 			
 128:../LUFA/Drivers/USB/LowLevel/../HighLevel/../LowLevel/Endpoint.h **** 			/** Endpoint address for the default control endpoint, which always resides in address 0. This i
 129:../LUFA/Drivers/USB/LowLevel/../HighLevel/../LowLevel/Endpoint.h **** 			 *  defined for convenience to give more readable code when used with the endpoint macros.
 130:../LUFA/Drivers/USB/LowLevel/../HighLevel/../LowLevel/Endpoint.h **** 			 */
 131:../LUFA/Drivers/USB/LowLevel/../HighLevel/../LowLevel/Endpoint.h **** 			#define ENDPOINT_CONTROLEP                    0
 132:../LUFA/Drivers/USB/LowLevel/../HighLevel/../LowLevel/Endpoint.h **** 
 133:../LUFA/Drivers/USB/LowLevel/../HighLevel/../LowLevel/Endpoint.h **** 			#if (!defined(FIXED_CONTROL_ENDPOINT_SIZE) || defined(__DOXYGEN__))
 134:../LUFA/Drivers/USB/LowLevel/../HighLevel/../LowLevel/Endpoint.h **** 				/** Default size of the default control endpoint's bank, until altered by the control endpoint 
 135:../LUFA/Drivers/USB/LowLevel/../HighLevel/../LowLevel/Endpoint.h **** 				 *  value in the device descriptor. Not available if the FIXED_CONTROL_ENDPOINT_SIZE token is d
 136:../LUFA/Drivers/USB/LowLevel/../HighLevel/../LowLevel/Endpoint.h **** 				 */
 137:../LUFA/Drivers/USB/LowLevel/../HighLevel/../LowLevel/Endpoint.h **** 				#define ENDPOINT_CONTROLEP_DEFAULT_SIZE   8
 138:../LUFA/Drivers/USB/LowLevel/../HighLevel/../LowLevel/Endpoint.h **** 			#endif
 139:../LUFA/Drivers/USB/LowLevel/../HighLevel/../LowLevel/Endpoint.h **** 			
 140:../LUFA/Drivers/USB/LowLevel/../HighLevel/../LowLevel/Endpoint.h **** 			/** Endpoint number mask, for masking against endpoint addresses to retrieve the endpoint's
 141:../LUFA/Drivers/USB/LowLevel/../HighLevel/../LowLevel/Endpoint.h **** 			 *  numerical address in the device.
 142:../LUFA/Drivers/USB/LowLevel/../HighLevel/../LowLevel/Endpoint.h **** 			 */
 143:../LUFA/Drivers/USB/LowLevel/../HighLevel/../LowLevel/Endpoint.h **** 			#define ENDPOINT_EPNUM_MASK                   0x07
 144:../LUFA/Drivers/USB/LowLevel/../HighLevel/../LowLevel/Endpoint.h **** 
 145:../LUFA/Drivers/USB/LowLevel/../HighLevel/../LowLevel/Endpoint.h **** 			/** Endpoint direction mask, for masking against endpoint addresses to retrieve the endpoint's
 146:../LUFA/Drivers/USB/LowLevel/../HighLevel/../LowLevel/Endpoint.h **** 			 *  direction for comparing with the ENDPOINT_DESCRIPTOR_DIR_* masks.
 147:../LUFA/Drivers/USB/LowLevel/../HighLevel/../LowLevel/Endpoint.h **** 			 */
 148:../LUFA/Drivers/USB/LowLevel/../HighLevel/../LowLevel/Endpoint.h **** 			#define ENDPOINT_EPDIR_MASK                   0x80
 149:../LUFA/Drivers/USB/LowLevel/../HighLevel/../LowLevel/Endpoint.h **** 
 150:../LUFA/Drivers/USB/LowLevel/../HighLevel/../LowLevel/Endpoint.h **** 			/** Endpoint bank size mask, for masking against endpoint addresses to retrieve the endpoint's
 151:../LUFA/Drivers/USB/LowLevel/../HighLevel/../LowLevel/Endpoint.h **** 			 *  bank size in the device.
 152:../LUFA/Drivers/USB/LowLevel/../HighLevel/../LowLevel/Endpoint.h **** 			 */
 153:../LUFA/Drivers/USB/LowLevel/../HighLevel/../LowLevel/Endpoint.h **** 			#define ENDPOINT_EPSIZE_MASK                  0x7F
 154:../LUFA/Drivers/USB/LowLevel/../HighLevel/../LowLevel/Endpoint.h **** 			
 155:../LUFA/Drivers/USB/LowLevel/../HighLevel/../LowLevel/Endpoint.h **** 			/** Maximum size in bytes of a given endpoint.
 156:../LUFA/Drivers/USB/LowLevel/../HighLevel/../LowLevel/Endpoint.h **** 			 *
 157:../LUFA/Drivers/USB/LowLevel/../HighLevel/../LowLevel/Endpoint.h **** 			 *  \param[in] n  Endpoint number, a value between 0 and (ENDPOINT_TOTAL_ENDPOINTS - 1)
 158:../LUFA/Drivers/USB/LowLevel/../HighLevel/../LowLevel/Endpoint.h **** 			 */				
 159:../LUFA/Drivers/USB/LowLevel/../HighLevel/../LowLevel/Endpoint.h **** 			#define ENDPOINT_MAX_SIZE(n)                  _ENDPOINT_GET_MAXSIZE(n)
 160:../LUFA/Drivers/USB/LowLevel/../HighLevel/../LowLevel/Endpoint.h **** 
 161:../LUFA/Drivers/USB/LowLevel/../HighLevel/../LowLevel/Endpoint.h **** 			/** Indicates if the given endpoint supports double banking.
 162:../LUFA/Drivers/USB/LowLevel/../HighLevel/../LowLevel/Endpoint.h **** 			 *
 163:../LUFA/Drivers/USB/LowLevel/../HighLevel/../LowLevel/Endpoint.h **** 			 *  \param[in] n  Endpoint number, a value between 0 and (ENDPOINT_TOTAL_ENDPOINTS - 1)
 164:../LUFA/Drivers/USB/LowLevel/../HighLevel/../LowLevel/Endpoint.h **** 			 */				
 165:../LUFA/Drivers/USB/LowLevel/../HighLevel/../LowLevel/Endpoint.h **** 			#define ENDPOINT_DOUBLEBANK_SUPPORTED(n)      _ENDPOINT_GET_DOUBLEBANK(n)
 166:../LUFA/Drivers/USB/LowLevel/../HighLevel/../LowLevel/Endpoint.h **** 
 167:../LUFA/Drivers/USB/LowLevel/../HighLevel/../LowLevel/Endpoint.h **** 			#if !defined(CONTROL_ONLY_DEVICE)
 168:../LUFA/Drivers/USB/LowLevel/../HighLevel/../LowLevel/Endpoint.h **** 				#if defined(USB_SERIES_4_AVR) || defined(USB_SERIES_6_AVR) || defined(USB_SERIES_7_AVR) || defi
 169:../LUFA/Drivers/USB/LowLevel/../HighLevel/../LowLevel/Endpoint.h **** 					/** Total number of endpoints (including the default control endpoint at address 0) which may
 170:../LUFA/Drivers/USB/LowLevel/../HighLevel/../LowLevel/Endpoint.h **** 					 *  be used in the device. Different USB AVR models support different amounts of endpoints,
 171:../LUFA/Drivers/USB/LowLevel/../HighLevel/../LowLevel/Endpoint.h **** 					 *  this value reflects the maximum number of endpoints for the currently selected AVR model.
 172:../LUFA/Drivers/USB/LowLevel/../HighLevel/../LowLevel/Endpoint.h **** 					 */
 173:../LUFA/Drivers/USB/LowLevel/../HighLevel/../LowLevel/Endpoint.h **** 					#define ENDPOINT_TOTAL_ENDPOINTS      7
 174:../LUFA/Drivers/USB/LowLevel/../HighLevel/../LowLevel/Endpoint.h **** 				#else
 175:../LUFA/Drivers/USB/LowLevel/../HighLevel/../LowLevel/Endpoint.h **** 					#define ENDPOINT_TOTAL_ENDPOINTS      5
 176:../LUFA/Drivers/USB/LowLevel/../HighLevel/../LowLevel/Endpoint.h **** 				#endif
 177:../LUFA/Drivers/USB/LowLevel/../HighLevel/../LowLevel/Endpoint.h **** 			#else
 178:../LUFA/Drivers/USB/LowLevel/../HighLevel/../LowLevel/Endpoint.h **** 				#define ENDPOINT_TOTAL_ENDPOINTS          1
 179:../LUFA/Drivers/USB/LowLevel/../HighLevel/../LowLevel/Endpoint.h **** 			#endif
 180:../LUFA/Drivers/USB/LowLevel/../HighLevel/../LowLevel/Endpoint.h **** 
 181:../LUFA/Drivers/USB/LowLevel/../HighLevel/../LowLevel/Endpoint.h **** 		/* Enums: */
 182:../LUFA/Drivers/USB/LowLevel/../HighLevel/../LowLevel/Endpoint.h **** 			/** Enum for the possible error return codes of the \ref Endpoint_WaitUntilReady() function.
 183:../LUFA/Drivers/USB/LowLevel/../HighLevel/../LowLevel/Endpoint.h **** 			 *
 184:../LUFA/Drivers/USB/LowLevel/../HighLevel/../LowLevel/Endpoint.h **** 			 *  \ingroup Group_EndpointRW
 185:../LUFA/Drivers/USB/LowLevel/../HighLevel/../LowLevel/Endpoint.h **** 			 */
 186:../LUFA/Drivers/USB/LowLevel/../HighLevel/../LowLevel/Endpoint.h **** 			enum Endpoint_WaitUntilReady_ErrorCodes_t
 187:../LUFA/Drivers/USB/LowLevel/../HighLevel/../LowLevel/Endpoint.h **** 			{
 188:../LUFA/Drivers/USB/LowLevel/../HighLevel/../LowLevel/Endpoint.h **** 				ENDPOINT_READYWAIT_NoError                 = 0, /**< Endpoint is ready for next packet, no erro
 189:../LUFA/Drivers/USB/LowLevel/../HighLevel/../LowLevel/Endpoint.h **** 				ENDPOINT_READYWAIT_EndpointStalled         = 1, /**< The endpoint was stalled during the stream
 190:../LUFA/Drivers/USB/LowLevel/../HighLevel/../LowLevel/Endpoint.h **** 				                                                 *   transfer by the host or device.
 191:../LUFA/Drivers/USB/LowLevel/../HighLevel/../LowLevel/Endpoint.h **** 				                                                 */
 192:../LUFA/Drivers/USB/LowLevel/../HighLevel/../LowLevel/Endpoint.h **** 				ENDPOINT_READYWAIT_DeviceDisconnected      = 2,	/**< Device was disconnected from the host whil
 193:../LUFA/Drivers/USB/LowLevel/../HighLevel/../LowLevel/Endpoint.h **** 				                                                 *   waiting for the endpoint to become ready.
 194:../LUFA/Drivers/USB/LowLevel/../HighLevel/../LowLevel/Endpoint.h **** 				                                                 */
 195:../LUFA/Drivers/USB/LowLevel/../HighLevel/../LowLevel/Endpoint.h **** 				ENDPOINT_READYWAIT_BusSuspended            = 3, /**< The USB bus has been suspended by the host
 196:../LUFA/Drivers/USB/LowLevel/../HighLevel/../LowLevel/Endpoint.h **** 				                                                 *   no USB endpoint traffic can occur until th
 197:../LUFA/Drivers/USB/LowLevel/../HighLevel/../LowLevel/Endpoint.h **** 				                                                 *   has resumed.
 198:../LUFA/Drivers/USB/LowLevel/../HighLevel/../LowLevel/Endpoint.h **** 				                                                 */
 199:../LUFA/Drivers/USB/LowLevel/../HighLevel/../LowLevel/Endpoint.h **** 				ENDPOINT_READYWAIT_Timeout                 = 4, /**< The host failed to accept or send the next
 200:../LUFA/Drivers/USB/LowLevel/../HighLevel/../LowLevel/Endpoint.h **** 				                                                 *   within the software timeout period set by 
 201:../LUFA/Drivers/USB/LowLevel/../HighLevel/../LowLevel/Endpoint.h **** 				                                                 *   \ref USB_STREAM_TIMEOUT_MS macro.
 202:../LUFA/Drivers/USB/LowLevel/../HighLevel/../LowLevel/Endpoint.h **** 				                                                 */
 203:../LUFA/Drivers/USB/LowLevel/../HighLevel/../LowLevel/Endpoint.h **** 			};
 204:../LUFA/Drivers/USB/LowLevel/../HighLevel/../LowLevel/Endpoint.h **** 		
 205:../LUFA/Drivers/USB/LowLevel/../HighLevel/../LowLevel/Endpoint.h **** 			/** Enum for the possible error return codes of the Endpoint_*_Stream_* functions.
 206:../LUFA/Drivers/USB/LowLevel/../HighLevel/../LowLevel/Endpoint.h **** 			 *
 207:../LUFA/Drivers/USB/LowLevel/../HighLevel/../LowLevel/Endpoint.h **** 			 *  \ingroup Group_EndpointStreamRW
 208:../LUFA/Drivers/USB/LowLevel/../HighLevel/../LowLevel/Endpoint.h **** 			 */
 209:../LUFA/Drivers/USB/LowLevel/../HighLevel/../LowLevel/Endpoint.h **** 			enum Endpoint_Stream_RW_ErrorCodes_t
 210:../LUFA/Drivers/USB/LowLevel/../HighLevel/../LowLevel/Endpoint.h **** 			{
 211:../LUFA/Drivers/USB/LowLevel/../HighLevel/../LowLevel/Endpoint.h **** 				ENDPOINT_RWSTREAM_NoError            = 0, /**< Command completed successfully, no error. */
 212:../LUFA/Drivers/USB/LowLevel/../HighLevel/../LowLevel/Endpoint.h **** 				ENDPOINT_RWSTREAM_EndpointStalled    = 1, /**< The endpoint was stalled during the stream
 213:../LUFA/Drivers/USB/LowLevel/../HighLevel/../LowLevel/Endpoint.h **** 				                                           *   transfer by the host or device.
 214:../LUFA/Drivers/USB/LowLevel/../HighLevel/../LowLevel/Endpoint.h **** 				                                           */
 215:../LUFA/Drivers/USB/LowLevel/../HighLevel/../LowLevel/Endpoint.h **** 				ENDPOINT_RWSTREAM_DeviceDisconnected = 2, /**< Device was disconnected from the host during
 216:../LUFA/Drivers/USB/LowLevel/../HighLevel/../LowLevel/Endpoint.h **** 				                                           *   the transfer.
 217:../LUFA/Drivers/USB/LowLevel/../HighLevel/../LowLevel/Endpoint.h **** 				                                           */
 218:../LUFA/Drivers/USB/LowLevel/../HighLevel/../LowLevel/Endpoint.h **** 				ENDPOINT_RWSTREAM_BusSuspended       = 3, /**< The USB bus has been suspended by the host and
 219:../LUFA/Drivers/USB/LowLevel/../HighLevel/../LowLevel/Endpoint.h **** 				                                           *   no USB endpoint traffic can occur until the bus
 220:../LUFA/Drivers/USB/LowLevel/../HighLevel/../LowLevel/Endpoint.h **** 				                                           *   has resumed.
 221:../LUFA/Drivers/USB/LowLevel/../HighLevel/../LowLevel/Endpoint.h **** 				                                           */
 222:../LUFA/Drivers/USB/LowLevel/../HighLevel/../LowLevel/Endpoint.h **** 				ENDPOINT_RWSTREAM_Timeout            = 4, /**< The host failed to accept or send the next packe
 223:../LUFA/Drivers/USB/LowLevel/../HighLevel/../LowLevel/Endpoint.h **** 				                                           *   within the software timeout period set by the
 224:../LUFA/Drivers/USB/LowLevel/../HighLevel/../LowLevel/Endpoint.h **** 				                                           *   \ref USB_STREAM_TIMEOUT_MS macro.
 225:../LUFA/Drivers/USB/LowLevel/../HighLevel/../LowLevel/Endpoint.h **** 				                                           */
 226:../LUFA/Drivers/USB/LowLevel/../HighLevel/../LowLevel/Endpoint.h **** 				ENDPOINT_RWSTREAM_CallbackAborted    = 5, /**< Indicates that the stream's callback function
 227:../LUFA/Drivers/USB/LowLevel/../HighLevel/../LowLevel/Endpoint.h **** 			                                               *   aborted the transfer early.
 228:../LUFA/Drivers/USB/LowLevel/../HighLevel/../LowLevel/Endpoint.h **** 				                                           */
 229:../LUFA/Drivers/USB/LowLevel/../HighLevel/../LowLevel/Endpoint.h **** 			};
 230:../LUFA/Drivers/USB/LowLevel/../HighLevel/../LowLevel/Endpoint.h **** 			
 231:../LUFA/Drivers/USB/LowLevel/../HighLevel/../LowLevel/Endpoint.h **** 			/** Enum for the possible error return codes of the Endpoint_*_Control_Stream_* functions..
 232:../LUFA/Drivers/USB/LowLevel/../HighLevel/../LowLevel/Endpoint.h **** 			 *
 233:../LUFA/Drivers/USB/LowLevel/../HighLevel/../LowLevel/Endpoint.h **** 			 *  \ingroup Group_EndpointStreamRW
 234:../LUFA/Drivers/USB/LowLevel/../HighLevel/../LowLevel/Endpoint.h **** 			 */
 235:../LUFA/Drivers/USB/LowLevel/../HighLevel/../LowLevel/Endpoint.h **** 			enum Endpoint_ControlStream_RW_ErrorCodes_t
 236:../LUFA/Drivers/USB/LowLevel/../HighLevel/../LowLevel/Endpoint.h **** 			{
 237:../LUFA/Drivers/USB/LowLevel/../HighLevel/../LowLevel/Endpoint.h **** 				ENDPOINT_RWCSTREAM_NoError            = 0, /**< Command completed successfully, no error. */
 238:../LUFA/Drivers/USB/LowLevel/../HighLevel/../LowLevel/Endpoint.h **** 				ENDPOINT_RWCSTREAM_HostAborted        = 1, /**< The aborted the transfer prematurely. */
 239:../LUFA/Drivers/USB/LowLevel/../HighLevel/../LowLevel/Endpoint.h **** 				ENDPOINT_RWCSTREAM_DeviceDisconnected = 2, /**< Device was disconnected from the host during
 240:../LUFA/Drivers/USB/LowLevel/../HighLevel/../LowLevel/Endpoint.h **** 				                                            *   the transfer.
 241:../LUFA/Drivers/USB/LowLevel/../HighLevel/../LowLevel/Endpoint.h **** 				                                            */
 242:../LUFA/Drivers/USB/LowLevel/../HighLevel/../LowLevel/Endpoint.h **** 				ENDPOINT_RWCSTREAM_BusSuspended       = 3, /**< The USB bus has been suspended by the host and
 243:../LUFA/Drivers/USB/LowLevel/../HighLevel/../LowLevel/Endpoint.h **** 				                                            *   no USB endpoint traffic can occur until the bus
 244:../LUFA/Drivers/USB/LowLevel/../HighLevel/../LowLevel/Endpoint.h **** 				                                            *   has resumed.
 245:../LUFA/Drivers/USB/LowLevel/../HighLevel/../LowLevel/Endpoint.h **** 				                                            */
 246:../LUFA/Drivers/USB/LowLevel/../HighLevel/../LowLevel/Endpoint.h **** 			};
 247:../LUFA/Drivers/USB/LowLevel/../HighLevel/../LowLevel/Endpoint.h **** 
 248:../LUFA/Drivers/USB/LowLevel/../HighLevel/../LowLevel/Endpoint.h **** 		/* Inline Functions: */
 249:../LUFA/Drivers/USB/LowLevel/../HighLevel/../LowLevel/Endpoint.h **** 			/** Indicates the number of bytes currently stored in the current endpoint's selected bank.
 250:../LUFA/Drivers/USB/LowLevel/../HighLevel/../LowLevel/Endpoint.h **** 			 *
 251:../LUFA/Drivers/USB/LowLevel/../HighLevel/../LowLevel/Endpoint.h **** 			 *  \note The return width of this function may differ, depending on the maximum endpoint bank s
 252:../LUFA/Drivers/USB/LowLevel/../HighLevel/../LowLevel/Endpoint.h **** 			 *        of the selected AVR model.
 253:../LUFA/Drivers/USB/LowLevel/../HighLevel/../LowLevel/Endpoint.h **** 			 *
 254:../LUFA/Drivers/USB/LowLevel/../HighLevel/../LowLevel/Endpoint.h **** 			 *  \ingroup Group_EndpointRW
 255:../LUFA/Drivers/USB/LowLevel/../HighLevel/../LowLevel/Endpoint.h **** 			 *
 256:../LUFA/Drivers/USB/LowLevel/../HighLevel/../LowLevel/Endpoint.h **** 			 *  \return Total number of bytes in the currently selected Endpoint's FIFO buffer.
 257:../LUFA/Drivers/USB/LowLevel/../HighLevel/../LowLevel/Endpoint.h **** 			 */
 258:../LUFA/Drivers/USB/LowLevel/../HighLevel/../LowLevel/Endpoint.h **** 			static inline uint16_t Endpoint_BytesInEndpoint(void) ATTR_WARN_UNUSED_RESULT ATTR_ALWAYS_INLINE
 259:../LUFA/Drivers/USB/LowLevel/../HighLevel/../LowLevel/Endpoint.h **** 			static inline uint16_t Endpoint_BytesInEndpoint(void)
 260:../LUFA/Drivers/USB/LowLevel/../HighLevel/../LowLevel/Endpoint.h **** 			{
 261:../LUFA/Drivers/USB/LowLevel/../HighLevel/../LowLevel/Endpoint.h **** 				#if defined(USB_SERIES_6_AVR) || defined(USB_SERIES_7_AVR)
 262:../LUFA/Drivers/USB/LowLevel/../HighLevel/../LowLevel/Endpoint.h **** 					return UEBCX;
 263:../LUFA/Drivers/USB/LowLevel/../HighLevel/../LowLevel/Endpoint.h **** 				#elif defined(USB_SERIES_4_AVR)
 264:../LUFA/Drivers/USB/LowLevel/../HighLevel/../LowLevel/Endpoint.h **** 					return (((uint16_t)UEBCHX << 8) | UEBCLX);
 265:../LUFA/Drivers/USB/LowLevel/../HighLevel/../LowLevel/Endpoint.h **** 				#elif defined(USB_SERIES_2_AVR)
 266:../LUFA/Drivers/USB/LowLevel/../HighLevel/../LowLevel/Endpoint.h **** 					return UEBCLX;
 267:../LUFA/Drivers/USB/LowLevel/../HighLevel/../LowLevel/Endpoint.h **** 				#endif
 268:../LUFA/Drivers/USB/LowLevel/../HighLevel/../LowLevel/Endpoint.h **** 			}
 269:../LUFA/Drivers/USB/LowLevel/../HighLevel/../LowLevel/Endpoint.h **** 		
 270:../LUFA/Drivers/USB/LowLevel/../HighLevel/../LowLevel/Endpoint.h **** 			/** Get the endpoint address of the currently selected endpoint. This is typically used to save
 271:../LUFA/Drivers/USB/LowLevel/../HighLevel/../LowLevel/Endpoint.h **** 			 *  the currently selected endpoint number so that it can be restored after another endpoint has
 272:../LUFA/Drivers/USB/LowLevel/../HighLevel/../LowLevel/Endpoint.h **** 			 *  been manipulated.
 273:../LUFA/Drivers/USB/LowLevel/../HighLevel/../LowLevel/Endpoint.h **** 			 *
 274:../LUFA/Drivers/USB/LowLevel/../HighLevel/../LowLevel/Endpoint.h **** 			 *  \return Index of the currently selected endpoint.
 275:../LUFA/Drivers/USB/LowLevel/../HighLevel/../LowLevel/Endpoint.h **** 			 */
 276:../LUFA/Drivers/USB/LowLevel/../HighLevel/../LowLevel/Endpoint.h **** 			static inline uint8_t Endpoint_GetCurrentEndpoint(void) ATTR_WARN_UNUSED_RESULT ATTR_ALWAYS_INLI
 277:../LUFA/Drivers/USB/LowLevel/../HighLevel/../LowLevel/Endpoint.h **** 			static inline uint8_t Endpoint_GetCurrentEndpoint(void)
 278:../LUFA/Drivers/USB/LowLevel/../HighLevel/../LowLevel/Endpoint.h **** 			{
 279:../LUFA/Drivers/USB/LowLevel/../HighLevel/../LowLevel/Endpoint.h **** 				#if !defined(CONTROL_ONLY_DEVICE)
 280:../LUFA/Drivers/USB/LowLevel/../HighLevel/../LowLevel/Endpoint.h **** 					return (UENUM & ENDPOINT_EPNUM_MASK);
 281:../LUFA/Drivers/USB/LowLevel/../HighLevel/../LowLevel/Endpoint.h **** 				#else
 282:../LUFA/Drivers/USB/LowLevel/../HighLevel/../LowLevel/Endpoint.h **** 					return ENDPOINT_CONTROLEP;
 283:../LUFA/Drivers/USB/LowLevel/../HighLevel/../LowLevel/Endpoint.h **** 				#endif
 284:../LUFA/Drivers/USB/LowLevel/../HighLevel/../LowLevel/Endpoint.h **** 			}
 285:../LUFA/Drivers/USB/LowLevel/../HighLevel/../LowLevel/Endpoint.h **** 			
 286:../LUFA/Drivers/USB/LowLevel/../HighLevel/../LowLevel/Endpoint.h **** 			/** Selects the given endpoint number. If the address from the device descriptors is used, the
 287:../LUFA/Drivers/USB/LowLevel/../HighLevel/../LowLevel/Endpoint.h **** 			 *  value should be masked with the \ref ENDPOINT_EPNUM_MASK constant to extract only the endpoi
 288:../LUFA/Drivers/USB/LowLevel/../HighLevel/../LowLevel/Endpoint.h **** 			 *  number (and discarding the endpoint direction bit).
 289:../LUFA/Drivers/USB/LowLevel/../HighLevel/../LowLevel/Endpoint.h **** 			 *
 290:../LUFA/Drivers/USB/LowLevel/../HighLevel/../LowLevel/Endpoint.h **** 			 *  Any endpoint operations which do not require the endpoint number to be indicated will operat
 291:../LUFA/Drivers/USB/LowLevel/../HighLevel/../LowLevel/Endpoint.h **** 			 *  the currently selected endpoint.
 292:../LUFA/Drivers/USB/LowLevel/../HighLevel/../LowLevel/Endpoint.h **** 			 *
 293:../LUFA/Drivers/USB/LowLevel/../HighLevel/../LowLevel/Endpoint.h **** 			 *  \param[in] EndpointNumber Endpoint number to select.
 294:../LUFA/Drivers/USB/LowLevel/../HighLevel/../LowLevel/Endpoint.h **** 			 */
 295:../LUFA/Drivers/USB/LowLevel/../HighLevel/../LowLevel/Endpoint.h **** 			static inline void Endpoint_SelectEndpoint(const uint8_t EndpointNumber) ATTR_ALWAYS_INLINE;
 296:../LUFA/Drivers/USB/LowLevel/../HighLevel/../LowLevel/Endpoint.h **** 			static inline void Endpoint_SelectEndpoint(const uint8_t EndpointNumber)
 297:../LUFA/Drivers/USB/LowLevel/../HighLevel/../LowLevel/Endpoint.h **** 			{
 298:../LUFA/Drivers/USB/LowLevel/../HighLevel/../LowLevel/Endpoint.h **** 				#if !defined(CONTROL_ONLY_DEVICE)
 299:../LUFA/Drivers/USB/LowLevel/../HighLevel/../LowLevel/Endpoint.h **** 					UENUM = EndpointNumber;
 300:../LUFA/Drivers/USB/LowLevel/../HighLevel/../LowLevel/Endpoint.h **** 				#endif			
 301:../LUFA/Drivers/USB/LowLevel/../HighLevel/../LowLevel/Endpoint.h **** 			}
 302:../LUFA/Drivers/USB/LowLevel/../HighLevel/../LowLevel/Endpoint.h **** 			
 303:../LUFA/Drivers/USB/LowLevel/../HighLevel/../LowLevel/Endpoint.h **** 			/** Resets the endpoint bank FIFO. This clears all the endpoint banks and resets the USB control
 304:../LUFA/Drivers/USB/LowLevel/../HighLevel/../LowLevel/Endpoint.h **** 			 *  In and Out pointers to the bank's contents.
 305:../LUFA/Drivers/USB/LowLevel/../HighLevel/../LowLevel/Endpoint.h **** 			 *
 306:../LUFA/Drivers/USB/LowLevel/../HighLevel/../LowLevel/Endpoint.h **** 			 *  \param[in] EndpointNumber Endpoint number whose FIFO buffers are to be reset.
 307:../LUFA/Drivers/USB/LowLevel/../HighLevel/../LowLevel/Endpoint.h **** 			 */
 308:../LUFA/Drivers/USB/LowLevel/../HighLevel/../LowLevel/Endpoint.h **** 			static inline void Endpoint_ResetFIFO(const uint8_t EndpointNumber) ATTR_ALWAYS_INLINE;
 309:../LUFA/Drivers/USB/LowLevel/../HighLevel/../LowLevel/Endpoint.h **** 			static inline void Endpoint_ResetFIFO(const uint8_t EndpointNumber)
 310:../LUFA/Drivers/USB/LowLevel/../HighLevel/../LowLevel/Endpoint.h **** 			{
 311:../LUFA/Drivers/USB/LowLevel/../HighLevel/../LowLevel/Endpoint.h **** 				UERST = (1 << EndpointNumber);
 312:../LUFA/Drivers/USB/LowLevel/../HighLevel/../LowLevel/Endpoint.h **** 				UERST = 0;
 313:../LUFA/Drivers/USB/LowLevel/../HighLevel/../LowLevel/Endpoint.h **** 			}
 314:../LUFA/Drivers/USB/LowLevel/../HighLevel/../LowLevel/Endpoint.h **** 			
 315:../LUFA/Drivers/USB/LowLevel/../HighLevel/../LowLevel/Endpoint.h **** 			/** Enables the currently selected endpoint so that data can be sent and received through it to
 316:../LUFA/Drivers/USB/LowLevel/../HighLevel/../LowLevel/Endpoint.h **** 			 *  and from a host.
 317:../LUFA/Drivers/USB/LowLevel/../HighLevel/../LowLevel/Endpoint.h **** 			 *
 318:../LUFA/Drivers/USB/LowLevel/../HighLevel/../LowLevel/Endpoint.h **** 			 *  \note Endpoints must first be configured properly via \ref Endpoint_ConfigureEndpoint().
 319:../LUFA/Drivers/USB/LowLevel/../HighLevel/../LowLevel/Endpoint.h **** 			 */
 320:../LUFA/Drivers/USB/LowLevel/../HighLevel/../LowLevel/Endpoint.h **** 			static inline void Endpoint_EnableEndpoint(void) ATTR_ALWAYS_INLINE;
 321:../LUFA/Drivers/USB/LowLevel/../HighLevel/../LowLevel/Endpoint.h **** 			static inline void Endpoint_EnableEndpoint(void)
 322:../LUFA/Drivers/USB/LowLevel/../HighLevel/../LowLevel/Endpoint.h **** 			{
 323:../LUFA/Drivers/USB/LowLevel/../HighLevel/../LowLevel/Endpoint.h **** 				UECONX |= (1 << EPEN);
 324:../LUFA/Drivers/USB/LowLevel/../HighLevel/../LowLevel/Endpoint.h **** 			}
 325:../LUFA/Drivers/USB/LowLevel/../HighLevel/../LowLevel/Endpoint.h **** 
 326:../LUFA/Drivers/USB/LowLevel/../HighLevel/../LowLevel/Endpoint.h **** 			/** Disables the currently selected endpoint so that data cannot be sent and received through it
 327:../LUFA/Drivers/USB/LowLevel/../HighLevel/../LowLevel/Endpoint.h **** 			 *  to and from a host.
 328:../LUFA/Drivers/USB/LowLevel/../HighLevel/../LowLevel/Endpoint.h **** 			 */
 329:../LUFA/Drivers/USB/LowLevel/../HighLevel/../LowLevel/Endpoint.h **** 			static inline void Endpoint_DisableEndpoint(void) ATTR_ALWAYS_INLINE;
 330:../LUFA/Drivers/USB/LowLevel/../HighLevel/../LowLevel/Endpoint.h **** 			static inline void Endpoint_DisableEndpoint(void)
 331:../LUFA/Drivers/USB/LowLevel/../HighLevel/../LowLevel/Endpoint.h **** 			{
 332:../LUFA/Drivers/USB/LowLevel/../HighLevel/../LowLevel/Endpoint.h **** 				UECONX &= ~(1 << EPEN);
 333:../LUFA/Drivers/USB/LowLevel/../HighLevel/../LowLevel/Endpoint.h **** 			}
 334:../LUFA/Drivers/USB/LowLevel/../HighLevel/../LowLevel/Endpoint.h **** 			
 335:../LUFA/Drivers/USB/LowLevel/../HighLevel/../LowLevel/Endpoint.h **** 			/** Determines if the currently selected endpoint is enabled, but not necessarily configured.
 336:../LUFA/Drivers/USB/LowLevel/../HighLevel/../LowLevel/Endpoint.h **** 			 *
 337:../LUFA/Drivers/USB/LowLevel/../HighLevel/../LowLevel/Endpoint.h **** 			 * \return Boolean True if the currently selected endpoint is enabled, false otherwise.
 338:../LUFA/Drivers/USB/LowLevel/../HighLevel/../LowLevel/Endpoint.h **** 			 */
 339:../LUFA/Drivers/USB/LowLevel/../HighLevel/../LowLevel/Endpoint.h **** 			static inline bool Endpoint_IsEnabled(void) ATTR_WARN_UNUSED_RESULT ATTR_ALWAYS_INLINE;
 340:../LUFA/Drivers/USB/LowLevel/../HighLevel/../LowLevel/Endpoint.h **** 			static inline bool Endpoint_IsEnabled(void)
 341:../LUFA/Drivers/USB/LowLevel/../HighLevel/../LowLevel/Endpoint.h **** 			{
 342:../LUFA/Drivers/USB/LowLevel/../HighLevel/../LowLevel/Endpoint.h **** 				return ((UECONX & (1 << EPEN)) ? true : false);
 343:../LUFA/Drivers/USB/LowLevel/../HighLevel/../LowLevel/Endpoint.h **** 			}
 344:../LUFA/Drivers/USB/LowLevel/../HighLevel/../LowLevel/Endpoint.h **** 			
 345:../LUFA/Drivers/USB/LowLevel/../HighLevel/../LowLevel/Endpoint.h **** 			/** Determines if the currently selected endpoint may be read from (if data is waiting in the en
 346:../LUFA/Drivers/USB/LowLevel/../HighLevel/../LowLevel/Endpoint.h **** 			 *  bank and the endpoint is an OUT direction, or if the bank is not yet full if the endpoint is
 347:../LUFA/Drivers/USB/LowLevel/../HighLevel/../LowLevel/Endpoint.h **** 			 *  direction). This function will return false if an error has occurred in the endpoint, if the
 348:../LUFA/Drivers/USB/LowLevel/../HighLevel/../LowLevel/Endpoint.h **** 			 *  is an OUT direction and no packet (or an empty packet) has been received, or if the endpoint
 349:../LUFA/Drivers/USB/LowLevel/../HighLevel/../LowLevel/Endpoint.h **** 			 *  direction and the endpoint bank is full.
 350:../LUFA/Drivers/USB/LowLevel/../HighLevel/../LowLevel/Endpoint.h **** 			 *
 351:../LUFA/Drivers/USB/LowLevel/../HighLevel/../LowLevel/Endpoint.h **** 			 *  \ingroup Group_EndpointPacketManagement
 352:../LUFA/Drivers/USB/LowLevel/../HighLevel/../LowLevel/Endpoint.h **** 			 *
 353:../LUFA/Drivers/USB/LowLevel/../HighLevel/../LowLevel/Endpoint.h **** 			 *  \return Boolean true if the currently selected endpoint may be read from or written to, depe
 354:../LUFA/Drivers/USB/LowLevel/../HighLevel/../LowLevel/Endpoint.h **** 			 */
 355:../LUFA/Drivers/USB/LowLevel/../HighLevel/../LowLevel/Endpoint.h **** 			static inline bool Endpoint_IsReadWriteAllowed(void) ATTR_WARN_UNUSED_RESULT ATTR_ALWAYS_INLINE;
 356:../LUFA/Drivers/USB/LowLevel/../HighLevel/../LowLevel/Endpoint.h **** 			static inline bool Endpoint_IsReadWriteAllowed(void)
 357:../LUFA/Drivers/USB/LowLevel/../HighLevel/../LowLevel/Endpoint.h **** 			{
 358:../LUFA/Drivers/USB/LowLevel/../HighLevel/../LowLevel/Endpoint.h **** 				return ((UEINTX & (1 << RWAL)) ? true : false);
 359:../LUFA/Drivers/USB/LowLevel/../HighLevel/../LowLevel/Endpoint.h **** 			}
 360:../LUFA/Drivers/USB/LowLevel/../HighLevel/../LowLevel/Endpoint.h **** 			
 361:../LUFA/Drivers/USB/LowLevel/../HighLevel/../LowLevel/Endpoint.h **** 			/** Determines if the currently selected endpoint is configured.
 362:../LUFA/Drivers/USB/LowLevel/../HighLevel/../LowLevel/Endpoint.h **** 			 *
 363:../LUFA/Drivers/USB/LowLevel/../HighLevel/../LowLevel/Endpoint.h **** 			 *  \return Boolean true if the currently selected endpoint has been configured, false otherwise
 364:../LUFA/Drivers/USB/LowLevel/../HighLevel/../LowLevel/Endpoint.h **** 			 */
 365:../LUFA/Drivers/USB/LowLevel/../HighLevel/../LowLevel/Endpoint.h **** 			static inline bool Endpoint_IsConfigured(void) ATTR_WARN_UNUSED_RESULT ATTR_ALWAYS_INLINE;
 366:../LUFA/Drivers/USB/LowLevel/../HighLevel/../LowLevel/Endpoint.h **** 			static inline bool Endpoint_IsConfigured(void)
 367:../LUFA/Drivers/USB/LowLevel/../HighLevel/../LowLevel/Endpoint.h **** 			{
 368:../LUFA/Drivers/USB/LowLevel/../HighLevel/../LowLevel/Endpoint.h **** 				return ((UESTA0X & (1 << CFGOK)) ? true : false);
 369:../LUFA/Drivers/USB/LowLevel/../HighLevel/../LowLevel/Endpoint.h **** 			}
 370:../LUFA/Drivers/USB/LowLevel/../HighLevel/../LowLevel/Endpoint.h **** 			
 371:../LUFA/Drivers/USB/LowLevel/../HighLevel/../LowLevel/Endpoint.h **** 			/** Returns a mask indicating which INTERRUPT type endpoints have interrupted - i.e. their
 372:../LUFA/Drivers/USB/LowLevel/../HighLevel/../LowLevel/Endpoint.h **** 			 *  interrupt duration has elapsed. Which endpoints have interrupted can be determined by
 373:../LUFA/Drivers/USB/LowLevel/../HighLevel/../LowLevel/Endpoint.h **** 			 *  masking the return value against (1 << {Endpoint Number}).
 374:../LUFA/Drivers/USB/LowLevel/../HighLevel/../LowLevel/Endpoint.h **** 			 *
 375:../LUFA/Drivers/USB/LowLevel/../HighLevel/../LowLevel/Endpoint.h **** 			 *  \return Mask whose bits indicate which endpoints have interrupted.
 376:../LUFA/Drivers/USB/LowLevel/../HighLevel/../LowLevel/Endpoint.h **** 			 */
 377:../LUFA/Drivers/USB/LowLevel/../HighLevel/../LowLevel/Endpoint.h **** 			static inline uint8_t Endpoint_GetEndpointInterrupts(void) ATTR_WARN_UNUSED_RESULT ATTR_ALWAYS_I
 378:../LUFA/Drivers/USB/LowLevel/../HighLevel/../LowLevel/Endpoint.h **** 			static inline uint8_t Endpoint_GetEndpointInterrupts(void)
 379:../LUFA/Drivers/USB/LowLevel/../HighLevel/../LowLevel/Endpoint.h **** 			{
 380:../LUFA/Drivers/USB/LowLevel/../HighLevel/../LowLevel/Endpoint.h **** 				return UEINT;
 381:../LUFA/Drivers/USB/LowLevel/../HighLevel/../LowLevel/Endpoint.h **** 			}
 382:../LUFA/Drivers/USB/LowLevel/../HighLevel/../LowLevel/Endpoint.h **** 			
 383:../LUFA/Drivers/USB/LowLevel/../HighLevel/../LowLevel/Endpoint.h **** 			/** Determines if the specified endpoint number has interrupted (valid only for INTERRUPT type
 384:../LUFA/Drivers/USB/LowLevel/../HighLevel/../LowLevel/Endpoint.h **** 			 *  endpoints).
 385:../LUFA/Drivers/USB/LowLevel/../HighLevel/../LowLevel/Endpoint.h **** 			 *
 386:../LUFA/Drivers/USB/LowLevel/../HighLevel/../LowLevel/Endpoint.h **** 			 *  \param[in] EndpointNumber  Index of the endpoint whose interrupt flag should be tested.
 387:../LUFA/Drivers/USB/LowLevel/../HighLevel/../LowLevel/Endpoint.h **** 			 *
 388:../LUFA/Drivers/USB/LowLevel/../HighLevel/../LowLevel/Endpoint.h **** 			 *  \return Boolean true if the specified endpoint has interrupted, false otherwise.
 389:../LUFA/Drivers/USB/LowLevel/../HighLevel/../LowLevel/Endpoint.h **** 			 */
 390:../LUFA/Drivers/USB/LowLevel/../HighLevel/../LowLevel/Endpoint.h **** 			static inline bool Endpoint_HasEndpointInterrupted(const uint8_t EndpointNumber) ATTR_WARN_UNUSE
 391:../LUFA/Drivers/USB/LowLevel/../HighLevel/../LowLevel/Endpoint.h **** 			static inline bool Endpoint_HasEndpointInterrupted(const uint8_t EndpointNumber)
 392:../LUFA/Drivers/USB/LowLevel/../HighLevel/../LowLevel/Endpoint.h **** 			{
 393:../LUFA/Drivers/USB/LowLevel/../HighLevel/../LowLevel/Endpoint.h **** 				return ((UEINT & (1 << EndpointNumber)) ? true : false);
 394:../LUFA/Drivers/USB/LowLevel/../HighLevel/../LowLevel/Endpoint.h **** 			}
 395:../LUFA/Drivers/USB/LowLevel/../HighLevel/../LowLevel/Endpoint.h **** 			
 396:../LUFA/Drivers/USB/LowLevel/../HighLevel/../LowLevel/Endpoint.h **** 			/** Determines if the selected IN endpoint is ready for a new packet.
 397:../LUFA/Drivers/USB/LowLevel/../HighLevel/../LowLevel/Endpoint.h **** 			 *
 398:../LUFA/Drivers/USB/LowLevel/../HighLevel/../LowLevel/Endpoint.h **** 			 *  \ingroup Group_EndpointPacketManagement
 399:../LUFA/Drivers/USB/LowLevel/../HighLevel/../LowLevel/Endpoint.h **** 			 *
 400:../LUFA/Drivers/USB/LowLevel/../HighLevel/../LowLevel/Endpoint.h **** 			 *  \return Boolean true if the current endpoint is ready for an IN packet, false otherwise.
 401:../LUFA/Drivers/USB/LowLevel/../HighLevel/../LowLevel/Endpoint.h **** 			 */
 402:../LUFA/Drivers/USB/LowLevel/../HighLevel/../LowLevel/Endpoint.h **** 			static inline bool Endpoint_IsINReady(void) ATTR_WARN_UNUSED_RESULT ATTR_ALWAYS_INLINE;
 403:../LUFA/Drivers/USB/LowLevel/../HighLevel/../LowLevel/Endpoint.h **** 			static inline bool Endpoint_IsINReady(void)
 404:../LUFA/Drivers/USB/LowLevel/../HighLevel/../LowLevel/Endpoint.h **** 			{
 405:../LUFA/Drivers/USB/LowLevel/../HighLevel/../LowLevel/Endpoint.h **** 				return ((UEINTX & (1 << TXINI))  ? true : false);
 406:../LUFA/Drivers/USB/LowLevel/../HighLevel/../LowLevel/Endpoint.h **** 			}
 407:../LUFA/Drivers/USB/LowLevel/../HighLevel/../LowLevel/Endpoint.h **** 			
 408:../LUFA/Drivers/USB/LowLevel/../HighLevel/../LowLevel/Endpoint.h **** 			/** Determines if the selected OUT endpoint has received new packet.
 409:../LUFA/Drivers/USB/LowLevel/../HighLevel/../LowLevel/Endpoint.h **** 			 *
 410:../LUFA/Drivers/USB/LowLevel/../HighLevel/../LowLevel/Endpoint.h **** 			 *  \ingroup Group_EndpointPacketManagement
 411:../LUFA/Drivers/USB/LowLevel/../HighLevel/../LowLevel/Endpoint.h **** 			 *
 412:../LUFA/Drivers/USB/LowLevel/../HighLevel/../LowLevel/Endpoint.h **** 			 *  \return Boolean true if current endpoint is has received an OUT packet, false otherwise.
 413:../LUFA/Drivers/USB/LowLevel/../HighLevel/../LowLevel/Endpoint.h **** 			 */
 414:../LUFA/Drivers/USB/LowLevel/../HighLevel/../LowLevel/Endpoint.h **** 			static inline bool Endpoint_IsOUTReceived(void) ATTR_WARN_UNUSED_RESULT ATTR_ALWAYS_INLINE;
 415:../LUFA/Drivers/USB/LowLevel/../HighLevel/../LowLevel/Endpoint.h **** 			static inline bool Endpoint_IsOUTReceived(void)
 416:../LUFA/Drivers/USB/LowLevel/../HighLevel/../LowLevel/Endpoint.h **** 			{
 417:../LUFA/Drivers/USB/LowLevel/../HighLevel/../LowLevel/Endpoint.h **** 				return ((UEINTX & (1 << RXOUTI)) ? true : false);
 418:../LUFA/Drivers/USB/LowLevel/../HighLevel/../LowLevel/Endpoint.h **** 			}
 419:../LUFA/Drivers/USB/LowLevel/../HighLevel/../LowLevel/Endpoint.h **** 			
 420:../LUFA/Drivers/USB/LowLevel/../HighLevel/../LowLevel/Endpoint.h **** 			/** Determines if the current CONTROL type endpoint has received a SETUP packet.
 421:../LUFA/Drivers/USB/LowLevel/../HighLevel/../LowLevel/Endpoint.h **** 			 *
 422:../LUFA/Drivers/USB/LowLevel/../HighLevel/../LowLevel/Endpoint.h **** 			 *  \ingroup Group_EndpointPacketManagement
 423:../LUFA/Drivers/USB/LowLevel/../HighLevel/../LowLevel/Endpoint.h **** 			 *
 424:../LUFA/Drivers/USB/LowLevel/../HighLevel/../LowLevel/Endpoint.h **** 			 *  \return Boolean true if the selected endpoint has received a SETUP packet, false otherwise.
 425:../LUFA/Drivers/USB/LowLevel/../HighLevel/../LowLevel/Endpoint.h **** 			 */
 426:../LUFA/Drivers/USB/LowLevel/../HighLevel/../LowLevel/Endpoint.h **** 			static inline bool Endpoint_IsSETUPReceived(void) ATTR_WARN_UNUSED_RESULT ATTR_ALWAYS_INLINE;
 427:../LUFA/Drivers/USB/LowLevel/../HighLevel/../LowLevel/Endpoint.h **** 			static inline bool Endpoint_IsSETUPReceived(void)
 428:../LUFA/Drivers/USB/LowLevel/../HighLevel/../LowLevel/Endpoint.h **** 			{
 429:../LUFA/Drivers/USB/LowLevel/../HighLevel/../LowLevel/Endpoint.h **** 				return ((UEINTX & (1 << RXSTPI)) ? true : false);
 430:../LUFA/Drivers/USB/LowLevel/../HighLevel/../LowLevel/Endpoint.h **** 			}
 431:../LUFA/Drivers/USB/LowLevel/../HighLevel/../LowLevel/Endpoint.h **** 			
 432:../LUFA/Drivers/USB/LowLevel/../HighLevel/../LowLevel/Endpoint.h **** 			/** Clears a received SETUP packet on the currently selected CONTROL type endpoint, freeing up t
 433:../LUFA/Drivers/USB/LowLevel/../HighLevel/../LowLevel/Endpoint.h **** 			 *  endpoint for the next packet.
 434:../LUFA/Drivers/USB/LowLevel/../HighLevel/../LowLevel/Endpoint.h **** 			 *
 435:../LUFA/Drivers/USB/LowLevel/../HighLevel/../LowLevel/Endpoint.h **** 			 *  \ingroup Group_EndpointPacketManagement
 436:../LUFA/Drivers/USB/LowLevel/../HighLevel/../LowLevel/Endpoint.h **** 			 *
 437:../LUFA/Drivers/USB/LowLevel/../HighLevel/../LowLevel/Endpoint.h **** 			 *  \note This is not applicable for non CONTROL type endpoints. 
 438:../LUFA/Drivers/USB/LowLevel/../HighLevel/../LowLevel/Endpoint.h **** 			 */
 439:../LUFA/Drivers/USB/LowLevel/../HighLevel/../LowLevel/Endpoint.h **** 			static inline void Endpoint_ClearSETUP(void) ATTR_ALWAYS_INLINE;
 440:../LUFA/Drivers/USB/LowLevel/../HighLevel/../LowLevel/Endpoint.h **** 			static inline void Endpoint_ClearSETUP(void)
 441:../LUFA/Drivers/USB/LowLevel/../HighLevel/../LowLevel/Endpoint.h **** 			{
 442:../LUFA/Drivers/USB/LowLevel/../HighLevel/../LowLevel/Endpoint.h **** 				UEINTX &= ~(1 << RXSTPI);
 443:../LUFA/Drivers/USB/LowLevel/../HighLevel/../LowLevel/Endpoint.h **** 			}
 444:../LUFA/Drivers/USB/LowLevel/../HighLevel/../LowLevel/Endpoint.h **** 			
 445:../LUFA/Drivers/USB/LowLevel/../HighLevel/../LowLevel/Endpoint.h **** 			/** Sends an IN packet to the host on the currently selected endpoint, freeing up the endpoint f
 446:../LUFA/Drivers/USB/LowLevel/../HighLevel/../LowLevel/Endpoint.h **** 			 *  next packet and switching to the alternative endpoint bank if double banked.
 447:../LUFA/Drivers/USB/LowLevel/../HighLevel/../LowLevel/Endpoint.h **** 			 *
 448:../LUFA/Drivers/USB/LowLevel/../HighLevel/../LowLevel/Endpoint.h **** 			 *  \ingroup Group_EndpointPacketManagement
 449:../LUFA/Drivers/USB/LowLevel/../HighLevel/../LowLevel/Endpoint.h **** 			 */
 450:../LUFA/Drivers/USB/LowLevel/../HighLevel/../LowLevel/Endpoint.h **** 			static inline void Endpoint_ClearIN(void) ATTR_ALWAYS_INLINE;
 451:../LUFA/Drivers/USB/LowLevel/../HighLevel/../LowLevel/Endpoint.h **** 			static inline void Endpoint_ClearIN(void)
 452:../LUFA/Drivers/USB/LowLevel/../HighLevel/../LowLevel/Endpoint.h **** 			{
 453:../LUFA/Drivers/USB/LowLevel/../HighLevel/../LowLevel/Endpoint.h **** 				#if !defined(CONTROL_ONLY_DEVICE)
 454:../LUFA/Drivers/USB/LowLevel/../HighLevel/../LowLevel/Endpoint.h **** 					UEINTX &= ~((1 << TXINI) | (1 << FIFOCON));
 455:../LUFA/Drivers/USB/LowLevel/../HighLevel/../LowLevel/Endpoint.h **** 				#else
 456:../LUFA/Drivers/USB/LowLevel/../HighLevel/../LowLevel/Endpoint.h **** 					UEINTX &= ~(1 << TXINI);
 457:../LUFA/Drivers/USB/LowLevel/../HighLevel/../LowLevel/Endpoint.h **** 				#endif
 458:../LUFA/Drivers/USB/LowLevel/../HighLevel/../LowLevel/Endpoint.h **** 			}
 459:../LUFA/Drivers/USB/LowLevel/../HighLevel/../LowLevel/Endpoint.h **** 			
 460:../LUFA/Drivers/USB/LowLevel/../HighLevel/../LowLevel/Endpoint.h **** 			/** Acknowledges an OUT packet to the host on the currently selected endpoint, freeing up the en
 461:../LUFA/Drivers/USB/LowLevel/../HighLevel/../LowLevel/Endpoint.h **** 			 *  for the next packet and switching to the alternative endpoint bank if double banked.
 462:../LUFA/Drivers/USB/LowLevel/../HighLevel/../LowLevel/Endpoint.h **** 			 *
 463:../LUFA/Drivers/USB/LowLevel/../HighLevel/../LowLevel/Endpoint.h **** 			 *  \ingroup Group_EndpointPacketManagement
 464:../LUFA/Drivers/USB/LowLevel/../HighLevel/../LowLevel/Endpoint.h **** 			 */
 465:../LUFA/Drivers/USB/LowLevel/../HighLevel/../LowLevel/Endpoint.h **** 			static inline void Endpoint_ClearOUT(void) ATTR_ALWAYS_INLINE;
 466:../LUFA/Drivers/USB/LowLevel/../HighLevel/../LowLevel/Endpoint.h **** 			static inline void Endpoint_ClearOUT(void)
 467:../LUFA/Drivers/USB/LowLevel/../HighLevel/../LowLevel/Endpoint.h **** 			{
 468:../LUFA/Drivers/USB/LowLevel/../HighLevel/../LowLevel/Endpoint.h **** 				#if !defined(CONTROL_ONLY_DEVICE)
 469:../LUFA/Drivers/USB/LowLevel/../HighLevel/../LowLevel/Endpoint.h **** 					UEINTX &= ~((1 << RXOUTI) | (1 << FIFOCON));
 470:../LUFA/Drivers/USB/LowLevel/../HighLevel/../LowLevel/Endpoint.h **** 				#else
 471:../LUFA/Drivers/USB/LowLevel/../HighLevel/../LowLevel/Endpoint.h **** 					UEINTX &= ~(1 << RXOUTI);	
 472:../LUFA/Drivers/USB/LowLevel/../HighLevel/../LowLevel/Endpoint.h **** 				#endif
 473:../LUFA/Drivers/USB/LowLevel/../HighLevel/../LowLevel/Endpoint.h **** 			}
 474:../LUFA/Drivers/USB/LowLevel/../HighLevel/../LowLevel/Endpoint.h **** 			
 475:../LUFA/Drivers/USB/LowLevel/../HighLevel/../LowLevel/Endpoint.h **** 			/** Stalls the current endpoint, indicating to the host that a logical problem occurred with the
 476:../LUFA/Drivers/USB/LowLevel/../HighLevel/../LowLevel/Endpoint.h **** 			 *  indicated endpoint and that the current transfer sequence should be aborted. This provides a
 477:../LUFA/Drivers/USB/LowLevel/../HighLevel/../LowLevel/Endpoint.h **** 			 *  way for devices to indicate invalid commands to the host so that the current transfer can be
 478:../LUFA/Drivers/USB/LowLevel/../HighLevel/../LowLevel/Endpoint.h **** 			 *  aborted and the host can begin its own recovery sequence.
 479:../LUFA/Drivers/USB/LowLevel/../HighLevel/../LowLevel/Endpoint.h **** 			 *
 480:../LUFA/Drivers/USB/LowLevel/../HighLevel/../LowLevel/Endpoint.h **** 			 *  The currently selected endpoint remains stalled until either the \ref Endpoint_ClearStall() 
 481:../LUFA/Drivers/USB/LowLevel/../HighLevel/../LowLevel/Endpoint.h **** 			 *  is called, or the host issues a CLEAR FEATURE request to the device for the currently select
 482:../LUFA/Drivers/USB/LowLevel/../HighLevel/../LowLevel/Endpoint.h **** 			 *  endpoint.
 483:../LUFA/Drivers/USB/LowLevel/../HighLevel/../LowLevel/Endpoint.h **** 			 *
 484:../LUFA/Drivers/USB/LowLevel/../HighLevel/../LowLevel/Endpoint.h **** 			 *  \ingroup Group_EndpointPacketManagement
 485:../LUFA/Drivers/USB/LowLevel/../HighLevel/../LowLevel/Endpoint.h **** 			 */
 486:../LUFA/Drivers/USB/LowLevel/../HighLevel/../LowLevel/Endpoint.h **** 			static inline void Endpoint_StallTransaction(void) ATTR_ALWAYS_INLINE;
 487:../LUFA/Drivers/USB/LowLevel/../HighLevel/../LowLevel/Endpoint.h **** 			static inline void Endpoint_StallTransaction(void)
 488:../LUFA/Drivers/USB/LowLevel/../HighLevel/../LowLevel/Endpoint.h **** 			{
 489:../LUFA/Drivers/USB/LowLevel/../HighLevel/../LowLevel/Endpoint.h **** 				UECONX |= (1 << STALLRQ);
 490:../LUFA/Drivers/USB/LowLevel/../HighLevel/../LowLevel/Endpoint.h **** 			}
 491:../LUFA/Drivers/USB/LowLevel/../HighLevel/../LowLevel/Endpoint.h **** 			
 492:../LUFA/Drivers/USB/LowLevel/../HighLevel/../LowLevel/Endpoint.h **** 			/** Clears the STALL condition on the currently selected endpoint.
 493:../LUFA/Drivers/USB/LowLevel/../HighLevel/../LowLevel/Endpoint.h **** 			 *
 494:../LUFA/Drivers/USB/LowLevel/../HighLevel/../LowLevel/Endpoint.h **** 			 *  \ingroup Group_EndpointPacketManagement
 495:../LUFA/Drivers/USB/LowLevel/../HighLevel/../LowLevel/Endpoint.h **** 			 */
 496:../LUFA/Drivers/USB/LowLevel/../HighLevel/../LowLevel/Endpoint.h **** 			static inline void Endpoint_ClearStall(void) ATTR_ALWAYS_INLINE;
 497:../LUFA/Drivers/USB/LowLevel/../HighLevel/../LowLevel/Endpoint.h **** 			static inline void Endpoint_ClearStall(void)
 498:../LUFA/Drivers/USB/LowLevel/../HighLevel/../LowLevel/Endpoint.h **** 			{
 499:../LUFA/Drivers/USB/LowLevel/../HighLevel/../LowLevel/Endpoint.h **** 				UECONX |= (1 << STALLRQC);
 500:../LUFA/Drivers/USB/LowLevel/../HighLevel/../LowLevel/Endpoint.h **** 			}
 501:../LUFA/Drivers/USB/LowLevel/../HighLevel/../LowLevel/Endpoint.h **** 			
 502:../LUFA/Drivers/USB/LowLevel/../HighLevel/../LowLevel/Endpoint.h **** 			/** Determines if the currently selected endpoint is stalled, false otherwise.
 503:../LUFA/Drivers/USB/LowLevel/../HighLevel/../LowLevel/Endpoint.h **** 			 *
 504:../LUFA/Drivers/USB/LowLevel/../HighLevel/../LowLevel/Endpoint.h **** 			 *  \ingroup Group_EndpointPacketManagement
 505:../LUFA/Drivers/USB/LowLevel/../HighLevel/../LowLevel/Endpoint.h **** 			 *
 506:../LUFA/Drivers/USB/LowLevel/../HighLevel/../LowLevel/Endpoint.h **** 			 *  \return Boolean true if the currently selected endpoint is stalled, false otherwise.
 507:../LUFA/Drivers/USB/LowLevel/../HighLevel/../LowLevel/Endpoint.h **** 			 */
 508:../LUFA/Drivers/USB/LowLevel/../HighLevel/../LowLevel/Endpoint.h **** 			static inline bool Endpoint_IsStalled(void) ATTR_WARN_UNUSED_RESULT ATTR_ALWAYS_INLINE;
 509:../LUFA/Drivers/USB/LowLevel/../HighLevel/../LowLevel/Endpoint.h **** 			static inline bool Endpoint_IsStalled(void)
 510:../LUFA/Drivers/USB/LowLevel/../HighLevel/../LowLevel/Endpoint.h **** 			{
 511:../LUFA/Drivers/USB/LowLevel/../HighLevel/../LowLevel/Endpoint.h **** 				return ((UECONX & (1 << STALLRQ)) ? true : false);
 512:../LUFA/Drivers/USB/LowLevel/../HighLevel/../LowLevel/Endpoint.h **** 			}
 513:../LUFA/Drivers/USB/LowLevel/../HighLevel/../LowLevel/Endpoint.h **** 			
 514:../LUFA/Drivers/USB/LowLevel/../HighLevel/../LowLevel/Endpoint.h **** 			/** Resets the data toggle of the currently selected endpoint. */
 515:../LUFA/Drivers/USB/LowLevel/../HighLevel/../LowLevel/Endpoint.h **** 			static inline void Endpoint_ResetDataToggle(void) ATTR_ALWAYS_INLINE;
 516:../LUFA/Drivers/USB/LowLevel/../HighLevel/../LowLevel/Endpoint.h **** 			static inline void Endpoint_ResetDataToggle(void)
 517:../LUFA/Drivers/USB/LowLevel/../HighLevel/../LowLevel/Endpoint.h **** 			{
 518:../LUFA/Drivers/USB/LowLevel/../HighLevel/../LowLevel/Endpoint.h **** 				UECONX |= (1 << RSTDT);
 519:../LUFA/Drivers/USB/LowLevel/../HighLevel/../LowLevel/Endpoint.h **** 			}
 520:../LUFA/Drivers/USB/LowLevel/../HighLevel/../LowLevel/Endpoint.h **** 			
 521:../LUFA/Drivers/USB/LowLevel/../HighLevel/../LowLevel/Endpoint.h **** 			/** Determines the currently selected endpoint's direction.
 522:../LUFA/Drivers/USB/LowLevel/../HighLevel/../LowLevel/Endpoint.h **** 			 *
 523:../LUFA/Drivers/USB/LowLevel/../HighLevel/../LowLevel/Endpoint.h **** 			 *  \return The currently selected endpoint's direction, as a ENDPOINT_DIR_* mask.
 524:../LUFA/Drivers/USB/LowLevel/../HighLevel/../LowLevel/Endpoint.h **** 			 */
 525:../LUFA/Drivers/USB/LowLevel/../HighLevel/../LowLevel/Endpoint.h **** 			static inline uint8_t Endpoint_GetEndpointDirection(void) ATTR_WARN_UNUSED_RESULT ATTR_ALWAYS_IN
 526:../LUFA/Drivers/USB/LowLevel/../HighLevel/../LowLevel/Endpoint.h **** 			static inline uint8_t Endpoint_GetEndpointDirection(void)
 527:../LUFA/Drivers/USB/LowLevel/../HighLevel/../LowLevel/Endpoint.h **** 			{
 528:../LUFA/Drivers/USB/LowLevel/../HighLevel/../LowLevel/Endpoint.h **** 				return (UECFG0X & ENDPOINT_DIR_IN);
 529:../LUFA/Drivers/USB/LowLevel/../HighLevel/../LowLevel/Endpoint.h **** 			}
 530:../LUFA/Drivers/USB/LowLevel/../HighLevel/../LowLevel/Endpoint.h **** 
 531:../LUFA/Drivers/USB/LowLevel/../HighLevel/../LowLevel/Endpoint.h **** 			/** Sets the direction of the currently selected endpoint.
 532:../LUFA/Drivers/USB/LowLevel/../HighLevel/../LowLevel/Endpoint.h **** 			 *
 533:../LUFA/Drivers/USB/LowLevel/../HighLevel/../LowLevel/Endpoint.h **** 			 *  \param[in] DirectionMask  New endpoint direction, as a ENDPOINT_DIR_* mask.
 534:../LUFA/Drivers/USB/LowLevel/../HighLevel/../LowLevel/Endpoint.h **** 			 */
 535:../LUFA/Drivers/USB/LowLevel/../HighLevel/../LowLevel/Endpoint.h **** 			static inline void Endpoint_SetEndpointDirection(const uint8_t DirectionMask) ATTR_ALWAYS_INLINE
 536:../LUFA/Drivers/USB/LowLevel/../HighLevel/../LowLevel/Endpoint.h **** 			static inline void Endpoint_SetEndpointDirection(const uint8_t DirectionMask)
 537:../LUFA/Drivers/USB/LowLevel/../HighLevel/../LowLevel/Endpoint.h **** 			{
 538:../LUFA/Drivers/USB/LowLevel/../HighLevel/../LowLevel/Endpoint.h **** 				UECFG0X = ((UECFG0X & ~ENDPOINT_DIR_IN) | DirectionMask);
 539:../LUFA/Drivers/USB/LowLevel/../HighLevel/../LowLevel/Endpoint.h **** 			}
 540:../LUFA/Drivers/USB/LowLevel/../HighLevel/../LowLevel/Endpoint.h **** 
 541:../LUFA/Drivers/USB/LowLevel/../HighLevel/../LowLevel/Endpoint.h **** 			/** Reads one byte from the currently selected endpoint's bank, for OUT direction endpoints.
 542:../LUFA/Drivers/USB/LowLevel/../HighLevel/../LowLevel/Endpoint.h **** 			 *
 543:../LUFA/Drivers/USB/LowLevel/../HighLevel/../LowLevel/Endpoint.h **** 			 *  \ingroup Group_EndpointPrimitiveRW
 544:../LUFA/Drivers/USB/LowLevel/../HighLevel/../LowLevel/Endpoint.h **** 			 *
 545:../LUFA/Drivers/USB/LowLevel/../HighLevel/../LowLevel/Endpoint.h **** 			 *  \return Next byte in the currently selected endpoint's FIFO buffer.
 546:../LUFA/Drivers/USB/LowLevel/../HighLevel/../LowLevel/Endpoint.h **** 			 */
 547:../LUFA/Drivers/USB/LowLevel/../HighLevel/../LowLevel/Endpoint.h **** 			static inline uint8_t Endpoint_Read_Byte(void) ATTR_WARN_UNUSED_RESULT ATTR_ALWAYS_INLINE;
 548:../LUFA/Drivers/USB/LowLevel/../HighLevel/../LowLevel/Endpoint.h **** 			static inline uint8_t Endpoint_Read_Byte(void)
 549:../LUFA/Drivers/USB/LowLevel/../HighLevel/../LowLevel/Endpoint.h **** 			{
 550:../LUFA/Drivers/USB/LowLevel/../HighLevel/../LowLevel/Endpoint.h **** 				return UEDATX;
 551:../LUFA/Drivers/USB/LowLevel/../HighLevel/../LowLevel/Endpoint.h **** 			}
 552:../LUFA/Drivers/USB/LowLevel/../HighLevel/../LowLevel/Endpoint.h **** 
 553:../LUFA/Drivers/USB/LowLevel/../HighLevel/../LowLevel/Endpoint.h **** 			/** Writes one byte from the currently selected endpoint's bank, for IN direction endpoints.
 554:../LUFA/Drivers/USB/LowLevel/../HighLevel/../LowLevel/Endpoint.h **** 			 *
 555:../LUFA/Drivers/USB/LowLevel/../HighLevel/../LowLevel/Endpoint.h **** 			 *  \ingroup Group_EndpointPrimitiveRW
 556:../LUFA/Drivers/USB/LowLevel/../HighLevel/../LowLevel/Endpoint.h **** 			 *
 557:../LUFA/Drivers/USB/LowLevel/../HighLevel/../LowLevel/Endpoint.h **** 			 *  \param[in] Byte  Next byte to write into the the currently selected endpoint's FIFO buffer.
 558:../LUFA/Drivers/USB/LowLevel/../HighLevel/../LowLevel/Endpoint.h **** 			 */
 559:../LUFA/Drivers/USB/LowLevel/../HighLevel/../LowLevel/Endpoint.h **** 			static inline void Endpoint_Write_Byte(const uint8_t Byte) ATTR_ALWAYS_INLINE;
 560:../LUFA/Drivers/USB/LowLevel/../HighLevel/../LowLevel/Endpoint.h **** 			static inline void Endpoint_Write_Byte(const uint8_t Byte)
 561:../LUFA/Drivers/USB/LowLevel/../HighLevel/../LowLevel/Endpoint.h **** 			{
 562:../LUFA/Drivers/USB/LowLevel/../HighLevel/../LowLevel/Endpoint.h **** 				UEDATX = Byte;
 563:../LUFA/Drivers/USB/LowLevel/../HighLevel/../LowLevel/Endpoint.h **** 			}
 564:../LUFA/Drivers/USB/LowLevel/../HighLevel/../LowLevel/Endpoint.h **** 
 565:../LUFA/Drivers/USB/LowLevel/../HighLevel/../LowLevel/Endpoint.h **** 			/** Discards one byte from the currently selected endpoint's bank, for OUT direction endpoints.
 566:../LUFA/Drivers/USB/LowLevel/../HighLevel/../LowLevel/Endpoint.h **** 			 *
 567:../LUFA/Drivers/USB/LowLevel/../HighLevel/../LowLevel/Endpoint.h **** 			 *  \ingroup Group_EndpointPrimitiveRW
 568:../LUFA/Drivers/USB/LowLevel/../HighLevel/../LowLevel/Endpoint.h **** 			 */
 569:../LUFA/Drivers/USB/LowLevel/../HighLevel/../LowLevel/Endpoint.h **** 			static inline void Endpoint_Discard_Byte(void) ATTR_ALWAYS_INLINE;
 570:../LUFA/Drivers/USB/LowLevel/../HighLevel/../LowLevel/Endpoint.h **** 			static inline void Endpoint_Discard_Byte(void)
 571:../LUFA/Drivers/USB/LowLevel/../HighLevel/../LowLevel/Endpoint.h **** 			{
 572:../LUFA/Drivers/USB/LowLevel/../HighLevel/../LowLevel/Endpoint.h **** 				uint8_t Dummy;
 573:../LUFA/Drivers/USB/LowLevel/../HighLevel/../LowLevel/Endpoint.h **** 				
 574:../LUFA/Drivers/USB/LowLevel/../HighLevel/../LowLevel/Endpoint.h **** 				Dummy = UEDATX;
 575:../LUFA/Drivers/USB/LowLevel/../HighLevel/../LowLevel/Endpoint.h **** 			}
 576:../LUFA/Drivers/USB/LowLevel/../HighLevel/../LowLevel/Endpoint.h **** 			
 577:../LUFA/Drivers/USB/LowLevel/../HighLevel/../LowLevel/Endpoint.h **** 			/** Reads two bytes from the currently selected endpoint's bank in little endian format, for OUT
 578:../LUFA/Drivers/USB/LowLevel/../HighLevel/../LowLevel/Endpoint.h **** 			 *  direction endpoints.
 579:../LUFA/Drivers/USB/LowLevel/../HighLevel/../LowLevel/Endpoint.h **** 			 *
 580:../LUFA/Drivers/USB/LowLevel/../HighLevel/../LowLevel/Endpoint.h **** 			 *  \ingroup Group_EndpointPrimitiveRW
 581:../LUFA/Drivers/USB/LowLevel/../HighLevel/../LowLevel/Endpoint.h **** 			 *
 582:../LUFA/Drivers/USB/LowLevel/../HighLevel/../LowLevel/Endpoint.h **** 			 *  \return Next word in the currently selected endpoint's FIFO buffer.
 583:../LUFA/Drivers/USB/LowLevel/../HighLevel/../LowLevel/Endpoint.h **** 			 */
 584:../LUFA/Drivers/USB/LowLevel/../HighLevel/../LowLevel/Endpoint.h **** 			static inline uint16_t Endpoint_Read_Word_LE(void) ATTR_WARN_UNUSED_RESULT ATTR_ALWAYS_INLINE;
 585:../LUFA/Drivers/USB/LowLevel/../HighLevel/../LowLevel/Endpoint.h **** 			static inline uint16_t Endpoint_Read_Word_LE(void)
 586:../LUFA/Drivers/USB/LowLevel/../HighLevel/../LowLevel/Endpoint.h **** 			{
 587:../LUFA/Drivers/USB/LowLevel/../HighLevel/../LowLevel/Endpoint.h **** 				union
 588:../LUFA/Drivers/USB/LowLevel/../HighLevel/../LowLevel/Endpoint.h **** 				{
 589:../LUFA/Drivers/USB/LowLevel/../HighLevel/../LowLevel/Endpoint.h **** 					uint16_t Word;
 590:../LUFA/Drivers/USB/LowLevel/../HighLevel/../LowLevel/Endpoint.h **** 					uint8_t  Bytes[2];
 591:../LUFA/Drivers/USB/LowLevel/../HighLevel/../LowLevel/Endpoint.h **** 				} Data;
 592:../LUFA/Drivers/USB/LowLevel/../HighLevel/../LowLevel/Endpoint.h **** 				
 593:../LUFA/Drivers/USB/LowLevel/../HighLevel/../LowLevel/Endpoint.h **** 				Data.Bytes[0] = UEDATX;
 594:../LUFA/Drivers/USB/LowLevel/../HighLevel/../LowLevel/Endpoint.h **** 				Data.Bytes[1] = UEDATX;
 595:../LUFA/Drivers/USB/LowLevel/../HighLevel/../LowLevel/Endpoint.h **** 			
 596:../LUFA/Drivers/USB/LowLevel/../HighLevel/../LowLevel/Endpoint.h **** 				return Data.Word;
 597:../LUFA/Drivers/USB/LowLevel/../HighLevel/../LowLevel/Endpoint.h **** 			}
 598:../LUFA/Drivers/USB/LowLevel/../HighLevel/../LowLevel/Endpoint.h **** 
 599:../LUFA/Drivers/USB/LowLevel/../HighLevel/../LowLevel/Endpoint.h **** 			/** Reads two bytes from the currently selected endpoint's bank in big endian format, for OUT
 600:../LUFA/Drivers/USB/LowLevel/../HighLevel/../LowLevel/Endpoint.h **** 			 *  direction endpoints.
 601:../LUFA/Drivers/USB/LowLevel/../HighLevel/../LowLevel/Endpoint.h **** 			 *
 602:../LUFA/Drivers/USB/LowLevel/../HighLevel/../LowLevel/Endpoint.h **** 			 *  \ingroup Group_EndpointPrimitiveRW
 603:../LUFA/Drivers/USB/LowLevel/../HighLevel/../LowLevel/Endpoint.h **** 			 *
 604:../LUFA/Drivers/USB/LowLevel/../HighLevel/../LowLevel/Endpoint.h **** 			 *  \return Next word in the currently selected endpoint's FIFO buffer.
 605:../LUFA/Drivers/USB/LowLevel/../HighLevel/../LowLevel/Endpoint.h **** 			 */
 606:../LUFA/Drivers/USB/LowLevel/../HighLevel/../LowLevel/Endpoint.h **** 			static inline uint16_t Endpoint_Read_Word_BE(void) ATTR_WARN_UNUSED_RESULT ATTR_ALWAYS_INLINE;
 607:../LUFA/Drivers/USB/LowLevel/../HighLevel/../LowLevel/Endpoint.h **** 			static inline uint16_t Endpoint_Read_Word_BE(void)
 608:../LUFA/Drivers/USB/LowLevel/../HighLevel/../LowLevel/Endpoint.h **** 			{
 609:../LUFA/Drivers/USB/LowLevel/../HighLevel/../LowLevel/Endpoint.h **** 				union
 610:../LUFA/Drivers/USB/LowLevel/../HighLevel/../LowLevel/Endpoint.h **** 				{
 611:../LUFA/Drivers/USB/LowLevel/../HighLevel/../LowLevel/Endpoint.h **** 					uint16_t Word;
 612:../LUFA/Drivers/USB/LowLevel/../HighLevel/../LowLevel/Endpoint.h **** 					uint8_t  Bytes[2];
 613:../LUFA/Drivers/USB/LowLevel/../HighLevel/../LowLevel/Endpoint.h **** 				} Data;
 614:../LUFA/Drivers/USB/LowLevel/../HighLevel/../LowLevel/Endpoint.h **** 				
 615:../LUFA/Drivers/USB/LowLevel/../HighLevel/../LowLevel/Endpoint.h **** 				Data.Bytes[1] = UEDATX;
 616:../LUFA/Drivers/USB/LowLevel/../HighLevel/../LowLevel/Endpoint.h **** 				Data.Bytes[0] = UEDATX;
 617:../LUFA/Drivers/USB/LowLevel/../HighLevel/../LowLevel/Endpoint.h **** 			
 618:../LUFA/Drivers/USB/LowLevel/../HighLevel/../LowLevel/Endpoint.h **** 				return Data.Word;
 619:../LUFA/Drivers/USB/LowLevel/../HighLevel/../LowLevel/Endpoint.h **** 			}
 620:../LUFA/Drivers/USB/LowLevel/../HighLevel/../LowLevel/Endpoint.h **** 
 621:../LUFA/Drivers/USB/LowLevel/../HighLevel/../LowLevel/Endpoint.h **** 			/** Writes two bytes to the currently selected endpoint's bank in little endian format, for IN
 622:../LUFA/Drivers/USB/LowLevel/../HighLevel/../LowLevel/Endpoint.h **** 			 *  direction endpoints.
 623:../LUFA/Drivers/USB/LowLevel/../HighLevel/../LowLevel/Endpoint.h **** 			 *
 624:../LUFA/Drivers/USB/LowLevel/../HighLevel/../LowLevel/Endpoint.h **** 			 *  \ingroup Group_EndpointPrimitiveRW
 625:../LUFA/Drivers/USB/LowLevel/../HighLevel/../LowLevel/Endpoint.h **** 			 *
 626:../LUFA/Drivers/USB/LowLevel/../HighLevel/../LowLevel/Endpoint.h **** 			 *  \param[in] Word  Next word to write to the currently selected endpoint's FIFO buffer.
 627:../LUFA/Drivers/USB/LowLevel/../HighLevel/../LowLevel/Endpoint.h **** 			 */
 628:../LUFA/Drivers/USB/LowLevel/../HighLevel/../LowLevel/Endpoint.h **** 			static inline void Endpoint_Write_Word_LE(const uint16_t Word) ATTR_ALWAYS_INLINE;
 629:../LUFA/Drivers/USB/LowLevel/../HighLevel/../LowLevel/Endpoint.h **** 			static inline void Endpoint_Write_Word_LE(const uint16_t Word)
 630:../LUFA/Drivers/USB/LowLevel/../HighLevel/../LowLevel/Endpoint.h **** 			{
 631:../LUFA/Drivers/USB/LowLevel/../HighLevel/../LowLevel/Endpoint.h **** 				UEDATX = (Word & 0xFF);
 632:../LUFA/Drivers/USB/LowLevel/../HighLevel/../LowLevel/Endpoint.h **** 				UEDATX = (Word >> 8);
 633:../LUFA/Drivers/USB/LowLevel/../HighLevel/../LowLevel/Endpoint.h **** 			}
 634:../LUFA/Drivers/USB/LowLevel/../HighLevel/../LowLevel/Endpoint.h **** 			
 635:../LUFA/Drivers/USB/LowLevel/../HighLevel/../LowLevel/Endpoint.h **** 			/** Writes two bytes to the currently selected endpoint's bank in big endian format, for IN
 636:../LUFA/Drivers/USB/LowLevel/../HighLevel/../LowLevel/Endpoint.h **** 			 *  direction endpoints.
 637:../LUFA/Drivers/USB/LowLevel/../HighLevel/../LowLevel/Endpoint.h **** 			 *
 638:../LUFA/Drivers/USB/LowLevel/../HighLevel/../LowLevel/Endpoint.h **** 			 *  \ingroup Group_EndpointPrimitiveRW
 639:../LUFA/Drivers/USB/LowLevel/../HighLevel/../LowLevel/Endpoint.h **** 			 *
 640:../LUFA/Drivers/USB/LowLevel/../HighLevel/../LowLevel/Endpoint.h **** 			 *  \param[in] Word  Next word to write to the currently selected endpoint's FIFO buffer.
 641:../LUFA/Drivers/USB/LowLevel/../HighLevel/../LowLevel/Endpoint.h **** 			 */
 642:../LUFA/Drivers/USB/LowLevel/../HighLevel/../LowLevel/Endpoint.h **** 			static inline void Endpoint_Write_Word_BE(const uint16_t Word) ATTR_ALWAYS_INLINE;
 643:../LUFA/Drivers/USB/LowLevel/../HighLevel/../LowLevel/Endpoint.h **** 			static inline void Endpoint_Write_Word_BE(const uint16_t Word)
 644:../LUFA/Drivers/USB/LowLevel/../HighLevel/../LowLevel/Endpoint.h **** 			{
 645:../LUFA/Drivers/USB/LowLevel/../HighLevel/../LowLevel/Endpoint.h **** 				UEDATX = (Word >> 8);
 646:../LUFA/Drivers/USB/LowLevel/../HighLevel/../LowLevel/Endpoint.h **** 				UEDATX = (Word & 0xFF);
 647:../LUFA/Drivers/USB/LowLevel/../HighLevel/../LowLevel/Endpoint.h **** 			}
 648:../LUFA/Drivers/USB/LowLevel/../HighLevel/../LowLevel/Endpoint.h **** 
 649:../LUFA/Drivers/USB/LowLevel/../HighLevel/../LowLevel/Endpoint.h **** 			/** Discards two bytes from the currently selected endpoint's bank, for OUT direction endpoints.
 650:../LUFA/Drivers/USB/LowLevel/../HighLevel/../LowLevel/Endpoint.h **** 			 *
 651:../LUFA/Drivers/USB/LowLevel/../HighLevel/../LowLevel/Endpoint.h **** 			 *  \ingroup Group_EndpointPrimitiveRW
 652:../LUFA/Drivers/USB/LowLevel/../HighLevel/../LowLevel/Endpoint.h **** 			 */
 653:../LUFA/Drivers/USB/LowLevel/../HighLevel/../LowLevel/Endpoint.h **** 			static inline void Endpoint_Discard_Word(void) ATTR_ALWAYS_INLINE;
 654:../LUFA/Drivers/USB/LowLevel/../HighLevel/../LowLevel/Endpoint.h **** 			static inline void Endpoint_Discard_Word(void)
 655:../LUFA/Drivers/USB/LowLevel/../HighLevel/../LowLevel/Endpoint.h **** 			{
 656:../LUFA/Drivers/USB/LowLevel/../HighLevel/../LowLevel/Endpoint.h **** 				uint8_t Dummy;
 657:../LUFA/Drivers/USB/LowLevel/../HighLevel/../LowLevel/Endpoint.h **** 				
 658:../LUFA/Drivers/USB/LowLevel/../HighLevel/../LowLevel/Endpoint.h **** 				Dummy = UEDATX;
 659:../LUFA/Drivers/USB/LowLevel/../HighLevel/../LowLevel/Endpoint.h **** 				Dummy = UEDATX;
 660:../LUFA/Drivers/USB/LowLevel/../HighLevel/../LowLevel/Endpoint.h **** 			}
 661:../LUFA/Drivers/USB/LowLevel/../HighLevel/../LowLevel/Endpoint.h **** 
 662:../LUFA/Drivers/USB/LowLevel/../HighLevel/../LowLevel/Endpoint.h **** 			/** Reads four bytes from the currently selected endpoint's bank in little endian format, for OU
 663:../LUFA/Drivers/USB/LowLevel/../HighLevel/../LowLevel/Endpoint.h **** 			 *  direction endpoints.
 664:../LUFA/Drivers/USB/LowLevel/../HighLevel/../LowLevel/Endpoint.h **** 			 *
 665:../LUFA/Drivers/USB/LowLevel/../HighLevel/../LowLevel/Endpoint.h **** 			 *  \ingroup Group_EndpointPrimitiveRW
 666:../LUFA/Drivers/USB/LowLevel/../HighLevel/../LowLevel/Endpoint.h **** 			 *
 667:../LUFA/Drivers/USB/LowLevel/../HighLevel/../LowLevel/Endpoint.h **** 			 *  \return Next double word in the currently selected endpoint's FIFO buffer.
 668:../LUFA/Drivers/USB/LowLevel/../HighLevel/../LowLevel/Endpoint.h **** 			 */
 669:../LUFA/Drivers/USB/LowLevel/../HighLevel/../LowLevel/Endpoint.h **** 			static inline uint32_t Endpoint_Read_DWord_LE(void) ATTR_WARN_UNUSED_RESULT ATTR_ALWAYS_INLINE;
 670:../LUFA/Drivers/USB/LowLevel/../HighLevel/../LowLevel/Endpoint.h **** 			static inline uint32_t Endpoint_Read_DWord_LE(void)
 671:../LUFA/Drivers/USB/LowLevel/../HighLevel/../LowLevel/Endpoint.h **** 			{
 672:../LUFA/Drivers/USB/LowLevel/../HighLevel/../LowLevel/Endpoint.h **** 				union
 673:../LUFA/Drivers/USB/LowLevel/../HighLevel/../LowLevel/Endpoint.h **** 				{
 674:../LUFA/Drivers/USB/LowLevel/../HighLevel/../LowLevel/Endpoint.h **** 					uint32_t DWord;
 675:../LUFA/Drivers/USB/LowLevel/../HighLevel/../LowLevel/Endpoint.h **** 					uint8_t  Bytes[4];
 676:../LUFA/Drivers/USB/LowLevel/../HighLevel/../LowLevel/Endpoint.h **** 				} Data;
 677:../LUFA/Drivers/USB/LowLevel/../HighLevel/../LowLevel/Endpoint.h **** 				
 678:../LUFA/Drivers/USB/LowLevel/../HighLevel/../LowLevel/Endpoint.h **** 				Data.Bytes[0] = UEDATX;
 679:../LUFA/Drivers/USB/LowLevel/../HighLevel/../LowLevel/Endpoint.h **** 				Data.Bytes[1] = UEDATX;
 680:../LUFA/Drivers/USB/LowLevel/../HighLevel/../LowLevel/Endpoint.h **** 				Data.Bytes[2] = UEDATX;
 681:../LUFA/Drivers/USB/LowLevel/../HighLevel/../LowLevel/Endpoint.h **** 				Data.Bytes[3] = UEDATX;
 682:../LUFA/Drivers/USB/LowLevel/../HighLevel/../LowLevel/Endpoint.h **** 			
 683:../LUFA/Drivers/USB/LowLevel/../HighLevel/../LowLevel/Endpoint.h **** 				return Data.DWord;
 684:../LUFA/Drivers/USB/LowLevel/../HighLevel/../LowLevel/Endpoint.h **** 			}
 685:../LUFA/Drivers/USB/LowLevel/../HighLevel/../LowLevel/Endpoint.h **** 
 686:../LUFA/Drivers/USB/LowLevel/../HighLevel/../LowLevel/Endpoint.h **** 			/** Reads four bytes from the currently selected endpoint's bank in big endian format, for OUT
 687:../LUFA/Drivers/USB/LowLevel/../HighLevel/../LowLevel/Endpoint.h **** 			 *  direction endpoints.
 688:../LUFA/Drivers/USB/LowLevel/../HighLevel/../LowLevel/Endpoint.h **** 			 *
 689:../LUFA/Drivers/USB/LowLevel/../HighLevel/../LowLevel/Endpoint.h **** 			 *  \ingroup Group_EndpointPrimitiveRW
 690:../LUFA/Drivers/USB/LowLevel/../HighLevel/../LowLevel/Endpoint.h **** 			 *
 691:../LUFA/Drivers/USB/LowLevel/../HighLevel/../LowLevel/Endpoint.h **** 			 *  \return Next double word in the currently selected endpoint's FIFO buffer.
 692:../LUFA/Drivers/USB/LowLevel/../HighLevel/../LowLevel/Endpoint.h **** 			 */
 693:../LUFA/Drivers/USB/LowLevel/../HighLevel/../LowLevel/Endpoint.h **** 			static inline uint32_t Endpoint_Read_DWord_BE(void) ATTR_WARN_UNUSED_RESULT ATTR_ALWAYS_INLINE;
 694:../LUFA/Drivers/USB/LowLevel/../HighLevel/../LowLevel/Endpoint.h **** 			static inline uint32_t Endpoint_Read_DWord_BE(void)
 695:../LUFA/Drivers/USB/LowLevel/../HighLevel/../LowLevel/Endpoint.h **** 			{
 696:../LUFA/Drivers/USB/LowLevel/../HighLevel/../LowLevel/Endpoint.h **** 				union
 697:../LUFA/Drivers/USB/LowLevel/../HighLevel/../LowLevel/Endpoint.h **** 				{
 698:../LUFA/Drivers/USB/LowLevel/../HighLevel/../LowLevel/Endpoint.h **** 					uint32_t DWord;
 699:../LUFA/Drivers/USB/LowLevel/../HighLevel/../LowLevel/Endpoint.h **** 					uint8_t  Bytes[4];
 700:../LUFA/Drivers/USB/LowLevel/../HighLevel/../LowLevel/Endpoint.h **** 				} Data;
 701:../LUFA/Drivers/USB/LowLevel/../HighLevel/../LowLevel/Endpoint.h **** 				
 702:../LUFA/Drivers/USB/LowLevel/../HighLevel/../LowLevel/Endpoint.h **** 				Data.Bytes[3] = UEDATX;
 703:../LUFA/Drivers/USB/LowLevel/../HighLevel/../LowLevel/Endpoint.h **** 				Data.Bytes[2] = UEDATX;
 704:../LUFA/Drivers/USB/LowLevel/../HighLevel/../LowLevel/Endpoint.h **** 				Data.Bytes[1] = UEDATX;
 705:../LUFA/Drivers/USB/LowLevel/../HighLevel/../LowLevel/Endpoint.h **** 				Data.Bytes[0] = UEDATX;
 706:../LUFA/Drivers/USB/LowLevel/../HighLevel/../LowLevel/Endpoint.h **** 			
 707:../LUFA/Drivers/USB/LowLevel/../HighLevel/../LowLevel/Endpoint.h **** 				return Data.DWord;
 708:../LUFA/Drivers/USB/LowLevel/../HighLevel/../LowLevel/Endpoint.h **** 			}
 709:../LUFA/Drivers/USB/LowLevel/../HighLevel/../LowLevel/Endpoint.h **** 
 710:../LUFA/Drivers/USB/LowLevel/../HighLevel/../LowLevel/Endpoint.h **** 			/** Writes four bytes to the currently selected endpoint's bank in little endian format, for IN
 711:../LUFA/Drivers/USB/LowLevel/../HighLevel/../LowLevel/Endpoint.h **** 			 *  direction endpoints.
 712:../LUFA/Drivers/USB/LowLevel/../HighLevel/../LowLevel/Endpoint.h **** 			 *
 713:../LUFA/Drivers/USB/LowLevel/../HighLevel/../LowLevel/Endpoint.h **** 			 *  \ingroup Group_EndpointPrimitiveRW
 714:../LUFA/Drivers/USB/LowLevel/../HighLevel/../LowLevel/Endpoint.h **** 			 *
 715:../LUFA/Drivers/USB/LowLevel/../HighLevel/../LowLevel/Endpoint.h **** 			 *  \param[in] DWord  Next double word to write to the currently selected endpoint's FIFO buffer
 716:../LUFA/Drivers/USB/LowLevel/../HighLevel/../LowLevel/Endpoint.h **** 			 */
 717:../LUFA/Drivers/USB/LowLevel/../HighLevel/../LowLevel/Endpoint.h **** 			static inline void Endpoint_Write_DWord_LE(const uint32_t DWord) ATTR_ALWAYS_INLINE;
 718:../LUFA/Drivers/USB/LowLevel/../HighLevel/../LowLevel/Endpoint.h **** 			static inline void Endpoint_Write_DWord_LE(const uint32_t DWord)
 719:../LUFA/Drivers/USB/LowLevel/../HighLevel/../LowLevel/Endpoint.h **** 			{
 720:../LUFA/Drivers/USB/LowLevel/../HighLevel/../LowLevel/Endpoint.h **** 				UEDATX = (DWord &  0xFF);
 721:../LUFA/Drivers/USB/LowLevel/../HighLevel/../LowLevel/Endpoint.h **** 				UEDATX = (DWord >> 8);
 722:../LUFA/Drivers/USB/LowLevel/../HighLevel/../LowLevel/Endpoint.h **** 				UEDATX = (DWord >> 16);
 723:../LUFA/Drivers/USB/LowLevel/../HighLevel/../LowLevel/Endpoint.h **** 				UEDATX = (DWord >> 24);
 724:../LUFA/Drivers/USB/LowLevel/../HighLevel/../LowLevel/Endpoint.h **** 			}
 725:../LUFA/Drivers/USB/LowLevel/../HighLevel/../LowLevel/Endpoint.h **** 			
 726:../LUFA/Drivers/USB/LowLevel/../HighLevel/../LowLevel/Endpoint.h **** 			/** Writes four bytes to the currently selected endpoint's bank in big endian format, for IN
 727:../LUFA/Drivers/USB/LowLevel/../HighLevel/../LowLevel/Endpoint.h **** 			 *  direction endpoints.
 728:../LUFA/Drivers/USB/LowLevel/../HighLevel/../LowLevel/Endpoint.h **** 			 *
 729:../LUFA/Drivers/USB/LowLevel/../HighLevel/../LowLevel/Endpoint.h **** 			 *  \ingroup Group_EndpointPrimitiveRW
 730:../LUFA/Drivers/USB/LowLevel/../HighLevel/../LowLevel/Endpoint.h **** 			 *
 731:../LUFA/Drivers/USB/LowLevel/../HighLevel/../LowLevel/Endpoint.h **** 			 *  \param[in] DWord  Next double word to write to the currently selected endpoint's FIFO buffer
 732:../LUFA/Drivers/USB/LowLevel/../HighLevel/../LowLevel/Endpoint.h **** 			 */
 733:../LUFA/Drivers/USB/LowLevel/../HighLevel/../LowLevel/Endpoint.h **** 			static inline void Endpoint_Write_DWord_BE(const uint32_t DWord) ATTR_ALWAYS_INLINE;
 734:../LUFA/Drivers/USB/LowLevel/../HighLevel/../LowLevel/Endpoint.h **** 			static inline void Endpoint_Write_DWord_BE(const uint32_t DWord)
 735:../LUFA/Drivers/USB/LowLevel/../HighLevel/../LowLevel/Endpoint.h **** 			{
 736:../LUFA/Drivers/USB/LowLevel/../HighLevel/../LowLevel/Endpoint.h **** 				UEDATX = (DWord >> 24);
 737:../LUFA/Drivers/USB/LowLevel/../HighLevel/../LowLevel/Endpoint.h **** 				UEDATX = (DWord >> 16);
 738:../LUFA/Drivers/USB/LowLevel/../HighLevel/../LowLevel/Endpoint.h **** 				UEDATX = (DWord >> 8);
 739:../LUFA/Drivers/USB/LowLevel/../HighLevel/../LowLevel/Endpoint.h **** 				UEDATX = (DWord &  0xFF);
 740:../LUFA/Drivers/USB/LowLevel/../HighLevel/../LowLevel/Endpoint.h **** 			}
 741:../LUFA/Drivers/USB/LowLevel/../HighLevel/../LowLevel/Endpoint.h **** 
 742:../LUFA/Drivers/USB/LowLevel/../HighLevel/../LowLevel/Endpoint.h **** 			/** Discards four bytes from the currently selected endpoint's bank, for OUT direction endpoints
 743:../LUFA/Drivers/USB/LowLevel/../HighLevel/../LowLevel/Endpoint.h **** 			 *
 744:../LUFA/Drivers/USB/LowLevel/../HighLevel/../LowLevel/Endpoint.h **** 			 *  \ingroup Group_EndpointPrimitiveRW
 745:../LUFA/Drivers/USB/LowLevel/../HighLevel/../LowLevel/Endpoint.h **** 			 */
 746:../LUFA/Drivers/USB/LowLevel/../HighLevel/../LowLevel/Endpoint.h **** 			static inline void Endpoint_Discard_DWord(void) ATTR_ALWAYS_INLINE;
 747:../LUFA/Drivers/USB/LowLevel/../HighLevel/../LowLevel/Endpoint.h **** 			static inline void Endpoint_Discard_DWord(void)
 748:../LUFA/Drivers/USB/LowLevel/../HighLevel/../LowLevel/Endpoint.h **** 			{
 749:../LUFA/Drivers/USB/LowLevel/../HighLevel/../LowLevel/Endpoint.h **** 				uint8_t Dummy;
 750:../LUFA/Drivers/USB/LowLevel/../HighLevel/../LowLevel/Endpoint.h **** 				
 751:../LUFA/Drivers/USB/LowLevel/../HighLevel/../LowLevel/Endpoint.h **** 				Dummy = UEDATX;
 752:../LUFA/Drivers/USB/LowLevel/../HighLevel/../LowLevel/Endpoint.h **** 				Dummy = UEDATX;
 753:../LUFA/Drivers/USB/LowLevel/../HighLevel/../LowLevel/Endpoint.h **** 				Dummy = UEDATX;
 754:../LUFA/Drivers/USB/LowLevel/../HighLevel/../LowLevel/Endpoint.h **** 				Dummy = UEDATX;
 755:../LUFA/Drivers/USB/LowLevel/../HighLevel/../LowLevel/Endpoint.h **** 			}
 756:../LUFA/Drivers/USB/LowLevel/../HighLevel/../LowLevel/Endpoint.h **** 
 757:../LUFA/Drivers/USB/LowLevel/../HighLevel/../LowLevel/Endpoint.h **** 		/* External Variables: */
 758:../LUFA/Drivers/USB/LowLevel/../HighLevel/../LowLevel/Endpoint.h **** 			/** Global indicating the maximum packet size of the default control endpoint located at address
 759:../LUFA/Drivers/USB/LowLevel/../HighLevel/../LowLevel/Endpoint.h **** 			 *  0 in the device. This value is set to the value indicated in the device descriptor in the us
 760:../LUFA/Drivers/USB/LowLevel/../HighLevel/../LowLevel/Endpoint.h **** 			 *  project once the USB interface is initialized into device mode.
 761:../LUFA/Drivers/USB/LowLevel/../HighLevel/../LowLevel/Endpoint.h **** 			 *
 762:../LUFA/Drivers/USB/LowLevel/../HighLevel/../LowLevel/Endpoint.h **** 			 *  If space is an issue, it is possible to fix this to a static value by defining the control
 763:../LUFA/Drivers/USB/LowLevel/../HighLevel/../LowLevel/Endpoint.h **** 			 *  endpoint size in the FIXED_CONTROL_ENDPOINT_SIZE token passed to the compiler in the makefil
 764:../LUFA/Drivers/USB/LowLevel/../HighLevel/../LowLevel/Endpoint.h **** 			 *  via the -D switch. When a fixed control endpoint size is used, the size is no longer dynamic
 765:../LUFA/Drivers/USB/LowLevel/../HighLevel/../LowLevel/Endpoint.h **** 			 *  read from the descriptors at runtime and instead fixed to the given value. When used, it is
 766:../LUFA/Drivers/USB/LowLevel/../HighLevel/../LowLevel/Endpoint.h **** 			 *  important that the descriptor control endpoint size value matches the size given as the
 767:../LUFA/Drivers/USB/LowLevel/../HighLevel/../LowLevel/Endpoint.h **** 			 *  FIXED_CONTROL_ENDPOINT_SIZE token - it is recommended that the FIXED_CONTROL_ENDPOINT_SIZE t
 768:../LUFA/Drivers/USB/LowLevel/../HighLevel/../LowLevel/Endpoint.h **** 			 *  be used in the descriptors to ensure this.
 769:../LUFA/Drivers/USB/LowLevel/../HighLevel/../LowLevel/Endpoint.h **** 			 *
 770:../LUFA/Drivers/USB/LowLevel/../HighLevel/../LowLevel/Endpoint.h **** 			 *  \note This variable should be treated as read-only in the user application, and never manual
 771:../LUFA/Drivers/USB/LowLevel/../HighLevel/../LowLevel/Endpoint.h **** 			 *        changed in value.
 772:../LUFA/Drivers/USB/LowLevel/../HighLevel/../LowLevel/Endpoint.h **** 			 */
 773:../LUFA/Drivers/USB/LowLevel/../HighLevel/../LowLevel/Endpoint.h **** 			#if (!defined(FIXED_CONTROL_ENDPOINT_SIZE) || defined(__DOXYGEN__))
 774:../LUFA/Drivers/USB/LowLevel/../HighLevel/../LowLevel/Endpoint.h **** 				extern uint8_t USB_ControlEndpointSize;
 775:../LUFA/Drivers/USB/LowLevel/../HighLevel/../LowLevel/Endpoint.h **** 			#else
 776:../LUFA/Drivers/USB/LowLevel/../HighLevel/../LowLevel/Endpoint.h **** 				#define USB_ControlEndpointSize FIXED_CONTROL_ENDPOINT_SIZE
 777:../LUFA/Drivers/USB/LowLevel/../HighLevel/../LowLevel/Endpoint.h **** 			#endif
 778:../LUFA/Drivers/USB/LowLevel/../HighLevel/../LowLevel/Endpoint.h **** 
 779:../LUFA/Drivers/USB/LowLevel/../HighLevel/../LowLevel/Endpoint.h **** 		/* Function Prototypes: */
 780:../LUFA/Drivers/USB/LowLevel/../HighLevel/../LowLevel/Endpoint.h **** 			#if !defined(NO_STREAM_CALLBACKS) || defined(__DOXYGEN__)
 781:../LUFA/Drivers/USB/LowLevel/../HighLevel/../LowLevel/Endpoint.h **** 				#define __CALLBACK_PARAM     , StreamCallbackPtr_t Callback
 782:../LUFA/Drivers/USB/LowLevel/../HighLevel/../LowLevel/Endpoint.h **** 			#else
 783:../LUFA/Drivers/USB/LowLevel/../HighLevel/../LowLevel/Endpoint.h **** 				#define __CALLBACK_PARAM
 784:../LUFA/Drivers/USB/LowLevel/../HighLevel/../LowLevel/Endpoint.h **** 			#endif
 785:../LUFA/Drivers/USB/LowLevel/../HighLevel/../LowLevel/Endpoint.h **** 		
 786:../LUFA/Drivers/USB/LowLevel/../HighLevel/../LowLevel/Endpoint.h **** 			/** Configures the specified endpoint number with the given endpoint type, direction, bank size
 787:../LUFA/Drivers/USB/LowLevel/../HighLevel/../LowLevel/Endpoint.h **** 			 *  and banking mode. Endpoints should be allocated in ascending order by their address in the
 788:../LUFA/Drivers/USB/LowLevel/../HighLevel/../LowLevel/Endpoint.h **** 			 *  device (i.e. endpoint 1 should be configured before endpoint 2 and so on) to prevent fragmen
 789:../LUFA/Drivers/USB/LowLevel/../HighLevel/../LowLevel/Endpoint.h **** 			 *  of the USB FIFO memory.
 790:../LUFA/Drivers/USB/LowLevel/../HighLevel/../LowLevel/Endpoint.h **** 			 *
 791:../LUFA/Drivers/USB/LowLevel/../HighLevel/../LowLevel/Endpoint.h **** 			 *  The endpoint type may be one of the EP_TYPE_* macros listed in LowLevel.h and the direction
 792:../LUFA/Drivers/USB/LowLevel/../HighLevel/../LowLevel/Endpoint.h **** 			 *  may be either \ref ENDPOINT_DIR_OUT or \ref ENDPOINT_DIR_IN.
 793:../LUFA/Drivers/USB/LowLevel/../HighLevel/../LowLevel/Endpoint.h **** 			 *
 794:../LUFA/Drivers/USB/LowLevel/../HighLevel/../LowLevel/Endpoint.h **** 			 *  The bank size must indicate the maximum packet size that the endpoint can handle. Different
 795:../LUFA/Drivers/USB/LowLevel/../HighLevel/../LowLevel/Endpoint.h **** 			 *  endpoint numbers can handle different maximum packet sizes - refer to the chosen USB AVR's
 796:../LUFA/Drivers/USB/LowLevel/../HighLevel/../LowLevel/Endpoint.h **** 			 *  datasheet to determine the maximum bank size for each endpoint.
 797:../LUFA/Drivers/USB/LowLevel/../HighLevel/../LowLevel/Endpoint.h **** 			 *
 798:../LUFA/Drivers/USB/LowLevel/../HighLevel/../LowLevel/Endpoint.h **** 			 *  The banking mode may be either \ref ENDPOINT_BANK_SINGLE or \ref ENDPOINT_BANK_DOUBLE.
 799:../LUFA/Drivers/USB/LowLevel/../HighLevel/../LowLevel/Endpoint.h **** 			 *
 800:../LUFA/Drivers/USB/LowLevel/../HighLevel/../LowLevel/Endpoint.h **** 			 *  \note The default control endpoint should not be manually configured by the user application
 801:../LUFA/Drivers/USB/LowLevel/../HighLevel/../LowLevel/Endpoint.h **** 			 *        it is automatically configured by the library internally.
 802:../LUFA/Drivers/USB/LowLevel/../HighLevel/../LowLevel/Endpoint.h **** 			 *        \n\n
 803:../LUFA/Drivers/USB/LowLevel/../HighLevel/../LowLevel/Endpoint.h **** 			 *
 804:../LUFA/Drivers/USB/LowLevel/../HighLevel/../LowLevel/Endpoint.h **** 			 *  \note This routine will select the specified endpoint, and the endpoint will remain selected
 805:../LUFA/Drivers/USB/LowLevel/../HighLevel/../LowLevel/Endpoint.h **** 			 *        once the routine completes regardless of if the endpoint configuration succeeds.
 806:../LUFA/Drivers/USB/LowLevel/../HighLevel/../LowLevel/Endpoint.h **** 			 *
 807:../LUFA/Drivers/USB/LowLevel/../HighLevel/../LowLevel/Endpoint.h **** 			 *  \return Boolean true if the configuration succeeded, false otherwise.
 808:../LUFA/Drivers/USB/LowLevel/../HighLevel/../LowLevel/Endpoint.h **** 			 */
 809:../LUFA/Drivers/USB/LowLevel/../HighLevel/../LowLevel/Endpoint.h **** 			bool Endpoint_ConfigureEndpoint(const uint8_t  Number,
 810:../LUFA/Drivers/USB/LowLevel/../HighLevel/../LowLevel/Endpoint.h **** 			                                const uint8_t Type,
 811:../LUFA/Drivers/USB/LowLevel/../HighLevel/../LowLevel/Endpoint.h **** 			                                const uint8_t Direction,
 812:../LUFA/Drivers/USB/LowLevel/../HighLevel/../LowLevel/Endpoint.h **** 			                                const uint16_t Size,
 813:../LUFA/Drivers/USB/LowLevel/../HighLevel/../LowLevel/Endpoint.h **** 			                                const uint8_t Banks);
 814:../LUFA/Drivers/USB/LowLevel/../HighLevel/../LowLevel/Endpoint.h **** 
 815:../LUFA/Drivers/USB/LowLevel/../HighLevel/../LowLevel/Endpoint.h **** 			/** Spin-loops until the currently selected non-control endpoint is ready for the next packet of
 816:../LUFA/Drivers/USB/LowLevel/../HighLevel/../LowLevel/Endpoint.h **** 			 *  to be read or written to it.
 817:../LUFA/Drivers/USB/LowLevel/../HighLevel/../LowLevel/Endpoint.h **** 			 *
 818:../LUFA/Drivers/USB/LowLevel/../HighLevel/../LowLevel/Endpoint.h **** 			 *  \note This routine should not be called on CONTROL type endpoints.
 819:../LUFA/Drivers/USB/LowLevel/../HighLevel/../LowLevel/Endpoint.h **** 			 *
 820:../LUFA/Drivers/USB/LowLevel/../HighLevel/../LowLevel/Endpoint.h **** 			 *  \ingroup Group_EndpointRW
 821:../LUFA/Drivers/USB/LowLevel/../HighLevel/../LowLevel/Endpoint.h **** 			 *
 822:../LUFA/Drivers/USB/LowLevel/../HighLevel/../LowLevel/Endpoint.h **** 			 *  \return A value from the \ref Endpoint_WaitUntilReady_ErrorCodes_t enum.
 823:../LUFA/Drivers/USB/LowLevel/../HighLevel/../LowLevel/Endpoint.h **** 			 */
 824:../LUFA/Drivers/USB/LowLevel/../HighLevel/../LowLevel/Endpoint.h **** 			uint8_t Endpoint_WaitUntilReady(void);
 825:../LUFA/Drivers/USB/LowLevel/../HighLevel/../LowLevel/Endpoint.h **** 			
 826:../LUFA/Drivers/USB/LowLevel/../HighLevel/../LowLevel/Endpoint.h **** 			/** Completes the status stage of a control transfer on a CONTROL type endpoint automatically,
 827:../LUFA/Drivers/USB/LowLevel/../HighLevel/../LowLevel/Endpoint.h **** 			 *  with respect to the data direction. This is a convenience function which can be used to
 828:../LUFA/Drivers/USB/LowLevel/../HighLevel/../LowLevel/Endpoint.h **** 			 *  simplify user control request handling.
 829:../LUFA/Drivers/USB/LowLevel/../HighLevel/../LowLevel/Endpoint.h **** 			 */
 830:../LUFA/Drivers/USB/LowLevel/../HighLevel/../LowLevel/Endpoint.h **** 			void Endpoint_ClearStatusStage(void);
 831:../LUFA/Drivers/USB/LowLevel/../HighLevel/../LowLevel/Endpoint.h **** 
 832:../LUFA/Drivers/USB/LowLevel/../HighLevel/../LowLevel/Endpoint.h **** 			/** Reads and discards the given number of bytes from the endpoint from the given buffer,
 833:../LUFA/Drivers/USB/LowLevel/../HighLevel/../LowLevel/Endpoint.h **** 			 *  discarding fully read packets from the host as needed. The last packet is not automatically
 834:../LUFA/Drivers/USB/LowLevel/../HighLevel/../LowLevel/Endpoint.h **** 			 *  discarded once the remaining bytes has been read; the user is responsible for manually
 835:../LUFA/Drivers/USB/LowLevel/../HighLevel/../LowLevel/Endpoint.h **** 			 *  discarding the last packet from the host via the \ref Endpoint_ClearOUT() macro. Between
 836:../LUFA/Drivers/USB/LowLevel/../HighLevel/../LowLevel/Endpoint.h **** 			 *  each USB packet, the given stream callback function is executed repeatedly until the next
 837:../LUFA/Drivers/USB/LowLevel/../HighLevel/../LowLevel/Endpoint.h **** 			 *  packet is ready, allowing for early aborts of stream transfers.
 838:../LUFA/Drivers/USB/LowLevel/../HighLevel/../LowLevel/Endpoint.h **** 			 *
 839:../LUFA/Drivers/USB/LowLevel/../HighLevel/../LowLevel/Endpoint.h **** 			 *	The callback routine should be created according to the information in \ref Group_StreamCallb
 840:../LUFA/Drivers/USB/LowLevel/../HighLevel/../LowLevel/Endpoint.h **** 			 *  If the token NO_STREAM_CALLBACKS is passed via the -D option to the compiler, stream callbac
 841:../LUFA/Drivers/USB/LowLevel/../HighLevel/../LowLevel/Endpoint.h **** 			 *  disabled and this function has the Callback parameter omitted.
 842:../LUFA/Drivers/USB/LowLevel/../HighLevel/../LowLevel/Endpoint.h **** 			 *
 843:../LUFA/Drivers/USB/LowLevel/../HighLevel/../LowLevel/Endpoint.h **** 			 *  \note This routine should not be used on CONTROL type endpoints.
 844:../LUFA/Drivers/USB/LowLevel/../HighLevel/../LowLevel/Endpoint.h **** 			 *
 845:../LUFA/Drivers/USB/LowLevel/../HighLevel/../LowLevel/Endpoint.h **** 			 *  \ingroup Group_EndpointStreamRW
 846:../LUFA/Drivers/USB/LowLevel/../HighLevel/../LowLevel/Endpoint.h **** 			 *
 847:../LUFA/Drivers/USB/LowLevel/../HighLevel/../LowLevel/Endpoint.h **** 			 *  \param[in] Length    Number of bytes to send via the currently selected endpoint.
 848:../LUFA/Drivers/USB/LowLevel/../HighLevel/../LowLevel/Endpoint.h **** 			 *  \param[in] Callback  Name of a callback routine to call between successive USB packet transf
 849:../LUFA/Drivers/USB/LowLevel/../HighLevel/../LowLevel/Endpoint.h **** 			 *
 850:../LUFA/Drivers/USB/LowLevel/../HighLevel/../LowLevel/Endpoint.h **** 			 *  \return A value from the \ref Endpoint_Stream_RW_ErrorCodes_t enum.
 851:../LUFA/Drivers/USB/LowLevel/../HighLevel/../LowLevel/Endpoint.h **** 			 */
 852:../LUFA/Drivers/USB/LowLevel/../HighLevel/../LowLevel/Endpoint.h **** 			uint8_t Endpoint_Discard_Stream(uint16_t Length
 853:../LUFA/Drivers/USB/LowLevel/../HighLevel/../LowLevel/Endpoint.h **** 			                                __CALLBACK_PARAM);
 854:../LUFA/Drivers/USB/LowLevel/../HighLevel/../LowLevel/Endpoint.h **** 
 855:../LUFA/Drivers/USB/LowLevel/../HighLevel/../LowLevel/Endpoint.h **** 			/** Writes the given number of bytes to the endpoint from the given buffer in little endian,
 856:../LUFA/Drivers/USB/LowLevel/../HighLevel/../LowLevel/Endpoint.h **** 			 *  sending full packets to the host as needed. The last packet filled is not automatically sent
 857:../LUFA/Drivers/USB/LowLevel/../HighLevel/../LowLevel/Endpoint.h **** 			 *  the user is responsible for manually sending the last written packet to the host via the
 858:../LUFA/Drivers/USB/LowLevel/../HighLevel/../LowLevel/Endpoint.h **** 			 *  \ref Endpoint_ClearIN() macro. Between each USB packet, the given stream callback function
 859:../LUFA/Drivers/USB/LowLevel/../HighLevel/../LowLevel/Endpoint.h **** 			 *  is executed repeatedly until the endpoint is ready to accept the next packet, allowing for e
 860:../LUFA/Drivers/USB/LowLevel/../HighLevel/../LowLevel/Endpoint.h **** 			 *  aborts of stream transfers.
 861:../LUFA/Drivers/USB/LowLevel/../HighLevel/../LowLevel/Endpoint.h **** 			 *
 862:../LUFA/Drivers/USB/LowLevel/../HighLevel/../LowLevel/Endpoint.h **** 			 *	The callback routine should be created according to the information in \ref Group_StreamCallb
 863:../LUFA/Drivers/USB/LowLevel/../HighLevel/../LowLevel/Endpoint.h **** 			 *  If the token NO_STREAM_CALLBACKS is passed via the -D option to the compiler, stream callbac
 864:../LUFA/Drivers/USB/LowLevel/../HighLevel/../LowLevel/Endpoint.h **** 			 *  disabled and this function has the Callback parameter omitted.
 865:../LUFA/Drivers/USB/LowLevel/../HighLevel/../LowLevel/Endpoint.h **** 			 *
 866:../LUFA/Drivers/USB/LowLevel/../HighLevel/../LowLevel/Endpoint.h **** 			 *  \note This routine should not be used on CONTROL type endpoints.
 867:../LUFA/Drivers/USB/LowLevel/../HighLevel/../LowLevel/Endpoint.h **** 			 *
 868:../LUFA/Drivers/USB/LowLevel/../HighLevel/../LowLevel/Endpoint.h **** 			 *  \ingroup Group_EndpointStreamRW
 869:../LUFA/Drivers/USB/LowLevel/../HighLevel/../LowLevel/Endpoint.h **** 			 *
 870:../LUFA/Drivers/USB/LowLevel/../HighLevel/../LowLevel/Endpoint.h **** 			 *  \param[in] Buffer    Pointer to the source data buffer to read from.
 871:../LUFA/Drivers/USB/LowLevel/../HighLevel/../LowLevel/Endpoint.h **** 			 *  \param[in] Length    Number of bytes to read for the currently selected endpoint into the bu
 872:../LUFA/Drivers/USB/LowLevel/../HighLevel/../LowLevel/Endpoint.h **** 			 *  \param[in] Callback  Name of a callback routine to call between successive USB packet transf
 873:../LUFA/Drivers/USB/LowLevel/../HighLevel/../LowLevel/Endpoint.h **** 			 *
 874:../LUFA/Drivers/USB/LowLevel/../HighLevel/../LowLevel/Endpoint.h **** 			 *  \return A value from the \ref Endpoint_Stream_RW_ErrorCodes_t enum.
 875:../LUFA/Drivers/USB/LowLevel/../HighLevel/../LowLevel/Endpoint.h **** 			 */
 876:../LUFA/Drivers/USB/LowLevel/../HighLevel/../LowLevel/Endpoint.h **** 			uint8_t Endpoint_Write_Stream_LE(const void* Buffer,
 877:../LUFA/Drivers/USB/LowLevel/../HighLevel/../LowLevel/Endpoint.h **** 			                                 uint16_t Length
 878:../LUFA/Drivers/USB/LowLevel/../HighLevel/../LowLevel/Endpoint.h **** 			                                 __CALLBACK_PARAM) ATTR_NON_NULL_PTR_ARG(1);
 879:../LUFA/Drivers/USB/LowLevel/../HighLevel/../LowLevel/Endpoint.h **** 
 880:../LUFA/Drivers/USB/LowLevel/../HighLevel/../LowLevel/Endpoint.h **** 			/** EEPROM buffer source version of \ref Endpoint_Write_Stream_LE().
 881:../LUFA/Drivers/USB/LowLevel/../HighLevel/../LowLevel/Endpoint.h **** 			 *
 882:../LUFA/Drivers/USB/LowLevel/../HighLevel/../LowLevel/Endpoint.h **** 			 *  \ingroup Group_EndpointStreamRW
 883:../LUFA/Drivers/USB/LowLevel/../HighLevel/../LowLevel/Endpoint.h **** 			 *
 884:../LUFA/Drivers/USB/LowLevel/../HighLevel/../LowLevel/Endpoint.h **** 			 *  \param[in] Buffer    Pointer to the source data buffer to read from.
 885:../LUFA/Drivers/USB/LowLevel/../HighLevel/../LowLevel/Endpoint.h **** 			 *  \param[in] Length    Number of bytes to read for the currently selected endpoint into the bu
 886:../LUFA/Drivers/USB/LowLevel/../HighLevel/../LowLevel/Endpoint.h **** 			 *  \param[in] Callback  Name of a callback routine to call between successive USB packet transf
 887:../LUFA/Drivers/USB/LowLevel/../HighLevel/../LowLevel/Endpoint.h **** 			 *
 888:../LUFA/Drivers/USB/LowLevel/../HighLevel/../LowLevel/Endpoint.h **** 			 *  \return A value from the \ref Endpoint_Stream_RW_ErrorCodes_t enum.
 889:../LUFA/Drivers/USB/LowLevel/../HighLevel/../LowLevel/Endpoint.h **** 			 */
 890:../LUFA/Drivers/USB/LowLevel/../HighLevel/../LowLevel/Endpoint.h **** 			uint8_t Endpoint_Write_EStream_LE(const void* Buffer,
 891:../LUFA/Drivers/USB/LowLevel/../HighLevel/../LowLevel/Endpoint.h **** 			                                  uint16_t Length
 892:../LUFA/Drivers/USB/LowLevel/../HighLevel/../LowLevel/Endpoint.h **** 			                                  __CALLBACK_PARAM) ATTR_NON_NULL_PTR_ARG(1);
 893:../LUFA/Drivers/USB/LowLevel/../HighLevel/../LowLevel/Endpoint.h **** 
 894:../LUFA/Drivers/USB/LowLevel/../HighLevel/../LowLevel/Endpoint.h **** 			/** FLASH buffer source version of \ref Endpoint_Write_Stream_LE().
 895:../LUFA/Drivers/USB/LowLevel/../HighLevel/../LowLevel/Endpoint.h **** 			 *
 896:../LUFA/Drivers/USB/LowLevel/../HighLevel/../LowLevel/Endpoint.h **** 			 *  \pre The FLASH data must be located in the first 64KB of FLASH for this function to work cor
 897:../LUFA/Drivers/USB/LowLevel/../HighLevel/../LowLevel/Endpoint.h **** 			 *
 898:../LUFA/Drivers/USB/LowLevel/../HighLevel/../LowLevel/Endpoint.h **** 			 *  \ingroup Group_EndpointStreamRW
 899:../LUFA/Drivers/USB/LowLevel/../HighLevel/../LowLevel/Endpoint.h **** 			 *
 900:../LUFA/Drivers/USB/LowLevel/../HighLevel/../LowLevel/Endpoint.h **** 			 *  \param[in] Buffer    Pointer to the source data buffer to read from.
 901:../LUFA/Drivers/USB/LowLevel/../HighLevel/../LowLevel/Endpoint.h **** 			 *  \param[in] Length    Number of bytes to read for the currently selected endpoint into the bu
 902:../LUFA/Drivers/USB/LowLevel/../HighLevel/../LowLevel/Endpoint.h **** 			 *  \param[in] Callback  Name of a callback routine to call between successive USB packet transf
 903:../LUFA/Drivers/USB/LowLevel/../HighLevel/../LowLevel/Endpoint.h **** 			 *
 904:../LUFA/Drivers/USB/LowLevel/../HighLevel/../LowLevel/Endpoint.h **** 			 *  \return A value from the \ref Endpoint_Stream_RW_ErrorCodes_t enum.
 905:../LUFA/Drivers/USB/LowLevel/../HighLevel/../LowLevel/Endpoint.h **** 			 */
 906:../LUFA/Drivers/USB/LowLevel/../HighLevel/../LowLevel/Endpoint.h **** 			uint8_t Endpoint_Write_PStream_LE(const void* Buffer,
 907:../LUFA/Drivers/USB/LowLevel/../HighLevel/../LowLevel/Endpoint.h **** 			                                  uint16_t Length
 908:../LUFA/Drivers/USB/LowLevel/../HighLevel/../LowLevel/Endpoint.h **** 			                                  __CALLBACK_PARAM) ATTR_NON_NULL_PTR_ARG(1);
 909:../LUFA/Drivers/USB/LowLevel/../HighLevel/../LowLevel/Endpoint.h **** 
 910:../LUFA/Drivers/USB/LowLevel/../HighLevel/../LowLevel/Endpoint.h **** 			/** Writes the given number of bytes to the endpoint from the given buffer in big endian,
 911:../LUFA/Drivers/USB/LowLevel/../HighLevel/../LowLevel/Endpoint.h **** 			 *  sending full packets to the host as needed. The last packet filled is not automatically sent
 912:../LUFA/Drivers/USB/LowLevel/../HighLevel/../LowLevel/Endpoint.h **** 			 *  the user is responsible for manually sending the last written packet to the host via the
 913:../LUFA/Drivers/USB/LowLevel/../HighLevel/../LowLevel/Endpoint.h **** 			 *  \ref Endpoint_ClearIN() macro. Between each USB packet, the given stream callback function
 914:../LUFA/Drivers/USB/LowLevel/../HighLevel/../LowLevel/Endpoint.h **** 			 *  is executed repeatedly until the endpoint is ready to accept the next packet, allowing for e
 915:../LUFA/Drivers/USB/LowLevel/../HighLevel/../LowLevel/Endpoint.h **** 			 *  aborts of stream transfers.
 916:../LUFA/Drivers/USB/LowLevel/../HighLevel/../LowLevel/Endpoint.h **** 			 *
 917:../LUFA/Drivers/USB/LowLevel/../HighLevel/../LowLevel/Endpoint.h **** 			 *	The callback routine should be created according to the information in \ref Group_StreamCallb
 918:../LUFA/Drivers/USB/LowLevel/../HighLevel/../LowLevel/Endpoint.h **** 			 *  If the token NO_STREAM_CALLBACKS is passed via the -D option to the compiler, stream callbac
 919:../LUFA/Drivers/USB/LowLevel/../HighLevel/../LowLevel/Endpoint.h **** 			 *  disabled and this function has the Callback parameter omitted.
 920:../LUFA/Drivers/USB/LowLevel/../HighLevel/../LowLevel/Endpoint.h **** 			 *
 921:../LUFA/Drivers/USB/LowLevel/../HighLevel/../LowLevel/Endpoint.h **** 			 *  \note This routine should not be used on CONTROL type endpoints.
 922:../LUFA/Drivers/USB/LowLevel/../HighLevel/../LowLevel/Endpoint.h **** 			 *
 923:../LUFA/Drivers/USB/LowLevel/../HighLevel/../LowLevel/Endpoint.h **** 			 *  \ingroup Group_EndpointStreamRW
 924:../LUFA/Drivers/USB/LowLevel/../HighLevel/../LowLevel/Endpoint.h **** 			 *
 925:../LUFA/Drivers/USB/LowLevel/../HighLevel/../LowLevel/Endpoint.h **** 			 *  \param[in] Buffer    Pointer to the source data buffer to read from.
 926:../LUFA/Drivers/USB/LowLevel/../HighLevel/../LowLevel/Endpoint.h **** 			 *  \param[in] Length    Number of bytes to read for the currently selected endpoint into the bu
 927:../LUFA/Drivers/USB/LowLevel/../HighLevel/../LowLevel/Endpoint.h **** 			 *  \param[in] Callback  Name of a callback routine to call between successive USB packet transf
 928:../LUFA/Drivers/USB/LowLevel/../HighLevel/../LowLevel/Endpoint.h **** 			 *
 929:../LUFA/Drivers/USB/LowLevel/../HighLevel/../LowLevel/Endpoint.h **** 			 *  \return A value from the \ref Endpoint_Stream_RW_ErrorCodes_t enum.
 930:../LUFA/Drivers/USB/LowLevel/../HighLevel/../LowLevel/Endpoint.h **** 			 */
 931:../LUFA/Drivers/USB/LowLevel/../HighLevel/../LowLevel/Endpoint.h **** 			uint8_t Endpoint_Write_Stream_BE(const void* Buffer,
 932:../LUFA/Drivers/USB/LowLevel/../HighLevel/../LowLevel/Endpoint.h **** 			                                 uint16_t Length
 933:../LUFA/Drivers/USB/LowLevel/../HighLevel/../LowLevel/Endpoint.h **** 			                                 __CALLBACK_PARAM) ATTR_NON_NULL_PTR_ARG(1);
 934:../LUFA/Drivers/USB/LowLevel/../HighLevel/../LowLevel/Endpoint.h **** 
 935:../LUFA/Drivers/USB/LowLevel/../HighLevel/../LowLevel/Endpoint.h **** 			/** EEPROM buffer source version of \ref Endpoint_Write_Stream_BE().
 936:../LUFA/Drivers/USB/LowLevel/../HighLevel/../LowLevel/Endpoint.h **** 			 *
 937:../LUFA/Drivers/USB/LowLevel/../HighLevel/../LowLevel/Endpoint.h **** 			 *  \ingroup Group_EndpointStreamRW
 938:../LUFA/Drivers/USB/LowLevel/../HighLevel/../LowLevel/Endpoint.h **** 			 *
 939:../LUFA/Drivers/USB/LowLevel/../HighLevel/../LowLevel/Endpoint.h **** 			 *  \param[in] Buffer    Pointer to the source data buffer to read from.
 940:../LUFA/Drivers/USB/LowLevel/../HighLevel/../LowLevel/Endpoint.h **** 			 *  \param[in] Length    Number of bytes to read for the currently selected endpoint into the bu
 941:../LUFA/Drivers/USB/LowLevel/../HighLevel/../LowLevel/Endpoint.h **** 			 *  \param[in] Callback  Name of a callback routine to call between successive USB packet transf
 942:../LUFA/Drivers/USB/LowLevel/../HighLevel/../LowLevel/Endpoint.h **** 			 *
 943:../LUFA/Drivers/USB/LowLevel/../HighLevel/../LowLevel/Endpoint.h **** 			 *  \return A value from the \ref Endpoint_Stream_RW_ErrorCodes_t enum.
 944:../LUFA/Drivers/USB/LowLevel/../HighLevel/../LowLevel/Endpoint.h **** 			 */
 945:../LUFA/Drivers/USB/LowLevel/../HighLevel/../LowLevel/Endpoint.h **** 			uint8_t Endpoint_Write_EStream_BE(const void* Buffer,
 946:../LUFA/Drivers/USB/LowLevel/../HighLevel/../LowLevel/Endpoint.h **** 			                                  uint16_t Length
 947:../LUFA/Drivers/USB/LowLevel/../HighLevel/../LowLevel/Endpoint.h **** 			                                  __CALLBACK_PARAM) ATTR_NON_NULL_PTR_ARG(1);
 948:../LUFA/Drivers/USB/LowLevel/../HighLevel/../LowLevel/Endpoint.h **** 
 949:../LUFA/Drivers/USB/LowLevel/../HighLevel/../LowLevel/Endpoint.h **** 			/** FLASH buffer source version of \ref Endpoint_Write_Stream_BE().
 950:../LUFA/Drivers/USB/LowLevel/../HighLevel/../LowLevel/Endpoint.h **** 			 *
 951:../LUFA/Drivers/USB/LowLevel/../HighLevel/../LowLevel/Endpoint.h **** 			 *  \pre The FLASH data must be located in the first 64KB of FLASH for this function to work cor
 952:../LUFA/Drivers/USB/LowLevel/../HighLevel/../LowLevel/Endpoint.h **** 			 *
 953:../LUFA/Drivers/USB/LowLevel/../HighLevel/../LowLevel/Endpoint.h **** 			 *  \ingroup Group_EndpointStreamRW
 954:../LUFA/Drivers/USB/LowLevel/../HighLevel/../LowLevel/Endpoint.h **** 			 *
 955:../LUFA/Drivers/USB/LowLevel/../HighLevel/../LowLevel/Endpoint.h **** 			 *  \param[in] Buffer    Pointer to the source data buffer to read from.
 956:../LUFA/Drivers/USB/LowLevel/../HighLevel/../LowLevel/Endpoint.h **** 			 *  \param[in] Length    Number of bytes to read for the currently selected endpoint into the bu
 957:../LUFA/Drivers/USB/LowLevel/../HighLevel/../LowLevel/Endpoint.h **** 			 *  \param[in] Callback  Name of a callback routine to call between successive USB packet transf
 958:../LUFA/Drivers/USB/LowLevel/../HighLevel/../LowLevel/Endpoint.h **** 			 *
 959:../LUFA/Drivers/USB/LowLevel/../HighLevel/../LowLevel/Endpoint.h **** 			 *  \return A value from the \ref Endpoint_Stream_RW_ErrorCodes_t enum.
 960:../LUFA/Drivers/USB/LowLevel/../HighLevel/../LowLevel/Endpoint.h **** 			 */
 961:../LUFA/Drivers/USB/LowLevel/../HighLevel/../LowLevel/Endpoint.h **** 			uint8_t Endpoint_Write_PStream_BE(const void* Buffer,
 962:../LUFA/Drivers/USB/LowLevel/../HighLevel/../LowLevel/Endpoint.h **** 			                                  uint16_t Length
 963:../LUFA/Drivers/USB/LowLevel/../HighLevel/../LowLevel/Endpoint.h **** 			                                  __CALLBACK_PARAM) ATTR_NON_NULL_PTR_ARG(1);
 964:../LUFA/Drivers/USB/LowLevel/../HighLevel/../LowLevel/Endpoint.h **** 
 965:../LUFA/Drivers/USB/LowLevel/../HighLevel/../LowLevel/Endpoint.h **** 			/** Reads the given number of bytes from the endpoint from the given buffer in little endian,
 966:../LUFA/Drivers/USB/LowLevel/../HighLevel/../LowLevel/Endpoint.h **** 			 *  discarding fully read packets from the host as needed. The last packet is not automatically
 967:../LUFA/Drivers/USB/LowLevel/../HighLevel/../LowLevel/Endpoint.h **** 			 *  discarded once the remaining bytes has been read; the user is responsible for manually
 968:../LUFA/Drivers/USB/LowLevel/../HighLevel/../LowLevel/Endpoint.h **** 			 *  discarding the last packet from the host via the \ref Endpoint_ClearOUT() macro. Between
 969:../LUFA/Drivers/USB/LowLevel/../HighLevel/../LowLevel/Endpoint.h **** 			 *  each USB packet, the given stream callback function is executed repeatedly until the endpoin
 970:../LUFA/Drivers/USB/LowLevel/../HighLevel/../LowLevel/Endpoint.h **** 			 *  is ready to accept the next packet, allowing for early aborts of stream transfers.
 971:../LUFA/Drivers/USB/LowLevel/../HighLevel/../LowLevel/Endpoint.h **** 			 *
 972:../LUFA/Drivers/USB/LowLevel/../HighLevel/../LowLevel/Endpoint.h **** 			 *	The callback routine should be created according to the information in \ref Group_StreamCallb
 973:../LUFA/Drivers/USB/LowLevel/../HighLevel/../LowLevel/Endpoint.h **** 			 *  If the token NO_STREAM_CALLBACKS is passed via the -D option to the compiler, stream callbac
 974:../LUFA/Drivers/USB/LowLevel/../HighLevel/../LowLevel/Endpoint.h **** 			 *  disabled and this function has the Callback parameter omitted.
 975:../LUFA/Drivers/USB/LowLevel/../HighLevel/../LowLevel/Endpoint.h **** 			 *
 976:../LUFA/Drivers/USB/LowLevel/../HighLevel/../LowLevel/Endpoint.h **** 			 *  \note This routine should not be used on CONTROL type endpoints.
 977:../LUFA/Drivers/USB/LowLevel/../HighLevel/../LowLevel/Endpoint.h **** 			 *
 978:../LUFA/Drivers/USB/LowLevel/../HighLevel/../LowLevel/Endpoint.h **** 			 *  \ingroup Group_EndpointStreamRW
 979:../LUFA/Drivers/USB/LowLevel/../HighLevel/../LowLevel/Endpoint.h **** 			 *
 980:../LUFA/Drivers/USB/LowLevel/../HighLevel/../LowLevel/Endpoint.h **** 			 *  \param[out] Buffer    Pointer to the destination data buffer to write to.
 981:../LUFA/Drivers/USB/LowLevel/../HighLevel/../LowLevel/Endpoint.h **** 			 *  \param[in]  Length    Number of bytes to send via the currently selected endpoint.
 982:../LUFA/Drivers/USB/LowLevel/../HighLevel/../LowLevel/Endpoint.h **** 			 *  \param[in]  Callback  Name of a callback routine to call between successive USB packet trans
 983:../LUFA/Drivers/USB/LowLevel/../HighLevel/../LowLevel/Endpoint.h **** 			 *
 984:../LUFA/Drivers/USB/LowLevel/../HighLevel/../LowLevel/Endpoint.h **** 			 *  \return A value from the \ref Endpoint_Stream_RW_ErrorCodes_t enum.
 985:../LUFA/Drivers/USB/LowLevel/../HighLevel/../LowLevel/Endpoint.h **** 			 */
 986:../LUFA/Drivers/USB/LowLevel/../HighLevel/../LowLevel/Endpoint.h **** 			uint8_t Endpoint_Read_Stream_LE(void* Buffer,
 987:../LUFA/Drivers/USB/LowLevel/../HighLevel/../LowLevel/Endpoint.h **** 			                                uint16_t Length
 988:../LUFA/Drivers/USB/LowLevel/../HighLevel/../LowLevel/Endpoint.h **** 			                                __CALLBACK_PARAM) ATTR_NON_NULL_PTR_ARG(1);
 989:../LUFA/Drivers/USB/LowLevel/../HighLevel/../LowLevel/Endpoint.h **** 
 990:../LUFA/Drivers/USB/LowLevel/../HighLevel/../LowLevel/Endpoint.h **** 			/** EEPROM buffer source version of \ref Endpoint_Read_Stream_LE().
 991:../LUFA/Drivers/USB/LowLevel/../HighLevel/../LowLevel/Endpoint.h **** 			 *
 992:../LUFA/Drivers/USB/LowLevel/../HighLevel/../LowLevel/Endpoint.h **** 			 *  \ingroup Group_EndpointStreamRW
 993:../LUFA/Drivers/USB/LowLevel/../HighLevel/../LowLevel/Endpoint.h **** 			 *
 994:../LUFA/Drivers/USB/LowLevel/../HighLevel/../LowLevel/Endpoint.h **** 			 *  \param[out] Buffer    Pointer to the destination data buffer to write to, located in EEPROM 
 995:../LUFA/Drivers/USB/LowLevel/../HighLevel/../LowLevel/Endpoint.h **** 			 *  \param[in]  Length    Number of bytes to send via the currently selected endpoint.
 996:../LUFA/Drivers/USB/LowLevel/../HighLevel/../LowLevel/Endpoint.h **** 			 *  \param[in]  Callback  Name of a callback routine to call between successive USB packet trans
 997:../LUFA/Drivers/USB/LowLevel/../HighLevel/../LowLevel/Endpoint.h **** 			 *
 998:../LUFA/Drivers/USB/LowLevel/../HighLevel/../LowLevel/Endpoint.h **** 			 *  \return A value from the \ref Endpoint_Stream_RW_ErrorCodes_t enum.
 999:../LUFA/Drivers/USB/LowLevel/../HighLevel/../LowLevel/Endpoint.h **** 			 */
1000:../LUFA/Drivers/USB/LowLevel/../HighLevel/../LowLevel/Endpoint.h **** 			uint8_t Endpoint_Read_EStream_LE(void* Buffer,
1001:../LUFA/Drivers/USB/LowLevel/../HighLevel/../LowLevel/Endpoint.h **** 			                                 uint16_t Length
1002:../LUFA/Drivers/USB/LowLevel/../HighLevel/../LowLevel/Endpoint.h **** 			                                 __CALLBACK_PARAM) ATTR_NON_NULL_PTR_ARG(1);
1003:../LUFA/Drivers/USB/LowLevel/../HighLevel/../LowLevel/Endpoint.h **** 			
1004:../LUFA/Drivers/USB/LowLevel/../HighLevel/../LowLevel/Endpoint.h **** 			/** Reads the given number of bytes from the endpoint from the given buffer in big endian,
1005:../LUFA/Drivers/USB/LowLevel/../HighLevel/../LowLevel/Endpoint.h **** 			 *  discarding fully read packets from the host as needed. The last packet is not automatically
1006:../LUFA/Drivers/USB/LowLevel/../HighLevel/../LowLevel/Endpoint.h **** 			 *  discarded once the remaining bytes has been read; the user is responsible for manually
1007:../LUFA/Drivers/USB/LowLevel/../HighLevel/../LowLevel/Endpoint.h **** 			 *  discarding the last packet from the host via the \ref Endpoint_ClearOUT() macro. Between
1008:../LUFA/Drivers/USB/LowLevel/../HighLevel/../LowLevel/Endpoint.h **** 			 *  each USB packet, the given stream callback function is executed repeatedly until the endpoin
1009:../LUFA/Drivers/USB/LowLevel/../HighLevel/../LowLevel/Endpoint.h **** 			 *  is ready to accept the next packet, allowing for early aborts of stream transfers.
1010:../LUFA/Drivers/USB/LowLevel/../HighLevel/../LowLevel/Endpoint.h **** 			 *
1011:../LUFA/Drivers/USB/LowLevel/../HighLevel/../LowLevel/Endpoint.h **** 			 *	The callback routine should be created according to the information in \ref Group_StreamCallb
1012:../LUFA/Drivers/USB/LowLevel/../HighLevel/../LowLevel/Endpoint.h **** 			 *  If the token NO_STREAM_CALLBACKS is passed via the -D option to the compiler, stream callbac
1013:../LUFA/Drivers/USB/LowLevel/../HighLevel/../LowLevel/Endpoint.h **** 			 *  disabled and this function has the Callback parameter omitted.
1014:../LUFA/Drivers/USB/LowLevel/../HighLevel/../LowLevel/Endpoint.h **** 			 *
1015:../LUFA/Drivers/USB/LowLevel/../HighLevel/../LowLevel/Endpoint.h **** 			 *  \note This routine should not be used on CONTROL type endpoints.
1016:../LUFA/Drivers/USB/LowLevel/../HighLevel/../LowLevel/Endpoint.h **** 			 *
1017:../LUFA/Drivers/USB/LowLevel/../HighLevel/../LowLevel/Endpoint.h **** 			 *  \ingroup Group_EndpointStreamRW
1018:../LUFA/Drivers/USB/LowLevel/../HighLevel/../LowLevel/Endpoint.h **** 			 *
1019:../LUFA/Drivers/USB/LowLevel/../HighLevel/../LowLevel/Endpoint.h **** 			 *  \param[out] Buffer    Pointer to the destination data buffer to write to.
1020:../LUFA/Drivers/USB/LowLevel/../HighLevel/../LowLevel/Endpoint.h **** 			 *  \param[in]  Length    Number of bytes to send via the currently selected endpoint.
1021:../LUFA/Drivers/USB/LowLevel/../HighLevel/../LowLevel/Endpoint.h **** 			 *  \param[in]  Callback  Name of a callback routine to call between successive USB packet trans
1022:../LUFA/Drivers/USB/LowLevel/../HighLevel/../LowLevel/Endpoint.h **** 			 *
1023:../LUFA/Drivers/USB/LowLevel/../HighLevel/../LowLevel/Endpoint.h **** 			 *  \return A value from the \ref Endpoint_Stream_RW_ErrorCodes_t enum.
1024:../LUFA/Drivers/USB/LowLevel/../HighLevel/../LowLevel/Endpoint.h **** 			 */
1025:../LUFA/Drivers/USB/LowLevel/../HighLevel/../LowLevel/Endpoint.h **** 			uint8_t Endpoint_Read_Stream_BE(void* Buffer,
1026:../LUFA/Drivers/USB/LowLevel/../HighLevel/../LowLevel/Endpoint.h **** 			                                uint16_t Length
1027:../LUFA/Drivers/USB/LowLevel/../HighLevel/../LowLevel/Endpoint.h **** 			                                __CALLBACK_PARAM) ATTR_NON_NULL_PTR_ARG(1);
1028:../LUFA/Drivers/USB/LowLevel/../HighLevel/../LowLevel/Endpoint.h **** 
1029:../LUFA/Drivers/USB/LowLevel/../HighLevel/../LowLevel/Endpoint.h **** 			/** EEPROM buffer source version of \ref Endpoint_Read_Stream_BE().
1030:../LUFA/Drivers/USB/LowLevel/../HighLevel/../LowLevel/Endpoint.h **** 			 *
1031:../LUFA/Drivers/USB/LowLevel/../HighLevel/../LowLevel/Endpoint.h **** 			 *  \ingroup Group_EndpointStreamRW
1032:../LUFA/Drivers/USB/LowLevel/../HighLevel/../LowLevel/Endpoint.h **** 			 *
1033:../LUFA/Drivers/USB/LowLevel/../HighLevel/../LowLevel/Endpoint.h **** 			 *  \param[out] Buffer    Pointer to the destination data buffer to write to, located in EEPROM 
1034:../LUFA/Drivers/USB/LowLevel/../HighLevel/../LowLevel/Endpoint.h **** 			 *  \param[in]  Length    Number of bytes to send via the currently selected endpoint.
1035:../LUFA/Drivers/USB/LowLevel/../HighLevel/../LowLevel/Endpoint.h **** 			 *  \param[in]  Callback  Name of a callback routine to call between successive USB packet trans
1036:../LUFA/Drivers/USB/LowLevel/../HighLevel/../LowLevel/Endpoint.h **** 			 *
1037:../LUFA/Drivers/USB/LowLevel/../HighLevel/../LowLevel/Endpoint.h **** 			 *  \return A value from the \ref Endpoint_Stream_RW_ErrorCodes_t enum.
1038:../LUFA/Drivers/USB/LowLevel/../HighLevel/../LowLevel/Endpoint.h **** 			 */
1039:../LUFA/Drivers/USB/LowLevel/../HighLevel/../LowLevel/Endpoint.h **** 			uint8_t Endpoint_Read_EStream_BE(void* Buffer,
1040:../LUFA/Drivers/USB/LowLevel/../HighLevel/../LowLevel/Endpoint.h **** 			                                 uint16_t Length
1041:../LUFA/Drivers/USB/LowLevel/../HighLevel/../LowLevel/Endpoint.h **** 			                                 __CALLBACK_PARAM) ATTR_NON_NULL_PTR_ARG(1);
1042:../LUFA/Drivers/USB/LowLevel/../HighLevel/../LowLevel/Endpoint.h **** 
1043:../LUFA/Drivers/USB/LowLevel/../HighLevel/../LowLevel/Endpoint.h **** 			/** Writes the given number of bytes to the CONTROL type endpoint from the given buffer in littl
1044:../LUFA/Drivers/USB/LowLevel/../HighLevel/../LowLevel/Endpoint.h **** 			 *  sending full packets to the host as needed. The host OUT acknowledgement is not automaticall
1045:../LUFA/Drivers/USB/LowLevel/../HighLevel/../LowLevel/Endpoint.h **** 			 *  in both failure and success states; the user is responsible for manually clearing the setup 
1046:../LUFA/Drivers/USB/LowLevel/../HighLevel/../LowLevel/Endpoint.h **** 			 *  finalize the transfer via the \ref Endpoint_ClearOUT() macro.
1047:../LUFA/Drivers/USB/LowLevel/../HighLevel/../LowLevel/Endpoint.h **** 			 *
1048:../LUFA/Drivers/USB/LowLevel/../HighLevel/../LowLevel/Endpoint.h **** 			 *  \note This function automatically clears the control transfer's status stage. Do not manuall
1049:../LUFA/Drivers/USB/LowLevel/../HighLevel/../LowLevel/Endpoint.h **** 			 *        to clear the status stage when using this routine in a control transaction.
1050:../LUFA/Drivers/USB/LowLevel/../HighLevel/../LowLevel/Endpoint.h **** 			 *        \n\n
1051:../LUFA/Drivers/USB/LowLevel/../HighLevel/../LowLevel/Endpoint.h **** 			 *
1052:../LUFA/Drivers/USB/LowLevel/../HighLevel/../LowLevel/Endpoint.h **** 			 *  \note This routine should only be used on CONTROL type endpoints.
1053:../LUFA/Drivers/USB/LowLevel/../HighLevel/../LowLevel/Endpoint.h **** 			 *
1054:../LUFA/Drivers/USB/LowLevel/../HighLevel/../LowLevel/Endpoint.h **** 			 *  \warning Unlike the standard stream read/write commands, the control stream commands cannot 
1055:../LUFA/Drivers/USB/LowLevel/../HighLevel/../LowLevel/Endpoint.h **** 			 *           together; i.e. the entire stream data must be read or written at the one time.
1056:../LUFA/Drivers/USB/LowLevel/../HighLevel/../LowLevel/Endpoint.h **** 			 *
1057:../LUFA/Drivers/USB/LowLevel/../HighLevel/../LowLevel/Endpoint.h **** 			 *  \ingroup Group_EndpointStreamRW
1058:../LUFA/Drivers/USB/LowLevel/../HighLevel/../LowLevel/Endpoint.h **** 			 *
1059:../LUFA/Drivers/USB/LowLevel/../HighLevel/../LowLevel/Endpoint.h **** 			 *  \param[in] Buffer  Pointer to the source data buffer to read from.
1060:../LUFA/Drivers/USB/LowLevel/../HighLevel/../LowLevel/Endpoint.h **** 			 *  \param[in] Length  Number of bytes to read for the currently selected endpoint into the buff
1061:../LUFA/Drivers/USB/LowLevel/../HighLevel/../LowLevel/Endpoint.h **** 			 *
1062:../LUFA/Drivers/USB/LowLevel/../HighLevel/../LowLevel/Endpoint.h **** 			 *  \return A value from the \ref Endpoint_ControlStream_RW_ErrorCodes_t enum.
1063:../LUFA/Drivers/USB/LowLevel/../HighLevel/../LowLevel/Endpoint.h **** 			 */
1064:../LUFA/Drivers/USB/LowLevel/../HighLevel/../LowLevel/Endpoint.h **** 			uint8_t Endpoint_Write_Control_Stream_LE(const void* Buffer,
1065:../LUFA/Drivers/USB/LowLevel/../HighLevel/../LowLevel/Endpoint.h **** 			                                         uint16_t Length) ATTR_NON_NULL_PTR_ARG(1);
1066:../LUFA/Drivers/USB/LowLevel/../HighLevel/../LowLevel/Endpoint.h **** 
1067:../LUFA/Drivers/USB/LowLevel/../HighLevel/../LowLevel/Endpoint.h **** 			/** EEPROM buffer source version of Endpoint_Write_Control_Stream_LE.
1068:../LUFA/Drivers/USB/LowLevel/../HighLevel/../LowLevel/Endpoint.h **** 			 *
1069:../LUFA/Drivers/USB/LowLevel/../HighLevel/../LowLevel/Endpoint.h **** 			 *  \note This function automatically clears the control transfer's status stage. Do not manuall
1070:../LUFA/Drivers/USB/LowLevel/../HighLevel/../LowLevel/Endpoint.h **** 			 *        to clear the status stage when using this routine in a control transaction.
1071:../LUFA/Drivers/USB/LowLevel/../HighLevel/../LowLevel/Endpoint.h **** 			 *        \n\n
1072:../LUFA/Drivers/USB/LowLevel/../HighLevel/../LowLevel/Endpoint.h **** 			 *
1073:../LUFA/Drivers/USB/LowLevel/../HighLevel/../LowLevel/Endpoint.h **** 			 *  \note This routine should only be used on CONTROL type endpoints.
1074:../LUFA/Drivers/USB/LowLevel/../HighLevel/../LowLevel/Endpoint.h **** 			 *
1075:../LUFA/Drivers/USB/LowLevel/../HighLevel/../LowLevel/Endpoint.h **** 			 *  \warning Unlike the standard stream read/write commands, the control stream commands cannot 
1076:../LUFA/Drivers/USB/LowLevel/../HighLevel/../LowLevel/Endpoint.h **** 			 *           together; i.e. the entire stream data must be read or written at the one time.
1077:../LUFA/Drivers/USB/LowLevel/../HighLevel/../LowLevel/Endpoint.h **** 			 *
1078:../LUFA/Drivers/USB/LowLevel/../HighLevel/../LowLevel/Endpoint.h **** 			 *  \ingroup Group_EndpointStreamRW
1079:../LUFA/Drivers/USB/LowLevel/../HighLevel/../LowLevel/Endpoint.h **** 			 *
1080:../LUFA/Drivers/USB/LowLevel/../HighLevel/../LowLevel/Endpoint.h **** 			 *  \param[in] Buffer  Pointer to the source data buffer to read from.
1081:../LUFA/Drivers/USB/LowLevel/../HighLevel/../LowLevel/Endpoint.h **** 			 *  \param[in] Length  Number of bytes to read for the currently selected endpoint into the buff
1082:../LUFA/Drivers/USB/LowLevel/../HighLevel/../LowLevel/Endpoint.h **** 			 *
1083:../LUFA/Drivers/USB/LowLevel/../HighLevel/../LowLevel/Endpoint.h **** 			 *  \return A value from the \ref Endpoint_ControlStream_RW_ErrorCodes_t enum.
1084:../LUFA/Drivers/USB/LowLevel/../HighLevel/../LowLevel/Endpoint.h **** 			 */
1085:../LUFA/Drivers/USB/LowLevel/../HighLevel/../LowLevel/Endpoint.h **** 			uint8_t Endpoint_Write_Control_EStream_LE(const void* Buffer,
1086:../LUFA/Drivers/USB/LowLevel/../HighLevel/../LowLevel/Endpoint.h **** 			                                          uint16_t Length) ATTR_NON_NULL_PTR_ARG(1);
1087:../LUFA/Drivers/USB/LowLevel/../HighLevel/../LowLevel/Endpoint.h **** 
1088:../LUFA/Drivers/USB/LowLevel/../HighLevel/../LowLevel/Endpoint.h **** 			/** FLASH buffer source version of \ref Endpoint_Write_Control_Stream_LE().
1089:../LUFA/Drivers/USB/LowLevel/../HighLevel/../LowLevel/Endpoint.h **** 			 *
1090:../LUFA/Drivers/USB/LowLevel/../HighLevel/../LowLevel/Endpoint.h **** 			 *  \pre The FLASH data must be located in the first 64KB of FLASH for this function to work cor
1091:../LUFA/Drivers/USB/LowLevel/../HighLevel/../LowLevel/Endpoint.h **** 			 *
1092:../LUFA/Drivers/USB/LowLevel/../HighLevel/../LowLevel/Endpoint.h **** 			 *  \note This function automatically clears the control transfer's status stage. Do not manuall
1093:../LUFA/Drivers/USB/LowLevel/../HighLevel/../LowLevel/Endpoint.h **** 			 *        to clear the status stage when using this routine in a control transaction.
1094:../LUFA/Drivers/USB/LowLevel/../HighLevel/../LowLevel/Endpoint.h **** 			 *        \n\n
1095:../LUFA/Drivers/USB/LowLevel/../HighLevel/../LowLevel/Endpoint.h **** 			 *
1096:../LUFA/Drivers/USB/LowLevel/../HighLevel/../LowLevel/Endpoint.h **** 			 *  \note This routine should only be used on CONTROL type endpoints.
1097:../LUFA/Drivers/USB/LowLevel/../HighLevel/../LowLevel/Endpoint.h **** 			 *
1098:../LUFA/Drivers/USB/LowLevel/../HighLevel/../LowLevel/Endpoint.h **** 			 *  \warning Unlike the standard stream read/write commands, the control stream commands cannot 
1099:../LUFA/Drivers/USB/LowLevel/../HighLevel/../LowLevel/Endpoint.h **** 			 *           together; i.e. the entire stream data must be read or written at the one time.
1100:../LUFA/Drivers/USB/LowLevel/../HighLevel/../LowLevel/Endpoint.h **** 			 *
1101:../LUFA/Drivers/USB/LowLevel/../HighLevel/../LowLevel/Endpoint.h **** 			 *  \ingroup Group_EndpointStreamRW
1102:../LUFA/Drivers/USB/LowLevel/../HighLevel/../LowLevel/Endpoint.h **** 			 *
1103:../LUFA/Drivers/USB/LowLevel/../HighLevel/../LowLevel/Endpoint.h **** 			 *  \param[in] Buffer  Pointer to the source data buffer to read from.
1104:../LUFA/Drivers/USB/LowLevel/../HighLevel/../LowLevel/Endpoint.h **** 			 *  \param[in] Length  Number of bytes to read for the currently selected endpoint into the buff
1105:../LUFA/Drivers/USB/LowLevel/../HighLevel/../LowLevel/Endpoint.h **** 			 *
1106:../LUFA/Drivers/USB/LowLevel/../HighLevel/../LowLevel/Endpoint.h **** 			 *  \return A value from the \ref Endpoint_ControlStream_RW_ErrorCodes_t enum.
1107:../LUFA/Drivers/USB/LowLevel/../HighLevel/../LowLevel/Endpoint.h **** 			 */
1108:../LUFA/Drivers/USB/LowLevel/../HighLevel/../LowLevel/Endpoint.h **** 			uint8_t Endpoint_Write_Control_PStream_LE(const void* Buffer,
1109:../LUFA/Drivers/USB/LowLevel/../HighLevel/../LowLevel/Endpoint.h **** 			                                          uint16_t Length) ATTR_NON_NULL_PTR_ARG(1);
1110:../LUFA/Drivers/USB/LowLevel/../HighLevel/../LowLevel/Endpoint.h **** 
1111:../LUFA/Drivers/USB/LowLevel/../HighLevel/../LowLevel/Endpoint.h **** 			/** Writes the given number of bytes to the CONTROL type endpoint from the given buffer in big e
1112:../LUFA/Drivers/USB/LowLevel/../HighLevel/../LowLevel/Endpoint.h **** 			 *  sending full packets to the host as needed. The host OUT acknowledgement is not automaticall
1113:../LUFA/Drivers/USB/LowLevel/../HighLevel/../LowLevel/Endpoint.h **** 			 *  in both failure and success states; the user is responsible for manually clearing the setup 
1114:../LUFA/Drivers/USB/LowLevel/../HighLevel/../LowLevel/Endpoint.h **** 			 *  finalize the transfer via the \ref Endpoint_ClearOUT() macro.
1115:../LUFA/Drivers/USB/LowLevel/../HighLevel/../LowLevel/Endpoint.h **** 			 *
1116:../LUFA/Drivers/USB/LowLevel/../HighLevel/../LowLevel/Endpoint.h **** 			 *  \note This function automatically clears the control transfer's status stage. Do not manuall
1117:../LUFA/Drivers/USB/LowLevel/../HighLevel/../LowLevel/Endpoint.h **** 			 *        to clear the status stage when using this routine in a control transaction.
1118:../LUFA/Drivers/USB/LowLevel/../HighLevel/../LowLevel/Endpoint.h **** 			 *        \n\n
1119:../LUFA/Drivers/USB/LowLevel/../HighLevel/../LowLevel/Endpoint.h **** 			 *
1120:../LUFA/Drivers/USB/LowLevel/../HighLevel/../LowLevel/Endpoint.h **** 			 *  \note This routine should only be used on CONTROL type endpoints.
1121:../LUFA/Drivers/USB/LowLevel/../HighLevel/../LowLevel/Endpoint.h **** 			 *
1122:../LUFA/Drivers/USB/LowLevel/../HighLevel/../LowLevel/Endpoint.h **** 			 *  \warning Unlike the standard stream read/write commands, the control stream commands cannot 
1123:../LUFA/Drivers/USB/LowLevel/../HighLevel/../LowLevel/Endpoint.h **** 			 *           together; i.e. the entire stream data must be read or written at the one time.
1124:../LUFA/Drivers/USB/LowLevel/../HighLevel/../LowLevel/Endpoint.h **** 			 *
1125:../LUFA/Drivers/USB/LowLevel/../HighLevel/../LowLevel/Endpoint.h **** 			 *  \ingroup Group_EndpointStreamRW
1126:../LUFA/Drivers/USB/LowLevel/../HighLevel/../LowLevel/Endpoint.h **** 			 *
1127:../LUFA/Drivers/USB/LowLevel/../HighLevel/../LowLevel/Endpoint.h **** 			 *  \param[in] Buffer  Pointer to the source data buffer to read from.
1128:../LUFA/Drivers/USB/LowLevel/../HighLevel/../LowLevel/Endpoint.h **** 			 *  \param[in] Length  Number of bytes to read for the currently selected endpoint into the buff
1129:../LUFA/Drivers/USB/LowLevel/../HighLevel/../LowLevel/Endpoint.h **** 			 *
1130:../LUFA/Drivers/USB/LowLevel/../HighLevel/../LowLevel/Endpoint.h **** 			 *  \return A value from the \ref Endpoint_ControlStream_RW_ErrorCodes_t enum.
1131:../LUFA/Drivers/USB/LowLevel/../HighLevel/../LowLevel/Endpoint.h **** 			 */
1132:../LUFA/Drivers/USB/LowLevel/../HighLevel/../LowLevel/Endpoint.h **** 			uint8_t Endpoint_Write_Control_Stream_BE(const void* Buffer,
1133:../LUFA/Drivers/USB/LowLevel/../HighLevel/../LowLevel/Endpoint.h **** 			                                         uint16_t Length) ATTR_NON_NULL_PTR_ARG(1);
1134:../LUFA/Drivers/USB/LowLevel/../HighLevel/../LowLevel/Endpoint.h **** 
1135:../LUFA/Drivers/USB/LowLevel/../HighLevel/../LowLevel/Endpoint.h **** 			/** EEPROM buffer source version of \ref Endpoint_Write_Control_Stream_BE().
1136:../LUFA/Drivers/USB/LowLevel/../HighLevel/../LowLevel/Endpoint.h **** 			 *
1137:../LUFA/Drivers/USB/LowLevel/../HighLevel/../LowLevel/Endpoint.h **** 			 *  \note This function automatically clears the control transfer's status stage. Do not manuall
1138:../LUFA/Drivers/USB/LowLevel/../HighLevel/../LowLevel/Endpoint.h **** 			 *        to clear the status stage when using this routine in a control transaction.
1139:../LUFA/Drivers/USB/LowLevel/../HighLevel/../LowLevel/Endpoint.h **** 			 *        \n\n
1140:../LUFA/Drivers/USB/LowLevel/../HighLevel/../LowLevel/Endpoint.h **** 			 *
1141:../LUFA/Drivers/USB/LowLevel/../HighLevel/../LowLevel/Endpoint.h **** 			 *  \note This routine should only be used on CONTROL type endpoints.
1142:../LUFA/Drivers/USB/LowLevel/../HighLevel/../LowLevel/Endpoint.h **** 			 *
1143:../LUFA/Drivers/USB/LowLevel/../HighLevel/../LowLevel/Endpoint.h **** 			 *  \warning Unlike the standard stream read/write commands, the control stream commands cannot 
1144:../LUFA/Drivers/USB/LowLevel/../HighLevel/../LowLevel/Endpoint.h **** 			 *           together; i.e. the entire stream data must be read or written at the one time.
1145:../LUFA/Drivers/USB/LowLevel/../HighLevel/../LowLevel/Endpoint.h **** 			 *
1146:../LUFA/Drivers/USB/LowLevel/../HighLevel/../LowLevel/Endpoint.h **** 			 *  \ingroup Group_EndpointStreamRW
1147:../LUFA/Drivers/USB/LowLevel/../HighLevel/../LowLevel/Endpoint.h **** 			 *
1148:../LUFA/Drivers/USB/LowLevel/../HighLevel/../LowLevel/Endpoint.h **** 			 *  \param[in] Buffer  Pointer to the source data buffer to read from.
1149:../LUFA/Drivers/USB/LowLevel/../HighLevel/../LowLevel/Endpoint.h **** 			 *  \param[in] Length  Number of bytes to read for the currently selected endpoint into the buff
1150:../LUFA/Drivers/USB/LowLevel/../HighLevel/../LowLevel/Endpoint.h **** 			 *
1151:../LUFA/Drivers/USB/LowLevel/../HighLevel/../LowLevel/Endpoint.h **** 			 *  \return A value from the \ref Endpoint_ControlStream_RW_ErrorCodes_t enum.
1152:../LUFA/Drivers/USB/LowLevel/../HighLevel/../LowLevel/Endpoint.h **** 			 */
1153:../LUFA/Drivers/USB/LowLevel/../HighLevel/../LowLevel/Endpoint.h **** 			uint8_t Endpoint_Write_Control_EStream_BE(const void* Buffer,
1154:../LUFA/Drivers/USB/LowLevel/../HighLevel/../LowLevel/Endpoint.h **** 			                                          uint16_t Length) ATTR_NON_NULL_PTR_ARG(1);
1155:../LUFA/Drivers/USB/LowLevel/../HighLevel/../LowLevel/Endpoint.h **** 
1156:../LUFA/Drivers/USB/LowLevel/../HighLevel/../LowLevel/Endpoint.h **** 			/** FLASH buffer source version of \ref Endpoint_Write_Control_Stream_BE().
1157:../LUFA/Drivers/USB/LowLevel/../HighLevel/../LowLevel/Endpoint.h **** 			 *
1158:../LUFA/Drivers/USB/LowLevel/../HighLevel/../LowLevel/Endpoint.h **** 			 *  \pre The FLASH data must be located in the first 64KB of FLASH for this function to work cor
1159:../LUFA/Drivers/USB/LowLevel/../HighLevel/../LowLevel/Endpoint.h **** 			 *
1160:../LUFA/Drivers/USB/LowLevel/../HighLevel/../LowLevel/Endpoint.h **** 			 *  \note This function automatically clears the control transfer's status stage. Do not manuall
1161:../LUFA/Drivers/USB/LowLevel/../HighLevel/../LowLevel/Endpoint.h **** 			 *        to clear the status stage when using this routine in a control transaction.
1162:../LUFA/Drivers/USB/LowLevel/../HighLevel/../LowLevel/Endpoint.h **** 			 *        \n\n
1163:../LUFA/Drivers/USB/LowLevel/../HighLevel/../LowLevel/Endpoint.h **** 			 *
1164:../LUFA/Drivers/USB/LowLevel/../HighLevel/../LowLevel/Endpoint.h **** 			 *  \note This routine should only be used on CONTROL type endpoints.
1165:../LUFA/Drivers/USB/LowLevel/../HighLevel/../LowLevel/Endpoint.h **** 			 *
1166:../LUFA/Drivers/USB/LowLevel/../HighLevel/../LowLevel/Endpoint.h **** 			 *  \warning Unlike the standard stream read/write commands, the control stream commands cannot 
1167:../LUFA/Drivers/USB/LowLevel/../HighLevel/../LowLevel/Endpoint.h **** 			 *           together; i.e. the entire stream data must be read or written at the one time.
1168:../LUFA/Drivers/USB/LowLevel/../HighLevel/../LowLevel/Endpoint.h **** 			 *
1169:../LUFA/Drivers/USB/LowLevel/../HighLevel/../LowLevel/Endpoint.h **** 			 *  \ingroup Group_EndpointStreamRW
1170:../LUFA/Drivers/USB/LowLevel/../HighLevel/../LowLevel/Endpoint.h **** 			 *
1171:../LUFA/Drivers/USB/LowLevel/../HighLevel/../LowLevel/Endpoint.h **** 			 *  \param[in] Buffer  Pointer to the source data buffer to read from.
1172:../LUFA/Drivers/USB/LowLevel/../HighLevel/../LowLevel/Endpoint.h **** 			 *  \param[in] Length  Number of bytes to read for the currently selected endpoint into the buff
1173:../LUFA/Drivers/USB/LowLevel/../HighLevel/../LowLevel/Endpoint.h **** 			 *
1174:../LUFA/Drivers/USB/LowLevel/../HighLevel/../LowLevel/Endpoint.h **** 			 *  \return A value from the \ref Endpoint_ControlStream_RW_ErrorCodes_t enum.
1175:../LUFA/Drivers/USB/LowLevel/../HighLevel/../LowLevel/Endpoint.h **** 			 */
1176:../LUFA/Drivers/USB/LowLevel/../HighLevel/../LowLevel/Endpoint.h **** 			uint8_t Endpoint_Write_Control_PStream_BE(const void* Buffer,
1177:../LUFA/Drivers/USB/LowLevel/../HighLevel/../LowLevel/Endpoint.h **** 			                                          uint16_t Length) ATTR_NON_NULL_PTR_ARG(1);
1178:../LUFA/Drivers/USB/LowLevel/../HighLevel/../LowLevel/Endpoint.h **** 
1179:../LUFA/Drivers/USB/LowLevel/../HighLevel/../LowLevel/Endpoint.h **** 			/** Reads the given number of bytes from the CONTROL endpoint from the given buffer in little en
1180:../LUFA/Drivers/USB/LowLevel/../HighLevel/../LowLevel/Endpoint.h **** 			 *  discarding fully read packets from the host as needed. The device IN acknowledgement is not
1181:../LUFA/Drivers/USB/LowLevel/../HighLevel/../LowLevel/Endpoint.h **** 			 *  automatically sent after success or failure states; the user is responsible for manually sen
1182:../LUFA/Drivers/USB/LowLevel/../HighLevel/../LowLevel/Endpoint.h **** 			 *  setup IN to finalize the transfer via the \ref Endpoint_ClearIN() macro.
1183:../LUFA/Drivers/USB/LowLevel/../HighLevel/../LowLevel/Endpoint.h **** 			 *
1184:../LUFA/Drivers/USB/LowLevel/../HighLevel/../LowLevel/Endpoint.h **** 			 *  \note This function automatically clears the control transfer's status stage. Do not manuall
1185:../LUFA/Drivers/USB/LowLevel/../HighLevel/../LowLevel/Endpoint.h **** 			 *        to clear the status stage when using this routine in a control transaction.
1186:../LUFA/Drivers/USB/LowLevel/../HighLevel/../LowLevel/Endpoint.h **** 			 *        \n\n
1187:../LUFA/Drivers/USB/LowLevel/../HighLevel/../LowLevel/Endpoint.h **** 			 *
1188:../LUFA/Drivers/USB/LowLevel/../HighLevel/../LowLevel/Endpoint.h **** 			 *  \note This routine should only be used on CONTROL type endpoints.
1189:../LUFA/Drivers/USB/LowLevel/../HighLevel/../LowLevel/Endpoint.h **** 			 *
1190:../LUFA/Drivers/USB/LowLevel/../HighLevel/../LowLevel/Endpoint.h **** 			 *  \warning Unlike the standard stream read/write commands, the control stream commands cannot 
1191:../LUFA/Drivers/USB/LowLevel/../HighLevel/../LowLevel/Endpoint.h **** 			 *           together; i.e. the entire stream data must be read or written at the one time.
1192:../LUFA/Drivers/USB/LowLevel/../HighLevel/../LowLevel/Endpoint.h **** 			 *
1193:../LUFA/Drivers/USB/LowLevel/../HighLevel/../LowLevel/Endpoint.h **** 			 *  \ingroup Group_EndpointStreamRW
1194:../LUFA/Drivers/USB/LowLevel/../HighLevel/../LowLevel/Endpoint.h **** 			 *
1195:../LUFA/Drivers/USB/LowLevel/../HighLevel/../LowLevel/Endpoint.h **** 			 *  \param[out] Buffer  Pointer to the destination data buffer to write to.
1196:../LUFA/Drivers/USB/LowLevel/../HighLevel/../LowLevel/Endpoint.h **** 			 *  \param[in]  Length  Number of bytes to send via the currently selected endpoint.
1197:../LUFA/Drivers/USB/LowLevel/../HighLevel/../LowLevel/Endpoint.h **** 			 *
1198:../LUFA/Drivers/USB/LowLevel/../HighLevel/../LowLevel/Endpoint.h **** 			 *  \return A value from the \ref Endpoint_ControlStream_RW_ErrorCodes_t enum.
1199:../LUFA/Drivers/USB/LowLevel/../HighLevel/../LowLevel/Endpoint.h **** 			 */
1200:../LUFA/Drivers/USB/LowLevel/../HighLevel/../LowLevel/Endpoint.h **** 			uint8_t Endpoint_Read_Control_Stream_LE(void* Buffer,
1201:../LUFA/Drivers/USB/LowLevel/../HighLevel/../LowLevel/Endpoint.h **** 			                                        uint16_t Length) ATTR_NON_NULL_PTR_ARG(1);
1202:../LUFA/Drivers/USB/LowLevel/../HighLevel/../LowLevel/Endpoint.h **** 
1203:../LUFA/Drivers/USB/LowLevel/../HighLevel/../LowLevel/Endpoint.h **** 			/** EEPROM buffer source version of \ref Endpoint_Read_Control_Stream_LE().
1204:../LUFA/Drivers/USB/LowLevel/../HighLevel/../LowLevel/Endpoint.h **** 			 *
1205:../LUFA/Drivers/USB/LowLevel/../HighLevel/../LowLevel/Endpoint.h **** 			 *  \note This function automatically clears the control transfer's status stage. Do not manuall
1206:../LUFA/Drivers/USB/LowLevel/../HighLevel/../LowLevel/Endpoint.h **** 			 *        to clear the status stage when using this routine in a control transaction.
1207:../LUFA/Drivers/USB/LowLevel/../HighLevel/../LowLevel/Endpoint.h **** 			 *        \n\n
1208:../LUFA/Drivers/USB/LowLevel/../HighLevel/../LowLevel/Endpoint.h **** 			 *
1209:../LUFA/Drivers/USB/LowLevel/../HighLevel/../LowLevel/Endpoint.h **** 			 *  \note This routine should only be used on CONTROL type endpoints.
1210:../LUFA/Drivers/USB/LowLevel/../HighLevel/../LowLevel/Endpoint.h **** 			 *
1211:../LUFA/Drivers/USB/LowLevel/../HighLevel/../LowLevel/Endpoint.h **** 			 *  \warning Unlike the standard stream read/write commands, the control stream commands cannot 
1212:../LUFA/Drivers/USB/LowLevel/../HighLevel/../LowLevel/Endpoint.h **** 			 *           together; i.e. the entire stream data must be read or written at the one time.
1213:../LUFA/Drivers/USB/LowLevel/../HighLevel/../LowLevel/Endpoint.h **** 			 *
1214:../LUFA/Drivers/USB/LowLevel/../HighLevel/../LowLevel/Endpoint.h **** 			 *  \ingroup Group_EndpointStreamRW
1215:../LUFA/Drivers/USB/LowLevel/../HighLevel/../LowLevel/Endpoint.h **** 			 *
1216:../LUFA/Drivers/USB/LowLevel/../HighLevel/../LowLevel/Endpoint.h **** 			 *  \param[out] Buffer  Pointer to the destination data buffer to write to.
1217:../LUFA/Drivers/USB/LowLevel/../HighLevel/../LowLevel/Endpoint.h **** 			 *  \param[in]  Length  Number of bytes to send via the currently selected endpoint.
1218:../LUFA/Drivers/USB/LowLevel/../HighLevel/../LowLevel/Endpoint.h **** 			 *
1219:../LUFA/Drivers/USB/LowLevel/../HighLevel/../LowLevel/Endpoint.h **** 			 *  \return A value from the \ref Endpoint_ControlStream_RW_ErrorCodes_t enum.
1220:../LUFA/Drivers/USB/LowLevel/../HighLevel/../LowLevel/Endpoint.h **** 			 */
1221:../LUFA/Drivers/USB/LowLevel/../HighLevel/../LowLevel/Endpoint.h **** 			uint8_t Endpoint_Read_Control_EStream_LE(void* Buffer,
1222:../LUFA/Drivers/USB/LowLevel/../HighLevel/../LowLevel/Endpoint.h **** 			                                         uint16_t Length) ATTR_NON_NULL_PTR_ARG(1);
1223:../LUFA/Drivers/USB/LowLevel/../HighLevel/../LowLevel/Endpoint.h **** 
1224:../LUFA/Drivers/USB/LowLevel/../HighLevel/../LowLevel/Endpoint.h **** 			/** Reads the given number of bytes from the CONTROL endpoint from the given buffer in big endia
1225:../LUFA/Drivers/USB/LowLevel/../HighLevel/../LowLevel/Endpoint.h **** 			 *  discarding fully read packets from the host as needed. The device IN acknowledgement is not
1226:../LUFA/Drivers/USB/LowLevel/../HighLevel/../LowLevel/Endpoint.h **** 			 *  automatically sent after success or failure states; the user is responsible for manually sen
1227:../LUFA/Drivers/USB/LowLevel/../HighLevel/../LowLevel/Endpoint.h **** 			 *  setup IN to finalize the transfer via the \ref Endpoint_ClearIN() macro.
1228:../LUFA/Drivers/USB/LowLevel/../HighLevel/../LowLevel/Endpoint.h **** 			 *
1229:../LUFA/Drivers/USB/LowLevel/../HighLevel/../LowLevel/Endpoint.h **** 			 *  \note This function automatically clears the control transfer's status stage. Do not manuall
1230:../LUFA/Drivers/USB/LowLevel/../HighLevel/../LowLevel/Endpoint.h **** 			 *        to clear the status stage when using this routine in a control transaction.
1231:../LUFA/Drivers/USB/LowLevel/../HighLevel/../LowLevel/Endpoint.h **** 			 *        \n\n
1232:../LUFA/Drivers/USB/LowLevel/../HighLevel/../LowLevel/Endpoint.h **** 			 *
1233:../LUFA/Drivers/USB/LowLevel/../HighLevel/../LowLevel/Endpoint.h **** 			 *  \note This routine should only be used on CONTROL type endpoints.
1234:../LUFA/Drivers/USB/LowLevel/../HighLevel/../LowLevel/Endpoint.h **** 			 *
1235:../LUFA/Drivers/USB/LowLevel/../HighLevel/../LowLevel/Endpoint.h **** 			 *  \warning Unlike the standard stream read/write commands, the control stream commands cannot 
1236:../LUFA/Drivers/USB/LowLevel/../HighLevel/../LowLevel/Endpoint.h **** 			 *           together; i.e. the entire stream data must be read or written at the one time.
1237:../LUFA/Drivers/USB/LowLevel/../HighLevel/../LowLevel/Endpoint.h **** 			 *
1238:../LUFA/Drivers/USB/LowLevel/../HighLevel/../LowLevel/Endpoint.h **** 			 *  \ingroup Group_EndpointStreamRW
1239:../LUFA/Drivers/USB/LowLevel/../HighLevel/../LowLevel/Endpoint.h **** 			 *
1240:../LUFA/Drivers/USB/LowLevel/../HighLevel/../LowLevel/Endpoint.h **** 			 *  \param[out] Buffer  Pointer to the destination data buffer to write to.
1241:../LUFA/Drivers/USB/LowLevel/../HighLevel/../LowLevel/Endpoint.h **** 			 *  \param[in]  Length  Number of bytes to send via the currently selected endpoint.
1242:../LUFA/Drivers/USB/LowLevel/../HighLevel/../LowLevel/Endpoint.h **** 			 *
1243:../LUFA/Drivers/USB/LowLevel/../HighLevel/../LowLevel/Endpoint.h **** 			 *  \return A value from the \ref Endpoint_ControlStream_RW_ErrorCodes_t enum.
1244:../LUFA/Drivers/USB/LowLevel/../HighLevel/../LowLevel/Endpoint.h **** 			 */
1245:../LUFA/Drivers/USB/LowLevel/../HighLevel/../LowLevel/Endpoint.h **** 			uint8_t Endpoint_Read_Control_Stream_BE(void* Buffer,
1246:../LUFA/Drivers/USB/LowLevel/../HighLevel/../LowLevel/Endpoint.h **** 			                                        uint16_t Length) ATTR_NON_NULL_PTR_ARG(1);
1247:../LUFA/Drivers/USB/LowLevel/../HighLevel/../LowLevel/Endpoint.h **** 			
1248:../LUFA/Drivers/USB/LowLevel/../HighLevel/../LowLevel/Endpoint.h **** 			/** EEPROM buffer source version of \ref Endpoint_Read_Control_Stream_BE().
1249:../LUFA/Drivers/USB/LowLevel/../HighLevel/../LowLevel/Endpoint.h **** 			 *
1250:../LUFA/Drivers/USB/LowLevel/../HighLevel/../LowLevel/Endpoint.h **** 			 *  \note This function automatically clears the control transfer's status stage. Do not manuall
1251:../LUFA/Drivers/USB/LowLevel/../HighLevel/../LowLevel/Endpoint.h **** 			 *        to clear the status stage when using this routine in a control transaction.
1252:../LUFA/Drivers/USB/LowLevel/../HighLevel/../LowLevel/Endpoint.h **** 			 *        \n\n
1253:../LUFA/Drivers/USB/LowLevel/../HighLevel/../LowLevel/Endpoint.h **** 			 *
1254:../LUFA/Drivers/USB/LowLevel/../HighLevel/../LowLevel/Endpoint.h **** 			 *  \note This routine should only be used on CONTROL type endpoints.
1255:../LUFA/Drivers/USB/LowLevel/../HighLevel/../LowLevel/Endpoint.h **** 			 *
1256:../LUFA/Drivers/USB/LowLevel/../HighLevel/../LowLevel/Endpoint.h **** 			 *  \warning Unlike the standard stream read/write commands, the control stream commands cannot 
1257:../LUFA/Drivers/USB/LowLevel/../HighLevel/../LowLevel/Endpoint.h **** 			 *           together; i.e. the entire stream data must be read or written at the one time.
1258:../LUFA/Drivers/USB/LowLevel/../HighLevel/../LowLevel/Endpoint.h **** 			 *
1259:../LUFA/Drivers/USB/LowLevel/../HighLevel/../LowLevel/Endpoint.h **** 			 *  \ingroup Group_EndpointStreamRW
1260:../LUFA/Drivers/USB/LowLevel/../HighLevel/../LowLevel/Endpoint.h **** 			 *
1261:../LUFA/Drivers/USB/LowLevel/../HighLevel/../LowLevel/Endpoint.h **** 			 *  \param[out] Buffer  Pointer to the destination data buffer to write to.
1262:../LUFA/Drivers/USB/LowLevel/../HighLevel/../LowLevel/Endpoint.h **** 			 *  \param[in]  Length  Number of bytes to send via the currently selected endpoint.
1263:../LUFA/Drivers/USB/LowLevel/../HighLevel/../LowLevel/Endpoint.h **** 			 *
1264:../LUFA/Drivers/USB/LowLevel/../HighLevel/../LowLevel/Endpoint.h **** 			 *  \return A value from the \ref Endpoint_ControlStream_RW_ErrorCodes_t enum.
1265:../LUFA/Drivers/USB/LowLevel/../HighLevel/../LowLevel/Endpoint.h **** 			 */
1266:../LUFA/Drivers/USB/LowLevel/../HighLevel/../LowLevel/Endpoint.h **** 			uint8_t Endpoint_Read_Control_EStream_BE(void* Buffer,
1267:../LUFA/Drivers/USB/LowLevel/../HighLevel/../LowLevel/Endpoint.h **** 			                                         uint16_t Length) ATTR_NON_NULL_PTR_ARG(1);
1268:../LUFA/Drivers/USB/LowLevel/../HighLevel/../LowLevel/Endpoint.h **** 
1269:../LUFA/Drivers/USB/LowLevel/../HighLevel/../LowLevel/Endpoint.h **** 	/* Private Interface - For use in library only: */
1270:../LUFA/Drivers/USB/LowLevel/../HighLevel/../LowLevel/Endpoint.h **** 	#if !defined(__DOXYGEN__)
1271:../LUFA/Drivers/USB/LowLevel/../HighLevel/../LowLevel/Endpoint.h **** 		/* Macros: */
1272:../LUFA/Drivers/USB/LowLevel/../HighLevel/../LowLevel/Endpoint.h **** 			#define _ENDPOINT_GET_MAXSIZE(n)               _ENDPOINT_GET_MAXSIZE2(ENDPOINT_DETAILS_EP ## n)
1273:../LUFA/Drivers/USB/LowLevel/../HighLevel/../LowLevel/Endpoint.h **** 			#define _ENDPOINT_GET_MAXSIZE2(details)        _ENDPOINT_GET_MAXSIZE3(details)
1274:../LUFA/Drivers/USB/LowLevel/../HighLevel/../LowLevel/Endpoint.h **** 			#define _ENDPOINT_GET_MAXSIZE3(maxsize, db)    maxsize
1275:../LUFA/Drivers/USB/LowLevel/../HighLevel/../LowLevel/Endpoint.h **** 
1276:../LUFA/Drivers/USB/LowLevel/../HighLevel/../LowLevel/Endpoint.h **** 			#define _ENDPOINT_GET_DOUBLEBANK(n)            _ENDPOINT_GET_DOUBLEBANK2(ENDPOINT_DETAILS_EP ## 
1277:../LUFA/Drivers/USB/LowLevel/../HighLevel/../LowLevel/Endpoint.h **** 			#define _ENDPOINT_GET_DOUBLEBANK2(details)     _ENDPOINT_GET_DOUBLEBANK3(details)
1278:../LUFA/Drivers/USB/LowLevel/../HighLevel/../LowLevel/Endpoint.h **** 			#define _ENDPOINT_GET_DOUBLEBANK3(maxsize, db) db
1279:../LUFA/Drivers/USB/LowLevel/../HighLevel/../LowLevel/Endpoint.h **** 			
1280:../LUFA/Drivers/USB/LowLevel/../HighLevel/../LowLevel/Endpoint.h **** 			#if defined(USB_SERIES_4_AVR) || defined(USB_SERIES_6_AVR) || defined(USB_SERIES_7_AVR)
1281:../LUFA/Drivers/USB/LowLevel/../HighLevel/../LowLevel/Endpoint.h **** 				#define ENDPOINT_DETAILS_EP0               64,  true
1282:../LUFA/Drivers/USB/LowLevel/../HighLevel/../LowLevel/Endpoint.h **** 				#define ENDPOINT_DETAILS_EP1               256, true
1283:../LUFA/Drivers/USB/LowLevel/../HighLevel/../LowLevel/Endpoint.h **** 				#define ENDPOINT_DETAILS_EP2               64,  true
1284:../LUFA/Drivers/USB/LowLevel/../HighLevel/../LowLevel/Endpoint.h **** 				#define ENDPOINT_DETAILS_EP3               64,  true
1285:../LUFA/Drivers/USB/LowLevel/../HighLevel/../LowLevel/Endpoint.h **** 				#define ENDPOINT_DETAILS_EP4               64,  true
1286:../LUFA/Drivers/USB/LowLevel/../HighLevel/../LowLevel/Endpoint.h **** 				#define ENDPOINT_DETAILS_EP5               64,  true
1287:../LUFA/Drivers/USB/LowLevel/../HighLevel/../LowLevel/Endpoint.h **** 				#define ENDPOINT_DETAILS_EP6               64,  true
1288:../LUFA/Drivers/USB/LowLevel/../HighLevel/../LowLevel/Endpoint.h **** 			#else
1289:../LUFA/Drivers/USB/LowLevel/../HighLevel/../LowLevel/Endpoint.h **** 				#define ENDPOINT_DETAILS_EP0               64,  true
1290:../LUFA/Drivers/USB/LowLevel/../HighLevel/../LowLevel/Endpoint.h **** 				#define ENDPOINT_DETAILS_EP1               64,  false
1291:../LUFA/Drivers/USB/LowLevel/../HighLevel/../LowLevel/Endpoint.h **** 				#define ENDPOINT_DETAILS_EP2               64,  false
1292:../LUFA/Drivers/USB/LowLevel/../HighLevel/../LowLevel/Endpoint.h **** 				#define ENDPOINT_DETAILS_EP3               64,  true
1293:../LUFA/Drivers/USB/LowLevel/../HighLevel/../LowLevel/Endpoint.h **** 				#define ENDPOINT_DETAILS_EP4               64,  true			
1294:../LUFA/Drivers/USB/LowLevel/../HighLevel/../LowLevel/Endpoint.h **** 			#endif
1295:../LUFA/Drivers/USB/LowLevel/../HighLevel/../LowLevel/Endpoint.h **** 
1296:../LUFA/Drivers/USB/LowLevel/../HighLevel/../LowLevel/Endpoint.h **** 			#define Endpoint_ConfigureEndpoint(Number, Type, Direction, Size, Banks)                        
1297:../LUFA/Drivers/USB/LowLevel/../HighLevel/../LowLevel/Endpoint.h **** 			                     (__builtin_constant_p(Size) ? Endpoint_ConfigureEndpointStatic((Number),   
1298:../LUFA/Drivers/USB/LowLevel/../HighLevel/../LowLevel/Endpoint.h **** 			                                                                                    (Type),     
1299:../LUFA/Drivers/USB/LowLevel/../HighLevel/../LowLevel/Endpoint.h **** 			                                                                                    (Direction),
1300:../LUFA/Drivers/USB/LowLevel/../HighLevel/../LowLevel/Endpoint.h **** 			                                                                                    Size, Banks)
1301:../LUFA/Drivers/USB/LowLevel/../HighLevel/../LowLevel/Endpoint.h **** 			                                                   Endpoint_ConfigureEndpointDynamic((Number),  
1302:../LUFA/Drivers/USB/LowLevel/../HighLevel/../LowLevel/Endpoint.h **** 			                                                                                     (Type),    
1303:../LUFA/Drivers/USB/LowLevel/../HighLevel/../LowLevel/Endpoint.h **** 			                                                                                     (Direction)
1304:../LUFA/Drivers/USB/LowLevel/../HighLevel/../LowLevel/Endpoint.h **** 			                                                                                     Size, Banks
1305:../LUFA/Drivers/USB/LowLevel/../HighLevel/../LowLevel/Endpoint.h **** 
1306:../LUFA/Drivers/USB/LowLevel/../HighLevel/../LowLevel/Endpoint.h **** 		/* Function Prototypes: */
1307:../LUFA/Drivers/USB/LowLevel/../HighLevel/../LowLevel/Endpoint.h **** 			void    Endpoint_ClearEndpoints(void);
1308:../LUFA/Drivers/USB/LowLevel/../HighLevel/../LowLevel/Endpoint.h **** 			uint8_t Endpoint_BytesToEPSizeMaskDynamic(const uint16_t Size);
1309:../LUFA/Drivers/USB/LowLevel/../HighLevel/../LowLevel/Endpoint.h **** 			bool    Endpoint_ConfigureEndpoint_Prv(const uint8_t Number,
1310:../LUFA/Drivers/USB/LowLevel/../HighLevel/../LowLevel/Endpoint.h **** 			                                       const uint8_t UECFG0XData,
1311:../LUFA/Drivers/USB/LowLevel/../HighLevel/../LowLevel/Endpoint.h **** 			                                       const uint8_t UECFG1XData);			
1312:../LUFA/Drivers/USB/LowLevel/../HighLevel/../LowLevel/Endpoint.h **** 
1313:../LUFA/Drivers/USB/LowLevel/../HighLevel/../LowLevel/Endpoint.h **** 		/* Inline Functions: */
1314:../LUFA/Drivers/USB/LowLevel/../HighLevel/../LowLevel/Endpoint.h **** 			static inline uint8_t Endpoint_BytesToEPSizeMask(const uint16_t Bytes) ATTR_WARN_UNUSED_RESULT A
1315:../LUFA/Drivers/USB/LowLevel/../HighLevel/../LowLevel/Endpoint.h **** 			static inline uint8_t Endpoint_BytesToEPSizeMask(const uint16_t Bytes)
1316:../LUFA/Drivers/USB/LowLevel/../HighLevel/../LowLevel/Endpoint.h **** 			{
1317:../LUFA/Drivers/USB/LowLevel/../HighLevel/../LowLevel/Endpoint.h **** 				uint8_t  MaskVal    = 0;
1318:../LUFA/Drivers/USB/LowLevel/../HighLevel/../LowLevel/Endpoint.h **** 				uint16_t CheckBytes = 8;
1319:../LUFA/Drivers/USB/LowLevel/../HighLevel/../LowLevel/Endpoint.h **** 				
1320:../LUFA/Drivers/USB/LowLevel/../HighLevel/../LowLevel/Endpoint.h **** 				while (CheckBytes < Bytes)
1321:../LUFA/Drivers/USB/LowLevel/../HighLevel/../LowLevel/Endpoint.h **** 				{
1322:../LUFA/Drivers/USB/LowLevel/../HighLevel/../LowLevel/Endpoint.h **** 					MaskVal++;
1323:../LUFA/Drivers/USB/LowLevel/../HighLevel/../LowLevel/Endpoint.h **** 					CheckBytes <<= 1;
1324:../LUFA/Drivers/USB/LowLevel/../HighLevel/../LowLevel/Endpoint.h **** 				}
1325:../LUFA/Drivers/USB/LowLevel/../HighLevel/../LowLevel/Endpoint.h **** 				
1326:../LUFA/Drivers/USB/LowLevel/../HighLevel/../LowLevel/Endpoint.h **** 				return (MaskVal << EPSIZE0);
1327:../LUFA/Drivers/USB/LowLevel/../HighLevel/../LowLevel/Endpoint.h **** 			}
1328:../LUFA/Drivers/USB/LowLevel/../HighLevel/../LowLevel/Endpoint.h **** 			
1329:../LUFA/Drivers/USB/LowLevel/../HighLevel/../LowLevel/Endpoint.h **** 			static inline bool Endpoint_ConfigureEndpointStatic(const uint8_t Number,
1330:../LUFA/Drivers/USB/LowLevel/../HighLevel/../LowLevel/Endpoint.h **** 			                                                    const uint8_t Type,
1331:../LUFA/Drivers/USB/LowLevel/../HighLevel/../LowLevel/Endpoint.h **** 			                                                    const uint8_t Direction,
1332:../LUFA/Drivers/USB/LowLevel/../HighLevel/../LowLevel/Endpoint.h **** 			                                                    const uint16_t Size,
1333:../LUFA/Drivers/USB/LowLevel/../HighLevel/../LowLevel/Endpoint.h **** 			                                                    const uint8_t Banks)
1334:../LUFA/Drivers/USB/LowLevel/../HighLevel/../LowLevel/Endpoint.h **** 			{
1335:../LUFA/Drivers/USB/LowLevel/../HighLevel/../LowLevel/Endpoint.h **** 				return Endpoint_ConfigureEndpoint_Prv(Number, (((Type) << EPTYPE0) | (Direction)),
 250               		.loc 3 1335 0
 251 0102 42E0      		ldi r20,lo8(2)
 252 0104 60E0      		ldi r22,0
 253 0106 80E0      		ldi r24,0
 254 0108 0E94 0000 		call Endpoint_ConfigureEndpoint_Prv
 255               	.LVL3:
 256               	.LBE61:
 257               	.LBE60:
 146:../LUFA/Drivers/USB/LowLevel/USBInterrupt.c **** 
 147:../LUFA/Drivers/USB/LowLevel/USBInterrupt.c **** 		Endpoint_ConfigureEndpoint(ENDPOINT_CONTROLEP, EP_TYPE_CONTROL,
 148:../LUFA/Drivers/USB/LowLevel/USBInterrupt.c **** 		                           ENDPOINT_DIR_OUT, USB_ControlEndpointSize,
 149:../LUFA/Drivers/USB/LowLevel/USBInterrupt.c **** 		                           ENDPOINT_BANK_SINGLE);
 150:../LUFA/Drivers/USB/LowLevel/USBInterrupt.c **** 
 151:../LUFA/Drivers/USB/LowLevel/USBInterrupt.c **** 		#if defined(INTERRUPT_CONTROL_ENDPOINT)
 152:../LUFA/Drivers/USB/LowLevel/USBInterrupt.c **** 		USB_INT_Enable(USB_INT_RXSTPI);
 258               		.loc 1 152 0
 259 010c 8091 F000 		lds r24,240
 260 0110 8860      		ori r24,lo8(8)
 261 0112 8093 F000 		sts 240,r24
 153:../LUFA/Drivers/USB/LowLevel/USBInterrupt.c **** 		#endif
 154:../LUFA/Drivers/USB/LowLevel/USBInterrupt.c **** 
 155:../LUFA/Drivers/USB/LowLevel/USBInterrupt.c **** 		EVENT_USB_Device_Reset();
 262               		.loc 1 155 0
 263 0116 0E94 0000 		call EVENT_USB_Device_Reset
 264               	.LVL4:
 265               	.L8:
 156:../LUFA/Drivers/USB/LowLevel/USBInterrupt.c **** 	}
 157:../LUFA/Drivers/USB/LowLevel/USBInterrupt.c **** 	
 158:../LUFA/Drivers/USB/LowLevel/USBInterrupt.c **** 	if (USB_INT_HasOccurred(USB_INT_SOFI) && USB_INT_IsEnabled(USB_INT_SOFI))
 266               		.loc 1 158 0
 267 011a 8091 E100 		lds r24,225
 268 011e 82FF      		sbrs r24,2
 269 0120 00C0      		rjmp .L3
 270               		.loc 1 158 0 is_stmt 0 discriminator 1
 271 0122 8091 E200 		lds r24,226
 272 0126 82FF      		sbrs r24,2
 273 0128 00C0      		rjmp .L3
 159:../LUFA/Drivers/USB/LowLevel/USBInterrupt.c **** 	{
 160:../LUFA/Drivers/USB/LowLevel/USBInterrupt.c **** 		USB_INT_Clear(USB_INT_SOFI);
 274               		.loc 1 160 0 is_stmt 1
 275 012a 8091 E100 		lds r24,225
 276 012e 8B7F      		andi r24,lo8(-5)
 277 0130 8093 E100 		sts 225,r24
 161:../LUFA/Drivers/USB/LowLevel/USBInterrupt.c **** 		
 162:../LUFA/Drivers/USB/LowLevel/USBInterrupt.c **** 		EVENT_USB_Device_StartOfFrame();
 278               		.loc 1 162 0
 279 0134 0E94 0000 		call EVENT_USB_Device_StartOfFrame
 280               	.LVL5:
 281               	.L3:
 282               	/* epilogue start */
 163:../LUFA/Drivers/USB/LowLevel/USBInterrupt.c **** 	}
 164:../LUFA/Drivers/USB/LowLevel/USBInterrupt.c **** 	#endif
 165:../LUFA/Drivers/USB/LowLevel/USBInterrupt.c **** 	
 166:../LUFA/Drivers/USB/LowLevel/USBInterrupt.c **** 	#if defined(USB_CAN_BE_HOST)
 167:../LUFA/Drivers/USB/LowLevel/USBInterrupt.c **** 	if (USB_INT_HasOccurred(USB_INT_DDISCI) && USB_INT_IsEnabled(USB_INT_DDISCI))
 168:../LUFA/Drivers/USB/LowLevel/USBInterrupt.c **** 	{
 169:../LUFA/Drivers/USB/LowLevel/USBInterrupt.c **** 		USB_INT_Clear(USB_INT_DDISCI);
 170:../LUFA/Drivers/USB/LowLevel/USBInterrupt.c **** 		USB_INT_Clear(USB_INT_DCONNI);
 171:../LUFA/Drivers/USB/LowLevel/USBInterrupt.c **** 		USB_INT_Disable(USB_INT_DDISCI);
 172:../LUFA/Drivers/USB/LowLevel/USBInterrupt.c **** 			
 173:../LUFA/Drivers/USB/LowLevel/USBInterrupt.c **** 		EVENT_USB_Host_DeviceUnattached();
 174:../LUFA/Drivers/USB/LowLevel/USBInterrupt.c **** 
 175:../LUFA/Drivers/USB/LowLevel/USBInterrupt.c **** 		USB_ResetInterface();
 176:../LUFA/Drivers/USB/LowLevel/USBInterrupt.c **** 	}
 177:../LUFA/Drivers/USB/LowLevel/USBInterrupt.c **** 	
 178:../LUFA/Drivers/USB/LowLevel/USBInterrupt.c **** 	if (USB_INT_HasOccurred(USB_INT_VBERRI) && USB_INT_IsEnabled(USB_INT_VBERRI))
 179:../LUFA/Drivers/USB/LowLevel/USBInterrupt.c **** 	{
 180:../LUFA/Drivers/USB/LowLevel/USBInterrupt.c **** 		USB_INT_Clear(USB_INT_VBERRI);
 181:../LUFA/Drivers/USB/LowLevel/USBInterrupt.c **** 
 182:../LUFA/Drivers/USB/LowLevel/USBInterrupt.c **** 		USB_Host_VBUS_Manual_Off();
 183:../LUFA/Drivers/USB/LowLevel/USBInterrupt.c **** 		USB_Host_VBUS_Auto_Off();
 184:../LUFA/Drivers/USB/LowLevel/USBInterrupt.c **** 
 185:../LUFA/Drivers/USB/LowLevel/USBInterrupt.c **** 		EVENT_USB_Host_HostError(HOST_ERROR_VBusVoltageDip);
 186:../LUFA/Drivers/USB/LowLevel/USBInterrupt.c **** 		EVENT_USB_Host_DeviceUnattached();
 187:../LUFA/Drivers/USB/LowLevel/USBInterrupt.c **** 
 188:../LUFA/Drivers/USB/LowLevel/USBInterrupt.c **** 		USB_HostState = HOST_STATE_Unattached;
 189:../LUFA/Drivers/USB/LowLevel/USBInterrupt.c **** 	}
 190:../LUFA/Drivers/USB/LowLevel/USBInterrupt.c **** 
 191:../LUFA/Drivers/USB/LowLevel/USBInterrupt.c **** 	if (USB_INT_HasOccurred(USB_INT_SRPI) && USB_INT_IsEnabled(USB_INT_SRPI))
 192:../LUFA/Drivers/USB/LowLevel/USBInterrupt.c **** 	{
 193:../LUFA/Drivers/USB/LowLevel/USBInterrupt.c **** 		USB_INT_Clear(USB_INT_SRPI);
 194:../LUFA/Drivers/USB/LowLevel/USBInterrupt.c **** 		USB_INT_Disable(USB_INT_SRPI);
 195:../LUFA/Drivers/USB/LowLevel/USBInterrupt.c **** 	
 196:../LUFA/Drivers/USB/LowLevel/USBInterrupt.c **** 		EVENT_USB_Host_DeviceAttached();
 197:../LUFA/Drivers/USB/LowLevel/USBInterrupt.c **** 
 198:../LUFA/Drivers/USB/LowLevel/USBInterrupt.c **** 		USB_INT_Enable(USB_INT_DDISCI);
 199:../LUFA/Drivers/USB/LowLevel/USBInterrupt.c **** 		
 200:../LUFA/Drivers/USB/LowLevel/USBInterrupt.c **** 		USB_HostState = HOST_STATE_Powered;
 201:../LUFA/Drivers/USB/LowLevel/USBInterrupt.c **** 	}
 202:../LUFA/Drivers/USB/LowLevel/USBInterrupt.c **** 
 203:../LUFA/Drivers/USB/LowLevel/USBInterrupt.c **** 	if (USB_INT_HasOccurred(USB_INT_BCERRI) && USB_INT_IsEnabled(USB_INT_BCERRI))
 204:../LUFA/Drivers/USB/LowLevel/USBInterrupt.c **** 	{
 205:../LUFA/Drivers/USB/LowLevel/USBInterrupt.c **** 		USB_INT_Clear(USB_INT_BCERRI);
 206:../LUFA/Drivers/USB/LowLevel/USBInterrupt.c **** 		
 207:../LUFA/Drivers/USB/LowLevel/USBInterrupt.c **** 		EVENT_USB_Host_DeviceEnumerationFailed(HOST_ENUMERROR_NoDeviceDetected, 0);
 208:../LUFA/Drivers/USB/LowLevel/USBInterrupt.c **** 		EVENT_USB_Host_DeviceUnattached();
 209:../LUFA/Drivers/USB/LowLevel/USBInterrupt.c **** 
 210:../LUFA/Drivers/USB/LowLevel/USBInterrupt.c **** 		USB_ResetInterface();
 211:../LUFA/Drivers/USB/LowLevel/USBInterrupt.c **** 	}
 212:../LUFA/Drivers/USB/LowLevel/USBInterrupt.c **** 	#endif
 213:../LUFA/Drivers/USB/LowLevel/USBInterrupt.c **** 
 214:../LUFA/Drivers/USB/LowLevel/USBInterrupt.c **** 	#if defined(USB_CAN_BE_BOTH)
 215:../LUFA/Drivers/USB/LowLevel/USBInterrupt.c **** 	if (USB_INT_HasOccurred(USB_INT_IDTI) && USB_INT_IsEnabled(USB_INT_IDTI))
 216:../LUFA/Drivers/USB/LowLevel/USBInterrupt.c **** 	{		
 217:../LUFA/Drivers/USB/LowLevel/USBInterrupt.c **** 		USB_INT_Clear(USB_INT_IDTI);
 218:../LUFA/Drivers/USB/LowLevel/USBInterrupt.c **** 
 219:../LUFA/Drivers/USB/LowLevel/USBInterrupt.c **** 		if (USB_DeviceState != DEVICE_STATE_Unattached)
 220:../LUFA/Drivers/USB/LowLevel/USBInterrupt.c **** 		  EVENT_USB_Device_Disconnect();
 221:../LUFA/Drivers/USB/LowLevel/USBInterrupt.c **** 
 222:../LUFA/Drivers/USB/LowLevel/USBInterrupt.c **** 		if (USB_HostState != HOST_STATE_Unattached)
 223:../LUFA/Drivers/USB/LowLevel/USBInterrupt.c **** 		  EVENT_USB_Host_DeviceUnattached();
 224:../LUFA/Drivers/USB/LowLevel/USBInterrupt.c **** 		
 225:../LUFA/Drivers/USB/LowLevel/USBInterrupt.c **** 		USB_CurrentMode = USB_GetUSBModeFromUID();
 226:../LUFA/Drivers/USB/LowLevel/USBInterrupt.c **** 		EVENT_USB_UIDChange();
 227:../LUFA/Drivers/USB/LowLevel/USBInterrupt.c **** 
 228:../LUFA/Drivers/USB/LowLevel/USBInterrupt.c **** 		USB_ResetInterface();
 229:../LUFA/Drivers/USB/LowLevel/USBInterrupt.c **** 	}
 230:../LUFA/Drivers/USB/LowLevel/USBInterrupt.c **** 	#endif
 231:../LUFA/Drivers/USB/LowLevel/USBInterrupt.c **** }
 283               		.loc 1 231 0
 284 0138 FF91      		pop r31
 285 013a EF91      		pop r30
 286 013c BF91      		pop r27
 287 013e AF91      		pop r26
 288 0140 9F91      		pop r25
 289 0142 8F91      		pop r24
 290 0144 7F91      		pop r23
 291 0146 6F91      		pop r22
 292 0148 5F91      		pop r21
 293 014a 4F91      		pop r20
 294 014c 3F91      		pop r19
 295 014e 2F91      		pop r18
 296 0150 0F90      		pop r0
 297 0152 0FBE      		out __SREG__,r0
 298 0154 0F90      		pop r0
 299 0156 1F90      		pop r1
 300 0158 1895      		reti
 301               		.cfi_endproc
 302               	.LFE66:
 304               		.section	.text.__vector_12,"ax",@progbits
 305               	.global	__vector_12
 307               	__vector_12:
 308               	.LFB67:
 232:../LUFA/Drivers/USB/LowLevel/USBInterrupt.c **** 
 233:../LUFA/Drivers/USB/LowLevel/USBInterrupt.c **** #if defined(INTERRUPT_CONTROL_ENDPOINT) && defined(USB_CAN_BE_DEVICE)
 234:../LUFA/Drivers/USB/LowLevel/USBInterrupt.c **** ISR(USB_COM_vect, ISR_BLOCK)
 235:../LUFA/Drivers/USB/LowLevel/USBInterrupt.c **** {
 309               		.loc 1 235 0
 310               		.cfi_startproc
 311 0000 1F92      		push r1
 312               	.LCFI14:
 313               		.cfi_def_cfa_offset 3
 314               		.cfi_offset 1, -2
 315 0002 0F92      		push r0
 316               	.LCFI15:
 317               		.cfi_def_cfa_offset 4
 318               		.cfi_offset 0, -3
 319 0004 0FB6      		in r0,__SREG__
 320 0006 0F92      		push r0
 321 0008 1124      		clr __zero_reg__
 322 000a FF92      		push r15
 323               	.LCFI16:
 324               		.cfi_def_cfa_offset 5
 325               		.cfi_offset 15, -4
 326 000c 0F93      		push r16
 327               	.LCFI17:
 328               		.cfi_def_cfa_offset 6
 329               		.cfi_offset 16, -5
 330 000e 1F93      		push r17
 331               	.LCFI18:
 332               		.cfi_def_cfa_offset 7
 333               		.cfi_offset 17, -6
 334 0010 2F93      		push r18
 335               	.LCFI19:
 336               		.cfi_def_cfa_offset 8
 337               		.cfi_offset 18, -7
 338 0012 3F93      		push r19
 339               	.LCFI20:
 340               		.cfi_def_cfa_offset 9
 341               		.cfi_offset 19, -8
 342 0014 4F93      		push r20
 343               	.LCFI21:
 344               		.cfi_def_cfa_offset 10
 345               		.cfi_offset 20, -9
 346 0016 5F93      		push r21
 347               	.LCFI22:
 348               		.cfi_def_cfa_offset 11
 349               		.cfi_offset 21, -10
 350 0018 6F93      		push r22
 351               	.LCFI23:
 352               		.cfi_def_cfa_offset 12
 353               		.cfi_offset 22, -11
 354 001a 7F93      		push r23
 355               	.LCFI24:
 356               		.cfi_def_cfa_offset 13
 357               		.cfi_offset 23, -12
 358 001c 8F93      		push r24
 359               	.LCFI25:
 360               		.cfi_def_cfa_offset 14
 361               		.cfi_offset 24, -13
 362 001e 9F93      		push r25
 363               	.LCFI26:
 364               		.cfi_def_cfa_offset 15
 365               		.cfi_offset 25, -14
 366 0020 AF93      		push r26
 367               	.LCFI27:
 368               		.cfi_def_cfa_offset 16
 369               		.cfi_offset 26, -15
 370 0022 BF93      		push r27
 371               	.LCFI28:
 372               		.cfi_def_cfa_offset 17
 373               		.cfi_offset 27, -16
 374 0024 CF93      		push r28
 375               	.LCFI29:
 376               		.cfi_def_cfa_offset 18
 377               		.cfi_offset 28, -17
 378 0026 DF93      		push r29
 379               	.LCFI30:
 380               		.cfi_def_cfa_offset 19
 381               		.cfi_offset 29, -18
 382 0028 EF93      		push r30
 383               	.LCFI31:
 384               		.cfi_def_cfa_offset 20
 385               		.cfi_offset 30, -19
 386 002a FF93      		push r31
 387               	.LCFI32:
 388               		.cfi_def_cfa_offset 21
 389               		.cfi_offset 31, -20
 390               	/* prologue: Signal */
 391               	/* frame size = 0 */
 392               	/* stack size = 20 */
 393               	.L__stack_usage = 20
 394               	.LBB62:
 395               	.LBB63:
 280:../LUFA/Drivers/USB/LowLevel/../HighLevel/../LowLevel/Endpoint.h **** 				#else
 396               		.loc 3 280 0
 397 002c C9EE      		ldi r28,lo8(-23)
 398 002e D0E0      		ldi r29,0
 399 0030 8881      		ld r24,Y
 400 0032 8770      		andi r24,lo8(7)
 401 0034 F82E      		mov r15,r24
 402               	.LVL6:
 403               	.LBE63:
 404               	.LBE62:
 405               	.LBB64:
 406               	.LBB65:
 299:../LUFA/Drivers/USB/LowLevel/../HighLevel/../LowLevel/Endpoint.h **** 				#endif			
 407               		.loc 3 299 0
 408 0036 1882      		st Y,__zero_reg__
 409               	.LVL7:
 410               	.LBE65:
 411               	.LBE64:
 236:../LUFA/Drivers/USB/LowLevel/USBInterrupt.c **** 	uint8_t PrevSelectedEndpoint = Endpoint_GetCurrentEndpoint(); 
 237:../LUFA/Drivers/USB/LowLevel/USBInterrupt.c **** 
 238:../LUFA/Drivers/USB/LowLevel/USBInterrupt.c **** 	Endpoint_SelectEndpoint(ENDPOINT_CONTROLEP);
 239:../LUFA/Drivers/USB/LowLevel/USBInterrupt.c **** 	USB_INT_Disable(USB_INT_RXSTPI);
 412               		.loc 1 239 0
 413 0038 00EF      		ldi r16,lo8(-16)
 414 003a 10E0      		ldi r17,0
 415 003c F801      		movw r30,r16
 416 003e 8081      		ld r24,Z
 417 0040 877F      		andi r24,lo8(-9)
 418 0042 8083      		st Z,r24
 419               	.LVL8:
 420               	.LBB66:
 421               	.LBB67:
 422               	.LBB68:
 423               		.file 4 "/usr/lib/avr/include/util/atomic.h"
   1:/usr/lib/avr/include/util/atomic.h **** /* Copyright (c) 2007 Dean Camera
   2:/usr/lib/avr/include/util/atomic.h ****    All rights reserved.
   3:/usr/lib/avr/include/util/atomic.h **** 
   4:/usr/lib/avr/include/util/atomic.h ****    Redistribution and use in source and binary forms, with or without
   5:/usr/lib/avr/include/util/atomic.h ****    modification, are permitted provided that the following conditions are met:
   6:/usr/lib/avr/include/util/atomic.h **** 
   7:/usr/lib/avr/include/util/atomic.h ****    * Redistributions of source code must retain the above copyright
   8:/usr/lib/avr/include/util/atomic.h ****      notice, this list of conditions and the following disclaimer.
   9:/usr/lib/avr/include/util/atomic.h **** 
  10:/usr/lib/avr/include/util/atomic.h ****    * Redistributions in binary form must reproduce the above copyright
  11:/usr/lib/avr/include/util/atomic.h ****      notice, this list of conditions and the following disclaimer in
  12:/usr/lib/avr/include/util/atomic.h ****      the documentation and/or other materials provided with the
  13:/usr/lib/avr/include/util/atomic.h ****      distribution.
  14:/usr/lib/avr/include/util/atomic.h **** 
  15:/usr/lib/avr/include/util/atomic.h ****    * Neither the name of the copyright holders nor the names of
  16:/usr/lib/avr/include/util/atomic.h ****      contributors may be used to endorse or promote products derived
  17:/usr/lib/avr/include/util/atomic.h ****      from this software without specific prior written permission.
  18:/usr/lib/avr/include/util/atomic.h **** 
  19:/usr/lib/avr/include/util/atomic.h ****   THIS SOFTWARE IS PROVIDED BY THE COPYRIGHT HOLDERS AND CONTRIBUTORS "AS IS"
  20:/usr/lib/avr/include/util/atomic.h ****   AND ANY EXPRESS OR IMPLIED WARRANTIES, INCLUDING, BUT NOT LIMITED TO, THE
  21:/usr/lib/avr/include/util/atomic.h ****   IMPLIED WARRANTIES OF MERCHANTABILITY AND FITNESS FOR A PARTICULAR PURPOSE
  22:/usr/lib/avr/include/util/atomic.h ****   ARE DISCLAIMED. IN NO EVENT SHALL THE COPYRIGHT OWNER OR CONTRIBUTORS BE
  23:/usr/lib/avr/include/util/atomic.h ****   LIABLE FOR ANY DIRECT, INDIRECT, INCIDENTAL, SPECIAL, EXEMPLARY, OR
  24:/usr/lib/avr/include/util/atomic.h ****   CONSEQUENTIAL DAMAGES (INCLUDING, BUT NOT LIMITED TO, PROCUREMENT OF
  25:/usr/lib/avr/include/util/atomic.h ****   SUBSTITUTE GOODS OR SERVICES; LOSS OF USE, DATA, OR PROFITS; OR BUSINESS
  26:/usr/lib/avr/include/util/atomic.h ****   INTERRUPTION) HOWEVER CAUSED AND ON ANY THEORY OF LIABILITY, WHETHER IN
  27:/usr/lib/avr/include/util/atomic.h ****   CONTRACT, STRICT LIABILITY, OR TORT (INCLUDING NEGLIGENCE OR OTHERWISE)
  28:/usr/lib/avr/include/util/atomic.h ****   ARISING IN ANY WAY OUT OF THE USE OF THIS SOFTWARE, EVEN IF ADVISED OF THE
  29:/usr/lib/avr/include/util/atomic.h ****   POSSIBILITY OF SUCH DAMAGE.
  30:/usr/lib/avr/include/util/atomic.h **** */
  31:/usr/lib/avr/include/util/atomic.h **** 
  32:/usr/lib/avr/include/util/atomic.h **** /* $Id$ */
  33:/usr/lib/avr/include/util/atomic.h **** 
  34:/usr/lib/avr/include/util/atomic.h **** #ifndef _UTIL_ATOMIC_H_
  35:/usr/lib/avr/include/util/atomic.h **** #define _UTIL_ATOMIC_H_ 1
  36:/usr/lib/avr/include/util/atomic.h **** 
  37:/usr/lib/avr/include/util/atomic.h **** #include <avr/io.h>
  38:/usr/lib/avr/include/util/atomic.h **** #include <avr/interrupt.h>
  39:/usr/lib/avr/include/util/atomic.h **** 
  40:/usr/lib/avr/include/util/atomic.h **** #if !defined(__DOXYGEN__)
  41:/usr/lib/avr/include/util/atomic.h **** /* Internal helper functions. */
  42:/usr/lib/avr/include/util/atomic.h **** static __inline__ uint8_t __iSeiRetVal(void)
  43:/usr/lib/avr/include/util/atomic.h **** {
  44:/usr/lib/avr/include/util/atomic.h ****     sei();
 424               		.loc 4 44 0
 425               	/* #APP */
 426               	 ;  44 "/usr/lib/avr/include/util/atomic.h" 1
 427 0044 7894      		sei
 428               	 ;  0 "" 2
 429               	.LVL9:
 430               	/* #NOAPP */
 431               	.LBE68:
 432               	.LBE67:
 240:../LUFA/Drivers/USB/LowLevel/USBInterrupt.c **** 
 241:../LUFA/Drivers/USB/LowLevel/USBInterrupt.c **** 	NONATOMIC_BLOCK(NONATOMIC_FORCEOFF)
 242:../LUFA/Drivers/USB/LowLevel/USBInterrupt.c **** 	{
 243:../LUFA/Drivers/USB/LowLevel/USBInterrupt.c **** 		USB_Device_ProcessControlRequest();
 433               		.loc 1 243 0
 434 0046 0E94 0000 		call USB_Device_ProcessControlRequest
 435               	.LVL10:
 436               	.LBB69:
 437               	.LBB70:
  45:/usr/lib/avr/include/util/atomic.h ****     return 1;
  46:/usr/lib/avr/include/util/atomic.h **** }
  47:/usr/lib/avr/include/util/atomic.h **** 
  48:/usr/lib/avr/include/util/atomic.h **** static __inline__ uint8_t __iCliRetVal(void)
  49:/usr/lib/avr/include/util/atomic.h **** {
  50:/usr/lib/avr/include/util/atomic.h ****     cli();
  51:/usr/lib/avr/include/util/atomic.h ****     return 1;
  52:/usr/lib/avr/include/util/atomic.h **** }
  53:/usr/lib/avr/include/util/atomic.h **** 
  54:/usr/lib/avr/include/util/atomic.h **** static __inline__ void __iSeiParam(const uint8_t *__s)
  55:/usr/lib/avr/include/util/atomic.h **** {
  56:/usr/lib/avr/include/util/atomic.h ****     sei();
  57:/usr/lib/avr/include/util/atomic.h ****     __asm__ volatile ("" ::: "memory");
  58:/usr/lib/avr/include/util/atomic.h ****     (void)__s;
  59:/usr/lib/avr/include/util/atomic.h **** }
  60:/usr/lib/avr/include/util/atomic.h **** 
  61:/usr/lib/avr/include/util/atomic.h **** static __inline__ void __iCliParam(const uint8_t *__s)
  62:/usr/lib/avr/include/util/atomic.h **** {
  63:/usr/lib/avr/include/util/atomic.h ****     cli();
 438               		.loc 4 63 0
 439               	/* #APP */
 440               	 ;  63 "/usr/lib/avr/include/util/atomic.h" 1
 441 004a F894      		cli
 442               	 ;  0 "" 2
  64:/usr/lib/avr/include/util/atomic.h ****     __asm__ volatile ("" ::: "memory");
 443               		.loc 4 64 0
 444               	.LVL11:
 445               	/* #NOAPP */
 446               	.LBE70:
 447               	.LBE69:
 448               	.LBE66:
 449               	.LBB71:
 450               	.LBB72:
 299:../LUFA/Drivers/USB/LowLevel/../HighLevel/../LowLevel/Endpoint.h **** 				#endif			
 451               		.loc 3 299 0
 452 004c 1882      		st Y,__zero_reg__
 453               	.LVL12:
 454               	.LBE72:
 455               	.LBE71:
 244:../LUFA/Drivers/USB/LowLevel/USBInterrupt.c **** 	}
 245:../LUFA/Drivers/USB/LowLevel/USBInterrupt.c **** 
 246:../LUFA/Drivers/USB/LowLevel/USBInterrupt.c **** 	Endpoint_SelectEndpoint(ENDPOINT_CONTROLEP);
 247:../LUFA/Drivers/USB/LowLevel/USBInterrupt.c **** 	USB_INT_Enable(USB_INT_RXSTPI);
 456               		.loc 1 247 0
 457 004e F801      		movw r30,r16
 458 0050 8081      		ld r24,Z
 459 0052 8860      		ori r24,lo8(8)
 460 0054 8083      		st Z,r24
 461               	.LVL13:
 462               	.LBB73:
 463               	.LBB74:
 299:../LUFA/Drivers/USB/LowLevel/../HighLevel/../LowLevel/Endpoint.h **** 				#endif			
 464               		.loc 3 299 0
 465 0056 F882      		st Y,r15
 466               	.LVL14:
 467               	/* epilogue start */
 468               	.LBE74:
 469               	.LBE73:
 248:../LUFA/Drivers/USB/LowLevel/USBInterrupt.c **** 	Endpoint_SelectEndpoint(PrevSelectedEndpoint);
 249:../LUFA/Drivers/USB/LowLevel/USBInterrupt.c **** }
 470               		.loc 1 249 0
 471 0058 FF91      		pop r31
 472 005a EF91      		pop r30
 473 005c DF91      		pop r29
 474 005e CF91      		pop r28
 475 0060 BF91      		pop r27
 476 0062 AF91      		pop r26
 477 0064 9F91      		pop r25
 478 0066 8F91      		pop r24
 479 0068 7F91      		pop r23
 480 006a 6F91      		pop r22
 481 006c 5F91      		pop r21
 482 006e 4F91      		pop r20
 483 0070 3F91      		pop r19
 484 0072 2F91      		pop r18
 485 0074 1F91      		pop r17
 486 0076 0F91      		pop r16
 487 0078 FF90      		pop r15
 488 007a 0F90      		pop r0
 489 007c 0FBE      		out __SREG__,r0
 490 007e 0F90      		pop r0
 491 0080 1F90      		pop r1
 492 0082 1895      		reti
 493               		.cfi_endproc
 494               	.LFE67:
 496               		.text
 497               	.Letext0:
 498               		.file 5 "/usr/lib/avr/include/stdint.h"
 499               		.file 6 "../LUFA/Drivers/USB/LowLevel/../HighLevel/Events.h"
 500               		.file 7 "../LUFA/Drivers/USB/LowLevel/../HighLevel/DeviceStandardReq.h"
 501               		.file 8 "../LUFA/Drivers/USB/LowLevel/../HighLevel/../LowLevel/Device.h"