   1               		.file	"RNDIS.c"
   2               	__SP_H__ = 0x3e
   3               	__SP_L__ = 0x3d
   4               	__SREG__ = 0x3f
   5               	__tmp_reg__ = 0
   6               	__zero_reg__ = 1
   7               		.text
   8               	.Ltext0:
   9               		.cfi_sections	.debug_frame
  10               		.section	.text.RNDIS_Device_ProcessControlRequest,"ax",@progbits
  11               	.global	RNDIS_Device_ProcessControlRequest
  13               	RNDIS_Device_ProcessControlRequest:
  14               	.LFB65:
  15               		.file 1 "../LUFA/Drivers/USB/Class/Device/RNDIS.c"
   1:../LUFA/Drivers/USB/Class/Device/RNDIS.c **** /*
   2:../LUFA/Drivers/USB/Class/Device/RNDIS.c ****              LUFA Library
   3:../LUFA/Drivers/USB/Class/Device/RNDIS.c ****      Copyright (C) Dean Camera, 2010.
   4:../LUFA/Drivers/USB/Class/Device/RNDIS.c ****               
   5:../LUFA/Drivers/USB/Class/Device/RNDIS.c ****   dean [at] fourwalledcubicle [dot] com
   6:../LUFA/Drivers/USB/Class/Device/RNDIS.c ****       www.fourwalledcubicle.com
   7:../LUFA/Drivers/USB/Class/Device/RNDIS.c **** */
   8:../LUFA/Drivers/USB/Class/Device/RNDIS.c **** 
   9:../LUFA/Drivers/USB/Class/Device/RNDIS.c **** /*
  10:../LUFA/Drivers/USB/Class/Device/RNDIS.c ****   Copyright 2010  Dean Camera (dean [at] fourwalledcubicle [dot] com)
  11:../LUFA/Drivers/USB/Class/Device/RNDIS.c **** 
  12:../LUFA/Drivers/USB/Class/Device/RNDIS.c ****   Permission to use, copy, modify, distribute, and sell this 
  13:../LUFA/Drivers/USB/Class/Device/RNDIS.c ****   software and its documentation for any purpose is hereby granted
  14:../LUFA/Drivers/USB/Class/Device/RNDIS.c ****   without fee, provided that the above copyright notice appear in 
  15:../LUFA/Drivers/USB/Class/Device/RNDIS.c ****   all copies and that both that the copyright notice and this
  16:../LUFA/Drivers/USB/Class/Device/RNDIS.c ****   permission notice and warranty disclaimer appear in supporting 
  17:../LUFA/Drivers/USB/Class/Device/RNDIS.c ****   documentation, and that the name of the author not be used in 
  18:../LUFA/Drivers/USB/Class/Device/RNDIS.c ****   advertising or publicity pertaining to distribution of the 
  19:../LUFA/Drivers/USB/Class/Device/RNDIS.c ****   software without specific, written prior permission.
  20:../LUFA/Drivers/USB/Class/Device/RNDIS.c **** 
  21:../LUFA/Drivers/USB/Class/Device/RNDIS.c ****   The author disclaim all warranties with regard to this
  22:../LUFA/Drivers/USB/Class/Device/RNDIS.c ****   software, including all implied warranties of merchantability
  23:../LUFA/Drivers/USB/Class/Device/RNDIS.c ****   and fitness.  In no event shall the author be liable for any
  24:../LUFA/Drivers/USB/Class/Device/RNDIS.c ****   special, indirect or consequential damages or any damages
  25:../LUFA/Drivers/USB/Class/Device/RNDIS.c ****   whatsoever resulting from loss of use, data or profits, whether
  26:../LUFA/Drivers/USB/Class/Device/RNDIS.c ****   in an action of contract, negligence or other tortious action,
  27:../LUFA/Drivers/USB/Class/Device/RNDIS.c ****   arising out of or in connection with the use or performance of
  28:../LUFA/Drivers/USB/Class/Device/RNDIS.c ****   this software.
  29:../LUFA/Drivers/USB/Class/Device/RNDIS.c **** */
  30:../LUFA/Drivers/USB/Class/Device/RNDIS.c **** 
  31:../LUFA/Drivers/USB/Class/Device/RNDIS.c **** #define  __INCLUDE_FROM_USB_DRIVER
  32:../LUFA/Drivers/USB/Class/Device/RNDIS.c **** #include "../../HighLevel/USBMode.h"
  33:../LUFA/Drivers/USB/Class/Device/RNDIS.c **** #if defined(USB_CAN_BE_DEVICE)
  34:../LUFA/Drivers/USB/Class/Device/RNDIS.c **** 
  35:../LUFA/Drivers/USB/Class/Device/RNDIS.c **** #define  __INCLUDE_FROM_RNDIS_CLASS_DEVICE_C
  36:../LUFA/Drivers/USB/Class/Device/RNDIS.c **** #define  __INCLUDE_FROM_RNDIS_DRIVER
  37:../LUFA/Drivers/USB/Class/Device/RNDIS.c **** #include "RNDIS.h"
  38:../LUFA/Drivers/USB/Class/Device/RNDIS.c **** 
  39:../LUFA/Drivers/USB/Class/Device/RNDIS.c **** static const uint32_t PROGMEM AdapterSupportedOIDList[]  =
  40:../LUFA/Drivers/USB/Class/Device/RNDIS.c **** 	{
  41:../LUFA/Drivers/USB/Class/Device/RNDIS.c **** 		OID_GEN_SUPPORTED_LIST,
  42:../LUFA/Drivers/USB/Class/Device/RNDIS.c **** 		OID_GEN_PHYSICAL_MEDIUM,
  43:../LUFA/Drivers/USB/Class/Device/RNDIS.c **** 		OID_GEN_HARDWARE_STATUS,
  44:../LUFA/Drivers/USB/Class/Device/RNDIS.c **** 		OID_GEN_MEDIA_SUPPORTED,
  45:../LUFA/Drivers/USB/Class/Device/RNDIS.c **** 		OID_GEN_MEDIA_IN_USE,
  46:../LUFA/Drivers/USB/Class/Device/RNDIS.c **** 		OID_GEN_MAXIMUM_FRAME_SIZE,
  47:../LUFA/Drivers/USB/Class/Device/RNDIS.c **** 		OID_GEN_MAXIMUM_TOTAL_SIZE,
  48:../LUFA/Drivers/USB/Class/Device/RNDIS.c **** 		OID_GEN_LINK_SPEED,
  49:../LUFA/Drivers/USB/Class/Device/RNDIS.c **** 		OID_GEN_TRANSMIT_BLOCK_SIZE,
  50:../LUFA/Drivers/USB/Class/Device/RNDIS.c **** 		OID_GEN_RECEIVE_BLOCK_SIZE,
  51:../LUFA/Drivers/USB/Class/Device/RNDIS.c **** 		OID_GEN_VENDOR_ID,
  52:../LUFA/Drivers/USB/Class/Device/RNDIS.c **** 		OID_GEN_VENDOR_DESCRIPTION,
  53:../LUFA/Drivers/USB/Class/Device/RNDIS.c **** 		OID_GEN_CURRENT_PACKET_FILTER,
  54:../LUFA/Drivers/USB/Class/Device/RNDIS.c **** 		OID_GEN_MAXIMUM_TOTAL_SIZE,
  55:../LUFA/Drivers/USB/Class/Device/RNDIS.c **** 		OID_GEN_MEDIA_CONNECT_STATUS,
  56:../LUFA/Drivers/USB/Class/Device/RNDIS.c **** 		OID_GEN_XMIT_OK,
  57:../LUFA/Drivers/USB/Class/Device/RNDIS.c **** 		OID_GEN_RCV_OK,
  58:../LUFA/Drivers/USB/Class/Device/RNDIS.c **** 		OID_GEN_XMIT_ERROR,
  59:../LUFA/Drivers/USB/Class/Device/RNDIS.c **** 		OID_GEN_RCV_ERROR,
  60:../LUFA/Drivers/USB/Class/Device/RNDIS.c **** 		OID_GEN_RCV_NO_BUFFER,
  61:../LUFA/Drivers/USB/Class/Device/RNDIS.c **** 		OID_802_3_PERMANENT_ADDRESS,
  62:../LUFA/Drivers/USB/Class/Device/RNDIS.c **** 		OID_802_3_CURRENT_ADDRESS,
  63:../LUFA/Drivers/USB/Class/Device/RNDIS.c **** 		OID_802_3_MULTICAST_LIST,
  64:../LUFA/Drivers/USB/Class/Device/RNDIS.c **** 		OID_802_3_MAXIMUM_LIST_SIZE,
  65:../LUFA/Drivers/USB/Class/Device/RNDIS.c **** 		OID_802_3_RCV_ERROR_ALIGNMENT,
  66:../LUFA/Drivers/USB/Class/Device/RNDIS.c **** 		OID_802_3_XMIT_ONE_COLLISION,
  67:../LUFA/Drivers/USB/Class/Device/RNDIS.c **** 		OID_802_3_XMIT_MORE_COLLISIONS,
  68:../LUFA/Drivers/USB/Class/Device/RNDIS.c **** 	};
  69:../LUFA/Drivers/USB/Class/Device/RNDIS.c **** 
  70:../LUFA/Drivers/USB/Class/Device/RNDIS.c **** void RNDIS_Device_ProcessControlRequest(USB_ClassInfo_RNDIS_Device_t* const RNDISInterfaceInfo)
  71:../LUFA/Drivers/USB/Class/Device/RNDIS.c **** {
  16               		.loc 1 71 0
  17               		.cfi_startproc
  18               	.LVL0:
  19 0000 0F93      		push r16
  20               	.LCFI0:
  21               		.cfi_def_cfa_offset 3
  22               		.cfi_offset 16, -2
  23 0002 1F93      		push r17
  24               	.LCFI1:
  25               		.cfi_def_cfa_offset 4
  26               		.cfi_offset 17, -3
  27 0004 CF93      		push r28
  28               	.LCFI2:
  29               		.cfi_def_cfa_offset 5
  30               		.cfi_offset 28, -4
  31 0006 DF93      		push r29
  32               	.LCFI3:
  33               		.cfi_def_cfa_offset 6
  34               		.cfi_offset 29, -5
  35               	/* prologue: function */
  36               	/* frame size = 0 */
  37               	/* stack size = 4 */
  38               	.L__stack_usage = 4
  39               	.LBB55:
  40               	.LBB56:
  41               		.file 2 "../LUFA/Drivers/USB/Class/Device/../../HighLevel/../LowLevel/Endpoint.h"
   1:../LUFA/Drivers/USB/Class/Device/../../HighLevel/../LowLevel/Endpoint.h **** /*
   2:../LUFA/Drivers/USB/Class/Device/../../HighLevel/../LowLevel/Endpoint.h ****              LUFA Library
   3:../LUFA/Drivers/USB/Class/Device/../../HighLevel/../LowLevel/Endpoint.h ****      Copyright (C) Dean Camera, 2010.
   4:../LUFA/Drivers/USB/Class/Device/../../HighLevel/../LowLevel/Endpoint.h ****               
   5:../LUFA/Drivers/USB/Class/Device/../../HighLevel/../LowLevel/Endpoint.h ****   dean [at] fourwalledcubicle [dot] com
   6:../LUFA/Drivers/USB/Class/Device/../../HighLevel/../LowLevel/Endpoint.h ****       www.fourwalledcubicle.com
   7:../LUFA/Drivers/USB/Class/Device/../../HighLevel/../LowLevel/Endpoint.h **** */
   8:../LUFA/Drivers/USB/Class/Device/../../HighLevel/../LowLevel/Endpoint.h **** 
   9:../LUFA/Drivers/USB/Class/Device/../../HighLevel/../LowLevel/Endpoint.h **** /*
  10:../LUFA/Drivers/USB/Class/Device/../../HighLevel/../LowLevel/Endpoint.h ****   Copyright 2010  Dean Camera (dean [at] fourwalledcubicle [dot] com)
  11:../LUFA/Drivers/USB/Class/Device/../../HighLevel/../LowLevel/Endpoint.h **** 
  12:../LUFA/Drivers/USB/Class/Device/../../HighLevel/../LowLevel/Endpoint.h ****   Permission to use, copy, modify, distribute, and sell this 
  13:../LUFA/Drivers/USB/Class/Device/../../HighLevel/../LowLevel/Endpoint.h ****   software and its documentation for any purpose is hereby granted
  14:../LUFA/Drivers/USB/Class/Device/../../HighLevel/../LowLevel/Endpoint.h ****   without fee, provided that the above copyright notice appear in 
  15:../LUFA/Drivers/USB/Class/Device/../../HighLevel/../LowLevel/Endpoint.h ****   all copies and that both that the copyright notice and this
  16:../LUFA/Drivers/USB/Class/Device/../../HighLevel/../LowLevel/Endpoint.h ****   permission notice and warranty disclaimer appear in supporting 
  17:../LUFA/Drivers/USB/Class/Device/../../HighLevel/../LowLevel/Endpoint.h ****   documentation, and that the name of the author not be used in 
  18:../LUFA/Drivers/USB/Class/Device/../../HighLevel/../LowLevel/Endpoint.h ****   advertising or publicity pertaining to distribution of the 
  19:../LUFA/Drivers/USB/Class/Device/../../HighLevel/../LowLevel/Endpoint.h ****   software without specific, written prior permission.
  20:../LUFA/Drivers/USB/Class/Device/../../HighLevel/../LowLevel/Endpoint.h **** 
  21:../LUFA/Drivers/USB/Class/Device/../../HighLevel/../LowLevel/Endpoint.h ****   The author disclaim all warranties with regard to this
  22:../LUFA/Drivers/USB/Class/Device/../../HighLevel/../LowLevel/Endpoint.h ****   software, including all implied warranties of merchantability
  23:../LUFA/Drivers/USB/Class/Device/../../HighLevel/../LowLevel/Endpoint.h ****   and fitness.  In no event shall the author be liable for any
  24:../LUFA/Drivers/USB/Class/Device/../../HighLevel/../LowLevel/Endpoint.h ****   special, indirect or consequential damages or any damages
  25:../LUFA/Drivers/USB/Class/Device/../../HighLevel/../LowLevel/Endpoint.h ****   whatsoever resulting from loss of use, data or profits, whether
  26:../LUFA/Drivers/USB/Class/Device/../../HighLevel/../LowLevel/Endpoint.h ****   in an action of contract, negligence or other tortious action,
  27:../LUFA/Drivers/USB/Class/Device/../../HighLevel/../LowLevel/Endpoint.h ****   arising out of or in connection with the use or performance of
  28:../LUFA/Drivers/USB/Class/Device/../../HighLevel/../LowLevel/Endpoint.h ****   this software.
  29:../LUFA/Drivers/USB/Class/Device/../../HighLevel/../LowLevel/Endpoint.h **** */
  30:../LUFA/Drivers/USB/Class/Device/../../HighLevel/../LowLevel/Endpoint.h **** 
  31:../LUFA/Drivers/USB/Class/Device/../../HighLevel/../LowLevel/Endpoint.h **** /** \file
  32:../LUFA/Drivers/USB/Class/Device/../../HighLevel/../LowLevel/Endpoint.h ****  *  \brief USB device endpoint management definitions.
  33:../LUFA/Drivers/USB/Class/Device/../../HighLevel/../LowLevel/Endpoint.h ****  *
  34:../LUFA/Drivers/USB/Class/Device/../../HighLevel/../LowLevel/Endpoint.h ****  *  This file contains structures, function prototypes and macros related to the management of the 
  35:../LUFA/Drivers/USB/Class/Device/../../HighLevel/../LowLevel/Endpoint.h ****  *  data endpoints when the library is initialized in USB device mode.
  36:../LUFA/Drivers/USB/Class/Device/../../HighLevel/../LowLevel/Endpoint.h ****  *
  37:../LUFA/Drivers/USB/Class/Device/../../HighLevel/../LowLevel/Endpoint.h ****  *  \note This file should not be included directly. It is automatically included as needed by the 
  38:../LUFA/Drivers/USB/Class/Device/../../HighLevel/../LowLevel/Endpoint.h ****  *        dispatch header located in LUFA/Drivers/USB/USB.h.
  39:../LUFA/Drivers/USB/Class/Device/../../HighLevel/../LowLevel/Endpoint.h ****  */
  40:../LUFA/Drivers/USB/Class/Device/../../HighLevel/../LowLevel/Endpoint.h **** 
  41:../LUFA/Drivers/USB/Class/Device/../../HighLevel/../LowLevel/Endpoint.h **** /** \ingroup Group_USB
  42:../LUFA/Drivers/USB/Class/Device/../../HighLevel/../LowLevel/Endpoint.h ****  *  @defgroup Group_EndpointManagement Endpoint Management
  43:../LUFA/Drivers/USB/Class/Device/../../HighLevel/../LowLevel/Endpoint.h ****  *
  44:../LUFA/Drivers/USB/Class/Device/../../HighLevel/../LowLevel/Endpoint.h ****  *  Functions, macros and enums related to endpoint management when in USB Device mode. This
  45:../LUFA/Drivers/USB/Class/Device/../../HighLevel/../LowLevel/Endpoint.h ****  *  module contains the endpoint management macros, as well as endpoint interrupt and data
  46:../LUFA/Drivers/USB/Class/Device/../../HighLevel/../LowLevel/Endpoint.h ****  *  send/receive functions for various data types.
  47:../LUFA/Drivers/USB/Class/Device/../../HighLevel/../LowLevel/Endpoint.h ****  *
  48:../LUFA/Drivers/USB/Class/Device/../../HighLevel/../LowLevel/Endpoint.h ****  *  @{
  49:../LUFA/Drivers/USB/Class/Device/../../HighLevel/../LowLevel/Endpoint.h ****  */
  50:../LUFA/Drivers/USB/Class/Device/../../HighLevel/../LowLevel/Endpoint.h **** 
  51:../LUFA/Drivers/USB/Class/Device/../../HighLevel/../LowLevel/Endpoint.h **** /** @defgroup Group_EndpointRW Endpoint Data Reading and Writing
  52:../LUFA/Drivers/USB/Class/Device/../../HighLevel/../LowLevel/Endpoint.h ****  *
  53:../LUFA/Drivers/USB/Class/Device/../../HighLevel/../LowLevel/Endpoint.h ****  *  Functions, macros, variables, enums and types related to data reading and writing from and to e
  54:../LUFA/Drivers/USB/Class/Device/../../HighLevel/../LowLevel/Endpoint.h ****  */
  55:../LUFA/Drivers/USB/Class/Device/../../HighLevel/../LowLevel/Endpoint.h ****  
  56:../LUFA/Drivers/USB/Class/Device/../../HighLevel/../LowLevel/Endpoint.h **** /** \ingroup Group_EndpointRW  
  57:../LUFA/Drivers/USB/Class/Device/../../HighLevel/../LowLevel/Endpoint.h ****  *  @defgroup Group_EndpointPrimitiveRW Read/Write of Primitive Data Types
  58:../LUFA/Drivers/USB/Class/Device/../../HighLevel/../LowLevel/Endpoint.h ****  *
  59:../LUFA/Drivers/USB/Class/Device/../../HighLevel/../LowLevel/Endpoint.h ****  *  Functions, macros, variables, enums and types related to data reading and writing of primitive 
  60:../LUFA/Drivers/USB/Class/Device/../../HighLevel/../LowLevel/Endpoint.h ****  *  from and to endpoints.
  61:../LUFA/Drivers/USB/Class/Device/../../HighLevel/../LowLevel/Endpoint.h ****  */ 
  62:../LUFA/Drivers/USB/Class/Device/../../HighLevel/../LowLevel/Endpoint.h **** 
  63:../LUFA/Drivers/USB/Class/Device/../../HighLevel/../LowLevel/Endpoint.h **** /** \ingroup Group_EndpointRW  
  64:../LUFA/Drivers/USB/Class/Device/../../HighLevel/../LowLevel/Endpoint.h ****  *  @defgroup Group_EndpointStreamRW Read/Write of Multi-Byte Streams
  65:../LUFA/Drivers/USB/Class/Device/../../HighLevel/../LowLevel/Endpoint.h ****  *
  66:../LUFA/Drivers/USB/Class/Device/../../HighLevel/../LowLevel/Endpoint.h ****  *  Functions, macros, variables, enums and types related to data reading and writing of data strea
  67:../LUFA/Drivers/USB/Class/Device/../../HighLevel/../LowLevel/Endpoint.h ****  *  and to endpoints.
  68:../LUFA/Drivers/USB/Class/Device/../../HighLevel/../LowLevel/Endpoint.h ****  */ 
  69:../LUFA/Drivers/USB/Class/Device/../../HighLevel/../LowLevel/Endpoint.h **** 
  70:../LUFA/Drivers/USB/Class/Device/../../HighLevel/../LowLevel/Endpoint.h **** /** @defgroup Group_EndpointPacketManagement Endpoint Packet Management
  71:../LUFA/Drivers/USB/Class/Device/../../HighLevel/../LowLevel/Endpoint.h ****  *
  72:../LUFA/Drivers/USB/Class/Device/../../HighLevel/../LowLevel/Endpoint.h ****  *  Functions, macros, variables, enums and types related to packet management of endpoints.
  73:../LUFA/Drivers/USB/Class/Device/../../HighLevel/../LowLevel/Endpoint.h ****  */
  74:../LUFA/Drivers/USB/Class/Device/../../HighLevel/../LowLevel/Endpoint.h **** 
  75:../LUFA/Drivers/USB/Class/Device/../../HighLevel/../LowLevel/Endpoint.h **** #ifndef __ENDPOINT_H__
  76:../LUFA/Drivers/USB/Class/Device/../../HighLevel/../LowLevel/Endpoint.h **** #define __ENDPOINT_H__
  77:../LUFA/Drivers/USB/Class/Device/../../HighLevel/../LowLevel/Endpoint.h **** 
  78:../LUFA/Drivers/USB/Class/Device/../../HighLevel/../LowLevel/Endpoint.h **** 	/* Includes: */
  79:../LUFA/Drivers/USB/Class/Device/../../HighLevel/../LowLevel/Endpoint.h **** 		#include <avr/io.h>
  80:../LUFA/Drivers/USB/Class/Device/../../HighLevel/../LowLevel/Endpoint.h **** 		#include <avr/pgmspace.h>
  81:../LUFA/Drivers/USB/Class/Device/../../HighLevel/../LowLevel/Endpoint.h **** 		#include <avr/eeprom.h>
  82:../LUFA/Drivers/USB/Class/Device/../../HighLevel/../LowLevel/Endpoint.h **** 		#include <stdbool.h>
  83:../LUFA/Drivers/USB/Class/Device/../../HighLevel/../LowLevel/Endpoint.h **** 
  84:../LUFA/Drivers/USB/Class/Device/../../HighLevel/../LowLevel/Endpoint.h **** 		#include "../../../Common/Common.h"
  85:../LUFA/Drivers/USB/Class/Device/../../HighLevel/../LowLevel/Endpoint.h **** 		#include "../HighLevel/USBTask.h"
  86:../LUFA/Drivers/USB/Class/Device/../../HighLevel/../LowLevel/Endpoint.h **** 		#include "USBInterrupt.h"
  87:../LUFA/Drivers/USB/Class/Device/../../HighLevel/../LowLevel/Endpoint.h **** 
  88:../LUFA/Drivers/USB/Class/Device/../../HighLevel/../LowLevel/Endpoint.h **** 		#if !defined(NO_STREAM_CALLBACKS) || defined(__DOXYGEN__)
  89:../LUFA/Drivers/USB/Class/Device/../../HighLevel/../LowLevel/Endpoint.h **** 			#include "../HighLevel/StreamCallbacks.h"
  90:../LUFA/Drivers/USB/Class/Device/../../HighLevel/../LowLevel/Endpoint.h **** 		#endif
  91:../LUFA/Drivers/USB/Class/Device/../../HighLevel/../LowLevel/Endpoint.h **** 		
  92:../LUFA/Drivers/USB/Class/Device/../../HighLevel/../LowLevel/Endpoint.h **** 	/* Enable C linkage for C++ Compilers: */
  93:../LUFA/Drivers/USB/Class/Device/../../HighLevel/../LowLevel/Endpoint.h **** 		#if defined(__cplusplus)
  94:../LUFA/Drivers/USB/Class/Device/../../HighLevel/../LowLevel/Endpoint.h **** 			extern "C" {
  95:../LUFA/Drivers/USB/Class/Device/../../HighLevel/../LowLevel/Endpoint.h **** 		#endif
  96:../LUFA/Drivers/USB/Class/Device/../../HighLevel/../LowLevel/Endpoint.h **** 
  97:../LUFA/Drivers/USB/Class/Device/../../HighLevel/../LowLevel/Endpoint.h **** 	/* Preprocessor Checks: */
  98:../LUFA/Drivers/USB/Class/Device/../../HighLevel/../LowLevel/Endpoint.h **** 		#if !defined(__INCLUDE_FROM_USB_DRIVER)
  99:../LUFA/Drivers/USB/Class/Device/../../HighLevel/../LowLevel/Endpoint.h **** 			#error Do not include this file directly. Include LUFA/Drivers/USB/USB.h instead.
 100:../LUFA/Drivers/USB/Class/Device/../../HighLevel/../LowLevel/Endpoint.h **** 		#endif
 101:../LUFA/Drivers/USB/Class/Device/../../HighLevel/../LowLevel/Endpoint.h **** 		
 102:../LUFA/Drivers/USB/Class/Device/../../HighLevel/../LowLevel/Endpoint.h **** 	/* Public Interface - May be used in end-application: */
 103:../LUFA/Drivers/USB/Class/Device/../../HighLevel/../LowLevel/Endpoint.h **** 		/* Macros: */
 104:../LUFA/Drivers/USB/Class/Device/../../HighLevel/../LowLevel/Endpoint.h **** 			/** Endpoint data direction mask for \ref Endpoint_ConfigureEndpoint(). This indicates that the 
 105:../LUFA/Drivers/USB/Class/Device/../../HighLevel/../LowLevel/Endpoint.h **** 			 *  should be initialized in the OUT direction - i.e. data flows from host to device.
 106:../LUFA/Drivers/USB/Class/Device/../../HighLevel/../LowLevel/Endpoint.h **** 			 */
 107:../LUFA/Drivers/USB/Class/Device/../../HighLevel/../LowLevel/Endpoint.h **** 			#define ENDPOINT_DIR_OUT                      (0 << EPDIR)
 108:../LUFA/Drivers/USB/Class/Device/../../HighLevel/../LowLevel/Endpoint.h **** 
 109:../LUFA/Drivers/USB/Class/Device/../../HighLevel/../LowLevel/Endpoint.h **** 			/** Endpoint data direction mask for \ref Endpoint_ConfigureEndpoint(). This indicates that the 
 110:../LUFA/Drivers/USB/Class/Device/../../HighLevel/../LowLevel/Endpoint.h **** 			 *  should be initialized in the IN direction - i.e. data flows from device to host.
 111:../LUFA/Drivers/USB/Class/Device/../../HighLevel/../LowLevel/Endpoint.h **** 			 */
 112:../LUFA/Drivers/USB/Class/Device/../../HighLevel/../LowLevel/Endpoint.h **** 			#define ENDPOINT_DIR_IN                       (1 << EPDIR)
 113:../LUFA/Drivers/USB/Class/Device/../../HighLevel/../LowLevel/Endpoint.h **** 
 114:../LUFA/Drivers/USB/Class/Device/../../HighLevel/../LowLevel/Endpoint.h **** 			/** Mask for the bank mode selection for the \ref Endpoint_ConfigureEndpoint() macro. This indic
 115:../LUFA/Drivers/USB/Class/Device/../../HighLevel/../LowLevel/Endpoint.h **** 			 *  that the endpoint should have one single bank, which requires less USB FIFO memory but resul
 116:../LUFA/Drivers/USB/Class/Device/../../HighLevel/../LowLevel/Endpoint.h **** 			 *  in slower transfers as only one USB device (the AVR or the host) can access the endpoint's
 117:../LUFA/Drivers/USB/Class/Device/../../HighLevel/../LowLevel/Endpoint.h **** 			 *  bank at the one time.
 118:../LUFA/Drivers/USB/Class/Device/../../HighLevel/../LowLevel/Endpoint.h **** 			 */
 119:../LUFA/Drivers/USB/Class/Device/../../HighLevel/../LowLevel/Endpoint.h **** 			#define ENDPOINT_BANK_SINGLE                  (0 << EPBK0)
 120:../LUFA/Drivers/USB/Class/Device/../../HighLevel/../LowLevel/Endpoint.h **** 
 121:../LUFA/Drivers/USB/Class/Device/../../HighLevel/../LowLevel/Endpoint.h **** 			/** Mask for the bank mode selection for the \ref Endpoint_ConfigureEndpoint() macro. This indic
 122:../LUFA/Drivers/USB/Class/Device/../../HighLevel/../LowLevel/Endpoint.h **** 			 *  that the endpoint should have two banks, which requires more USB FIFO memory but results
 123:../LUFA/Drivers/USB/Class/Device/../../HighLevel/../LowLevel/Endpoint.h **** 			 *  in faster transfers as one USB device (the AVR or the host) can access one bank while the ot
 124:../LUFA/Drivers/USB/Class/Device/../../HighLevel/../LowLevel/Endpoint.h **** 			 *  accesses the second bank.
 125:../LUFA/Drivers/USB/Class/Device/../../HighLevel/../LowLevel/Endpoint.h **** 			 */
 126:../LUFA/Drivers/USB/Class/Device/../../HighLevel/../LowLevel/Endpoint.h **** 			#define ENDPOINT_BANK_DOUBLE                  (1 << EPBK0)
 127:../LUFA/Drivers/USB/Class/Device/../../HighLevel/../LowLevel/Endpoint.h **** 			
 128:../LUFA/Drivers/USB/Class/Device/../../HighLevel/../LowLevel/Endpoint.h **** 			/** Endpoint address for the default control endpoint, which always resides in address 0. This i
 129:../LUFA/Drivers/USB/Class/Device/../../HighLevel/../LowLevel/Endpoint.h **** 			 *  defined for convenience to give more readable code when used with the endpoint macros.
 130:../LUFA/Drivers/USB/Class/Device/../../HighLevel/../LowLevel/Endpoint.h **** 			 */
 131:../LUFA/Drivers/USB/Class/Device/../../HighLevel/../LowLevel/Endpoint.h **** 			#define ENDPOINT_CONTROLEP                    0
 132:../LUFA/Drivers/USB/Class/Device/../../HighLevel/../LowLevel/Endpoint.h **** 
 133:../LUFA/Drivers/USB/Class/Device/../../HighLevel/../LowLevel/Endpoint.h **** 			#if (!defined(FIXED_CONTROL_ENDPOINT_SIZE) || defined(__DOXYGEN__))
 134:../LUFA/Drivers/USB/Class/Device/../../HighLevel/../LowLevel/Endpoint.h **** 				/** Default size of the default control endpoint's bank, until altered by the control endpoint 
 135:../LUFA/Drivers/USB/Class/Device/../../HighLevel/../LowLevel/Endpoint.h **** 				 *  value in the device descriptor. Not available if the FIXED_CONTROL_ENDPOINT_SIZE token is d
 136:../LUFA/Drivers/USB/Class/Device/../../HighLevel/../LowLevel/Endpoint.h **** 				 */
 137:../LUFA/Drivers/USB/Class/Device/../../HighLevel/../LowLevel/Endpoint.h **** 				#define ENDPOINT_CONTROLEP_DEFAULT_SIZE   8
 138:../LUFA/Drivers/USB/Class/Device/../../HighLevel/../LowLevel/Endpoint.h **** 			#endif
 139:../LUFA/Drivers/USB/Class/Device/../../HighLevel/../LowLevel/Endpoint.h **** 			
 140:../LUFA/Drivers/USB/Class/Device/../../HighLevel/../LowLevel/Endpoint.h **** 			/** Endpoint number mask, for masking against endpoint addresses to retrieve the endpoint's
 141:../LUFA/Drivers/USB/Class/Device/../../HighLevel/../LowLevel/Endpoint.h **** 			 *  numerical address in the device.
 142:../LUFA/Drivers/USB/Class/Device/../../HighLevel/../LowLevel/Endpoint.h **** 			 */
 143:../LUFA/Drivers/USB/Class/Device/../../HighLevel/../LowLevel/Endpoint.h **** 			#define ENDPOINT_EPNUM_MASK                   0x07
 144:../LUFA/Drivers/USB/Class/Device/../../HighLevel/../LowLevel/Endpoint.h **** 
 145:../LUFA/Drivers/USB/Class/Device/../../HighLevel/../LowLevel/Endpoint.h **** 			/** Endpoint direction mask, for masking against endpoint addresses to retrieve the endpoint's
 146:../LUFA/Drivers/USB/Class/Device/../../HighLevel/../LowLevel/Endpoint.h **** 			 *  direction for comparing with the ENDPOINT_DESCRIPTOR_DIR_* masks.
 147:../LUFA/Drivers/USB/Class/Device/../../HighLevel/../LowLevel/Endpoint.h **** 			 */
 148:../LUFA/Drivers/USB/Class/Device/../../HighLevel/../LowLevel/Endpoint.h **** 			#define ENDPOINT_EPDIR_MASK                   0x80
 149:../LUFA/Drivers/USB/Class/Device/../../HighLevel/../LowLevel/Endpoint.h **** 
 150:../LUFA/Drivers/USB/Class/Device/../../HighLevel/../LowLevel/Endpoint.h **** 			/** Endpoint bank size mask, for masking against endpoint addresses to retrieve the endpoint's
 151:../LUFA/Drivers/USB/Class/Device/../../HighLevel/../LowLevel/Endpoint.h **** 			 *  bank size in the device.
 152:../LUFA/Drivers/USB/Class/Device/../../HighLevel/../LowLevel/Endpoint.h **** 			 */
 153:../LUFA/Drivers/USB/Class/Device/../../HighLevel/../LowLevel/Endpoint.h **** 			#define ENDPOINT_EPSIZE_MASK                  0x7F
 154:../LUFA/Drivers/USB/Class/Device/../../HighLevel/../LowLevel/Endpoint.h **** 			
 155:../LUFA/Drivers/USB/Class/Device/../../HighLevel/../LowLevel/Endpoint.h **** 			/** Maximum size in bytes of a given endpoint.
 156:../LUFA/Drivers/USB/Class/Device/../../HighLevel/../LowLevel/Endpoint.h **** 			 *
 157:../LUFA/Drivers/USB/Class/Device/../../HighLevel/../LowLevel/Endpoint.h **** 			 *  \param[in] n  Endpoint number, a value between 0 and (ENDPOINT_TOTAL_ENDPOINTS - 1)
 158:../LUFA/Drivers/USB/Class/Device/../../HighLevel/../LowLevel/Endpoint.h **** 			 */				
 159:../LUFA/Drivers/USB/Class/Device/../../HighLevel/../LowLevel/Endpoint.h **** 			#define ENDPOINT_MAX_SIZE(n)                  _ENDPOINT_GET_MAXSIZE(n)
 160:../LUFA/Drivers/USB/Class/Device/../../HighLevel/../LowLevel/Endpoint.h **** 
 161:../LUFA/Drivers/USB/Class/Device/../../HighLevel/../LowLevel/Endpoint.h **** 			/** Indicates if the given endpoint supports double banking.
 162:../LUFA/Drivers/USB/Class/Device/../../HighLevel/../LowLevel/Endpoint.h **** 			 *
 163:../LUFA/Drivers/USB/Class/Device/../../HighLevel/../LowLevel/Endpoint.h **** 			 *  \param[in] n  Endpoint number, a value between 0 and (ENDPOINT_TOTAL_ENDPOINTS - 1)
 164:../LUFA/Drivers/USB/Class/Device/../../HighLevel/../LowLevel/Endpoint.h **** 			 */				
 165:../LUFA/Drivers/USB/Class/Device/../../HighLevel/../LowLevel/Endpoint.h **** 			#define ENDPOINT_DOUBLEBANK_SUPPORTED(n)      _ENDPOINT_GET_DOUBLEBANK(n)
 166:../LUFA/Drivers/USB/Class/Device/../../HighLevel/../LowLevel/Endpoint.h **** 
 167:../LUFA/Drivers/USB/Class/Device/../../HighLevel/../LowLevel/Endpoint.h **** 			#if !defined(CONTROL_ONLY_DEVICE)
 168:../LUFA/Drivers/USB/Class/Device/../../HighLevel/../LowLevel/Endpoint.h **** 				#if defined(USB_SERIES_4_AVR) || defined(USB_SERIES_6_AVR) || defined(USB_SERIES_7_AVR) || defi
 169:../LUFA/Drivers/USB/Class/Device/../../HighLevel/../LowLevel/Endpoint.h **** 					/** Total number of endpoints (including the default control endpoint at address 0) which may
 170:../LUFA/Drivers/USB/Class/Device/../../HighLevel/../LowLevel/Endpoint.h **** 					 *  be used in the device. Different USB AVR models support different amounts of endpoints,
 171:../LUFA/Drivers/USB/Class/Device/../../HighLevel/../LowLevel/Endpoint.h **** 					 *  this value reflects the maximum number of endpoints for the currently selected AVR model.
 172:../LUFA/Drivers/USB/Class/Device/../../HighLevel/../LowLevel/Endpoint.h **** 					 */
 173:../LUFA/Drivers/USB/Class/Device/../../HighLevel/../LowLevel/Endpoint.h **** 					#define ENDPOINT_TOTAL_ENDPOINTS      7
 174:../LUFA/Drivers/USB/Class/Device/../../HighLevel/../LowLevel/Endpoint.h **** 				#else
 175:../LUFA/Drivers/USB/Class/Device/../../HighLevel/../LowLevel/Endpoint.h **** 					#define ENDPOINT_TOTAL_ENDPOINTS      5
 176:../LUFA/Drivers/USB/Class/Device/../../HighLevel/../LowLevel/Endpoint.h **** 				#endif
 177:../LUFA/Drivers/USB/Class/Device/../../HighLevel/../LowLevel/Endpoint.h **** 			#else
 178:../LUFA/Drivers/USB/Class/Device/../../HighLevel/../LowLevel/Endpoint.h **** 				#define ENDPOINT_TOTAL_ENDPOINTS          1
 179:../LUFA/Drivers/USB/Class/Device/../../HighLevel/../LowLevel/Endpoint.h **** 			#endif
 180:../LUFA/Drivers/USB/Class/Device/../../HighLevel/../LowLevel/Endpoint.h **** 
 181:../LUFA/Drivers/USB/Class/Device/../../HighLevel/../LowLevel/Endpoint.h **** 		/* Enums: */
 182:../LUFA/Drivers/USB/Class/Device/../../HighLevel/../LowLevel/Endpoint.h **** 			/** Enum for the possible error return codes of the \ref Endpoint_WaitUntilReady() function.
 183:../LUFA/Drivers/USB/Class/Device/../../HighLevel/../LowLevel/Endpoint.h **** 			 *
 184:../LUFA/Drivers/USB/Class/Device/../../HighLevel/../LowLevel/Endpoint.h **** 			 *  \ingroup Group_EndpointRW
 185:../LUFA/Drivers/USB/Class/Device/../../HighLevel/../LowLevel/Endpoint.h **** 			 */
 186:../LUFA/Drivers/USB/Class/Device/../../HighLevel/../LowLevel/Endpoint.h **** 			enum Endpoint_WaitUntilReady_ErrorCodes_t
 187:../LUFA/Drivers/USB/Class/Device/../../HighLevel/../LowLevel/Endpoint.h **** 			{
 188:../LUFA/Drivers/USB/Class/Device/../../HighLevel/../LowLevel/Endpoint.h **** 				ENDPOINT_READYWAIT_NoError                 = 0, /**< Endpoint is ready for next packet, no erro
 189:../LUFA/Drivers/USB/Class/Device/../../HighLevel/../LowLevel/Endpoint.h **** 				ENDPOINT_READYWAIT_EndpointStalled         = 1, /**< The endpoint was stalled during the stream
 190:../LUFA/Drivers/USB/Class/Device/../../HighLevel/../LowLevel/Endpoint.h **** 				                                                 *   transfer by the host or device.
 191:../LUFA/Drivers/USB/Class/Device/../../HighLevel/../LowLevel/Endpoint.h **** 				                                                 */
 192:../LUFA/Drivers/USB/Class/Device/../../HighLevel/../LowLevel/Endpoint.h **** 				ENDPOINT_READYWAIT_DeviceDisconnected      = 2,	/**< Device was disconnected from the host whil
 193:../LUFA/Drivers/USB/Class/Device/../../HighLevel/../LowLevel/Endpoint.h **** 				                                                 *   waiting for the endpoint to become ready.
 194:../LUFA/Drivers/USB/Class/Device/../../HighLevel/../LowLevel/Endpoint.h **** 				                                                 */
 195:../LUFA/Drivers/USB/Class/Device/../../HighLevel/../LowLevel/Endpoint.h **** 				ENDPOINT_READYWAIT_BusSuspended            = 3, /**< The USB bus has been suspended by the host
 196:../LUFA/Drivers/USB/Class/Device/../../HighLevel/../LowLevel/Endpoint.h **** 				                                                 *   no USB endpoint traffic can occur until th
 197:../LUFA/Drivers/USB/Class/Device/../../HighLevel/../LowLevel/Endpoint.h **** 				                                                 *   has resumed.
 198:../LUFA/Drivers/USB/Class/Device/../../HighLevel/../LowLevel/Endpoint.h **** 				                                                 */
 199:../LUFA/Drivers/USB/Class/Device/../../HighLevel/../LowLevel/Endpoint.h **** 				ENDPOINT_READYWAIT_Timeout                 = 4, /**< The host failed to accept or send the next
 200:../LUFA/Drivers/USB/Class/Device/../../HighLevel/../LowLevel/Endpoint.h **** 				                                                 *   within the software timeout period set by 
 201:../LUFA/Drivers/USB/Class/Device/../../HighLevel/../LowLevel/Endpoint.h **** 				                                                 *   \ref USB_STREAM_TIMEOUT_MS macro.
 202:../LUFA/Drivers/USB/Class/Device/../../HighLevel/../LowLevel/Endpoint.h **** 				                                                 */
 203:../LUFA/Drivers/USB/Class/Device/../../HighLevel/../LowLevel/Endpoint.h **** 			};
 204:../LUFA/Drivers/USB/Class/Device/../../HighLevel/../LowLevel/Endpoint.h **** 		
 205:../LUFA/Drivers/USB/Class/Device/../../HighLevel/../LowLevel/Endpoint.h **** 			/** Enum for the possible error return codes of the Endpoint_*_Stream_* functions.
 206:../LUFA/Drivers/USB/Class/Device/../../HighLevel/../LowLevel/Endpoint.h **** 			 *
 207:../LUFA/Drivers/USB/Class/Device/../../HighLevel/../LowLevel/Endpoint.h **** 			 *  \ingroup Group_EndpointStreamRW
 208:../LUFA/Drivers/USB/Class/Device/../../HighLevel/../LowLevel/Endpoint.h **** 			 */
 209:../LUFA/Drivers/USB/Class/Device/../../HighLevel/../LowLevel/Endpoint.h **** 			enum Endpoint_Stream_RW_ErrorCodes_t
 210:../LUFA/Drivers/USB/Class/Device/../../HighLevel/../LowLevel/Endpoint.h **** 			{
 211:../LUFA/Drivers/USB/Class/Device/../../HighLevel/../LowLevel/Endpoint.h **** 				ENDPOINT_RWSTREAM_NoError            = 0, /**< Command completed successfully, no error. */
 212:../LUFA/Drivers/USB/Class/Device/../../HighLevel/../LowLevel/Endpoint.h **** 				ENDPOINT_RWSTREAM_EndpointStalled    = 1, /**< The endpoint was stalled during the stream
 213:../LUFA/Drivers/USB/Class/Device/../../HighLevel/../LowLevel/Endpoint.h **** 				                                           *   transfer by the host or device.
 214:../LUFA/Drivers/USB/Class/Device/../../HighLevel/../LowLevel/Endpoint.h **** 				                                           */
 215:../LUFA/Drivers/USB/Class/Device/../../HighLevel/../LowLevel/Endpoint.h **** 				ENDPOINT_RWSTREAM_DeviceDisconnected = 2, /**< Device was disconnected from the host during
 216:../LUFA/Drivers/USB/Class/Device/../../HighLevel/../LowLevel/Endpoint.h **** 				                                           *   the transfer.
 217:../LUFA/Drivers/USB/Class/Device/../../HighLevel/../LowLevel/Endpoint.h **** 				                                           */
 218:../LUFA/Drivers/USB/Class/Device/../../HighLevel/../LowLevel/Endpoint.h **** 				ENDPOINT_RWSTREAM_BusSuspended       = 3, /**< The USB bus has been suspended by the host and
 219:../LUFA/Drivers/USB/Class/Device/../../HighLevel/../LowLevel/Endpoint.h **** 				                                           *   no USB endpoint traffic can occur until the bus
 220:../LUFA/Drivers/USB/Class/Device/../../HighLevel/../LowLevel/Endpoint.h **** 				                                           *   has resumed.
 221:../LUFA/Drivers/USB/Class/Device/../../HighLevel/../LowLevel/Endpoint.h **** 				                                           */
 222:../LUFA/Drivers/USB/Class/Device/../../HighLevel/../LowLevel/Endpoint.h **** 				ENDPOINT_RWSTREAM_Timeout            = 4, /**< The host failed to accept or send the next packe
 223:../LUFA/Drivers/USB/Class/Device/../../HighLevel/../LowLevel/Endpoint.h **** 				                                           *   within the software timeout period set by the
 224:../LUFA/Drivers/USB/Class/Device/../../HighLevel/../LowLevel/Endpoint.h **** 				                                           *   \ref USB_STREAM_TIMEOUT_MS macro.
 225:../LUFA/Drivers/USB/Class/Device/../../HighLevel/../LowLevel/Endpoint.h **** 				                                           */
 226:../LUFA/Drivers/USB/Class/Device/../../HighLevel/../LowLevel/Endpoint.h **** 				ENDPOINT_RWSTREAM_CallbackAborted    = 5, /**< Indicates that the stream's callback function
 227:../LUFA/Drivers/USB/Class/Device/../../HighLevel/../LowLevel/Endpoint.h **** 			                                               *   aborted the transfer early.
 228:../LUFA/Drivers/USB/Class/Device/../../HighLevel/../LowLevel/Endpoint.h **** 				                                           */
 229:../LUFA/Drivers/USB/Class/Device/../../HighLevel/../LowLevel/Endpoint.h **** 			};
 230:../LUFA/Drivers/USB/Class/Device/../../HighLevel/../LowLevel/Endpoint.h **** 			
 231:../LUFA/Drivers/USB/Class/Device/../../HighLevel/../LowLevel/Endpoint.h **** 			/** Enum for the possible error return codes of the Endpoint_*_Control_Stream_* functions..
 232:../LUFA/Drivers/USB/Class/Device/../../HighLevel/../LowLevel/Endpoint.h **** 			 *
 233:../LUFA/Drivers/USB/Class/Device/../../HighLevel/../LowLevel/Endpoint.h **** 			 *  \ingroup Group_EndpointStreamRW
 234:../LUFA/Drivers/USB/Class/Device/../../HighLevel/../LowLevel/Endpoint.h **** 			 */
 235:../LUFA/Drivers/USB/Class/Device/../../HighLevel/../LowLevel/Endpoint.h **** 			enum Endpoint_ControlStream_RW_ErrorCodes_t
 236:../LUFA/Drivers/USB/Class/Device/../../HighLevel/../LowLevel/Endpoint.h **** 			{
 237:../LUFA/Drivers/USB/Class/Device/../../HighLevel/../LowLevel/Endpoint.h **** 				ENDPOINT_RWCSTREAM_NoError            = 0, /**< Command completed successfully, no error. */
 238:../LUFA/Drivers/USB/Class/Device/../../HighLevel/../LowLevel/Endpoint.h **** 				ENDPOINT_RWCSTREAM_HostAborted        = 1, /**< The aborted the transfer prematurely. */
 239:../LUFA/Drivers/USB/Class/Device/../../HighLevel/../LowLevel/Endpoint.h **** 				ENDPOINT_RWCSTREAM_DeviceDisconnected = 2, /**< Device was disconnected from the host during
 240:../LUFA/Drivers/USB/Class/Device/../../HighLevel/../LowLevel/Endpoint.h **** 				                                            *   the transfer.
 241:../LUFA/Drivers/USB/Class/Device/../../HighLevel/../LowLevel/Endpoint.h **** 				                                            */
 242:../LUFA/Drivers/USB/Class/Device/../../HighLevel/../LowLevel/Endpoint.h **** 				ENDPOINT_RWCSTREAM_BusSuspended       = 3, /**< The USB bus has been suspended by the host and
 243:../LUFA/Drivers/USB/Class/Device/../../HighLevel/../LowLevel/Endpoint.h **** 				                                            *   no USB endpoint traffic can occur until the bus
 244:../LUFA/Drivers/USB/Class/Device/../../HighLevel/../LowLevel/Endpoint.h **** 				                                            *   has resumed.
 245:../LUFA/Drivers/USB/Class/Device/../../HighLevel/../LowLevel/Endpoint.h **** 				                                            */
 246:../LUFA/Drivers/USB/Class/Device/../../HighLevel/../LowLevel/Endpoint.h **** 			};
 247:../LUFA/Drivers/USB/Class/Device/../../HighLevel/../LowLevel/Endpoint.h **** 
 248:../LUFA/Drivers/USB/Class/Device/../../HighLevel/../LowLevel/Endpoint.h **** 		/* Inline Functions: */
 249:../LUFA/Drivers/USB/Class/Device/../../HighLevel/../LowLevel/Endpoint.h **** 			/** Indicates the number of bytes currently stored in the current endpoint's selected bank.
 250:../LUFA/Drivers/USB/Class/Device/../../HighLevel/../LowLevel/Endpoint.h **** 			 *
 251:../LUFA/Drivers/USB/Class/Device/../../HighLevel/../LowLevel/Endpoint.h **** 			 *  \note The return width of this function may differ, depending on the maximum endpoint bank s
 252:../LUFA/Drivers/USB/Class/Device/../../HighLevel/../LowLevel/Endpoint.h **** 			 *        of the selected AVR model.
 253:../LUFA/Drivers/USB/Class/Device/../../HighLevel/../LowLevel/Endpoint.h **** 			 *
 254:../LUFA/Drivers/USB/Class/Device/../../HighLevel/../LowLevel/Endpoint.h **** 			 *  \ingroup Group_EndpointRW
 255:../LUFA/Drivers/USB/Class/Device/../../HighLevel/../LowLevel/Endpoint.h **** 			 *
 256:../LUFA/Drivers/USB/Class/Device/../../HighLevel/../LowLevel/Endpoint.h **** 			 *  \return Total number of bytes in the currently selected Endpoint's FIFO buffer.
 257:../LUFA/Drivers/USB/Class/Device/../../HighLevel/../LowLevel/Endpoint.h **** 			 */
 258:../LUFA/Drivers/USB/Class/Device/../../HighLevel/../LowLevel/Endpoint.h **** 			static inline uint16_t Endpoint_BytesInEndpoint(void) ATTR_WARN_UNUSED_RESULT ATTR_ALWAYS_INLINE
 259:../LUFA/Drivers/USB/Class/Device/../../HighLevel/../LowLevel/Endpoint.h **** 			static inline uint16_t Endpoint_BytesInEndpoint(void)
 260:../LUFA/Drivers/USB/Class/Device/../../HighLevel/../LowLevel/Endpoint.h **** 			{
 261:../LUFA/Drivers/USB/Class/Device/../../HighLevel/../LowLevel/Endpoint.h **** 				#if defined(USB_SERIES_6_AVR) || defined(USB_SERIES_7_AVR)
 262:../LUFA/Drivers/USB/Class/Device/../../HighLevel/../LowLevel/Endpoint.h **** 					return UEBCX;
 263:../LUFA/Drivers/USB/Class/Device/../../HighLevel/../LowLevel/Endpoint.h **** 				#elif defined(USB_SERIES_4_AVR)
 264:../LUFA/Drivers/USB/Class/Device/../../HighLevel/../LowLevel/Endpoint.h **** 					return (((uint16_t)UEBCHX << 8) | UEBCLX);
 265:../LUFA/Drivers/USB/Class/Device/../../HighLevel/../LowLevel/Endpoint.h **** 				#elif defined(USB_SERIES_2_AVR)
 266:../LUFA/Drivers/USB/Class/Device/../../HighLevel/../LowLevel/Endpoint.h **** 					return UEBCLX;
 267:../LUFA/Drivers/USB/Class/Device/../../HighLevel/../LowLevel/Endpoint.h **** 				#endif
 268:../LUFA/Drivers/USB/Class/Device/../../HighLevel/../LowLevel/Endpoint.h **** 			}
 269:../LUFA/Drivers/USB/Class/Device/../../HighLevel/../LowLevel/Endpoint.h **** 		
 270:../LUFA/Drivers/USB/Class/Device/../../HighLevel/../LowLevel/Endpoint.h **** 			/** Get the endpoint address of the currently selected endpoint. This is typically used to save
 271:../LUFA/Drivers/USB/Class/Device/../../HighLevel/../LowLevel/Endpoint.h **** 			 *  the currently selected endpoint number so that it can be restored after another endpoint has
 272:../LUFA/Drivers/USB/Class/Device/../../HighLevel/../LowLevel/Endpoint.h **** 			 *  been manipulated.
 273:../LUFA/Drivers/USB/Class/Device/../../HighLevel/../LowLevel/Endpoint.h **** 			 *
 274:../LUFA/Drivers/USB/Class/Device/../../HighLevel/../LowLevel/Endpoint.h **** 			 *  \return Index of the currently selected endpoint.
 275:../LUFA/Drivers/USB/Class/Device/../../HighLevel/../LowLevel/Endpoint.h **** 			 */
 276:../LUFA/Drivers/USB/Class/Device/../../HighLevel/../LowLevel/Endpoint.h **** 			static inline uint8_t Endpoint_GetCurrentEndpoint(void) ATTR_WARN_UNUSED_RESULT ATTR_ALWAYS_INLI
 277:../LUFA/Drivers/USB/Class/Device/../../HighLevel/../LowLevel/Endpoint.h **** 			static inline uint8_t Endpoint_GetCurrentEndpoint(void)
 278:../LUFA/Drivers/USB/Class/Device/../../HighLevel/../LowLevel/Endpoint.h **** 			{
 279:../LUFA/Drivers/USB/Class/Device/../../HighLevel/../LowLevel/Endpoint.h **** 				#if !defined(CONTROL_ONLY_DEVICE)
 280:../LUFA/Drivers/USB/Class/Device/../../HighLevel/../LowLevel/Endpoint.h **** 					return (UENUM & ENDPOINT_EPNUM_MASK);
 281:../LUFA/Drivers/USB/Class/Device/../../HighLevel/../LowLevel/Endpoint.h **** 				#else
 282:../LUFA/Drivers/USB/Class/Device/../../HighLevel/../LowLevel/Endpoint.h **** 					return ENDPOINT_CONTROLEP;
 283:../LUFA/Drivers/USB/Class/Device/../../HighLevel/../LowLevel/Endpoint.h **** 				#endif
 284:../LUFA/Drivers/USB/Class/Device/../../HighLevel/../LowLevel/Endpoint.h **** 			}
 285:../LUFA/Drivers/USB/Class/Device/../../HighLevel/../LowLevel/Endpoint.h **** 			
 286:../LUFA/Drivers/USB/Class/Device/../../HighLevel/../LowLevel/Endpoint.h **** 			/** Selects the given endpoint number. If the address from the device descriptors is used, the
 287:../LUFA/Drivers/USB/Class/Device/../../HighLevel/../LowLevel/Endpoint.h **** 			 *  value should be masked with the \ref ENDPOINT_EPNUM_MASK constant to extract only the endpoi
 288:../LUFA/Drivers/USB/Class/Device/../../HighLevel/../LowLevel/Endpoint.h **** 			 *  number (and discarding the endpoint direction bit).
 289:../LUFA/Drivers/USB/Class/Device/../../HighLevel/../LowLevel/Endpoint.h **** 			 *
 290:../LUFA/Drivers/USB/Class/Device/../../HighLevel/../LowLevel/Endpoint.h **** 			 *  Any endpoint operations which do not require the endpoint number to be indicated will operat
 291:../LUFA/Drivers/USB/Class/Device/../../HighLevel/../LowLevel/Endpoint.h **** 			 *  the currently selected endpoint.
 292:../LUFA/Drivers/USB/Class/Device/../../HighLevel/../LowLevel/Endpoint.h **** 			 *
 293:../LUFA/Drivers/USB/Class/Device/../../HighLevel/../LowLevel/Endpoint.h **** 			 *  \param[in] EndpointNumber Endpoint number to select.
 294:../LUFA/Drivers/USB/Class/Device/../../HighLevel/../LowLevel/Endpoint.h **** 			 */
 295:../LUFA/Drivers/USB/Class/Device/../../HighLevel/../LowLevel/Endpoint.h **** 			static inline void Endpoint_SelectEndpoint(const uint8_t EndpointNumber) ATTR_ALWAYS_INLINE;
 296:../LUFA/Drivers/USB/Class/Device/../../HighLevel/../LowLevel/Endpoint.h **** 			static inline void Endpoint_SelectEndpoint(const uint8_t EndpointNumber)
 297:../LUFA/Drivers/USB/Class/Device/../../HighLevel/../LowLevel/Endpoint.h **** 			{
 298:../LUFA/Drivers/USB/Class/Device/../../HighLevel/../LowLevel/Endpoint.h **** 				#if !defined(CONTROL_ONLY_DEVICE)
 299:../LUFA/Drivers/USB/Class/Device/../../HighLevel/../LowLevel/Endpoint.h **** 					UENUM = EndpointNumber;
 300:../LUFA/Drivers/USB/Class/Device/../../HighLevel/../LowLevel/Endpoint.h **** 				#endif			
 301:../LUFA/Drivers/USB/Class/Device/../../HighLevel/../LowLevel/Endpoint.h **** 			}
 302:../LUFA/Drivers/USB/Class/Device/../../HighLevel/../LowLevel/Endpoint.h **** 			
 303:../LUFA/Drivers/USB/Class/Device/../../HighLevel/../LowLevel/Endpoint.h **** 			/** Resets the endpoint bank FIFO. This clears all the endpoint banks and resets the USB control
 304:../LUFA/Drivers/USB/Class/Device/../../HighLevel/../LowLevel/Endpoint.h **** 			 *  In and Out pointers to the bank's contents.
 305:../LUFA/Drivers/USB/Class/Device/../../HighLevel/../LowLevel/Endpoint.h **** 			 *
 306:../LUFA/Drivers/USB/Class/Device/../../HighLevel/../LowLevel/Endpoint.h **** 			 *  \param[in] EndpointNumber Endpoint number whose FIFO buffers are to be reset.
 307:../LUFA/Drivers/USB/Class/Device/../../HighLevel/../LowLevel/Endpoint.h **** 			 */
 308:../LUFA/Drivers/USB/Class/Device/../../HighLevel/../LowLevel/Endpoint.h **** 			static inline void Endpoint_ResetFIFO(const uint8_t EndpointNumber) ATTR_ALWAYS_INLINE;
 309:../LUFA/Drivers/USB/Class/Device/../../HighLevel/../LowLevel/Endpoint.h **** 			static inline void Endpoint_ResetFIFO(const uint8_t EndpointNumber)
 310:../LUFA/Drivers/USB/Class/Device/../../HighLevel/../LowLevel/Endpoint.h **** 			{
 311:../LUFA/Drivers/USB/Class/Device/../../HighLevel/../LowLevel/Endpoint.h **** 				UERST = (1 << EndpointNumber);
 312:../LUFA/Drivers/USB/Class/Device/../../HighLevel/../LowLevel/Endpoint.h **** 				UERST = 0;
 313:../LUFA/Drivers/USB/Class/Device/../../HighLevel/../LowLevel/Endpoint.h **** 			}
 314:../LUFA/Drivers/USB/Class/Device/../../HighLevel/../LowLevel/Endpoint.h **** 			
 315:../LUFA/Drivers/USB/Class/Device/../../HighLevel/../LowLevel/Endpoint.h **** 			/** Enables the currently selected endpoint so that data can be sent and received through it to
 316:../LUFA/Drivers/USB/Class/Device/../../HighLevel/../LowLevel/Endpoint.h **** 			 *  and from a host.
 317:../LUFA/Drivers/USB/Class/Device/../../HighLevel/../LowLevel/Endpoint.h **** 			 *
 318:../LUFA/Drivers/USB/Class/Device/../../HighLevel/../LowLevel/Endpoint.h **** 			 *  \note Endpoints must first be configured properly via \ref Endpoint_ConfigureEndpoint().
 319:../LUFA/Drivers/USB/Class/Device/../../HighLevel/../LowLevel/Endpoint.h **** 			 */
 320:../LUFA/Drivers/USB/Class/Device/../../HighLevel/../LowLevel/Endpoint.h **** 			static inline void Endpoint_EnableEndpoint(void) ATTR_ALWAYS_INLINE;
 321:../LUFA/Drivers/USB/Class/Device/../../HighLevel/../LowLevel/Endpoint.h **** 			static inline void Endpoint_EnableEndpoint(void)
 322:../LUFA/Drivers/USB/Class/Device/../../HighLevel/../LowLevel/Endpoint.h **** 			{
 323:../LUFA/Drivers/USB/Class/Device/../../HighLevel/../LowLevel/Endpoint.h **** 				UECONX |= (1 << EPEN);
 324:../LUFA/Drivers/USB/Class/Device/../../HighLevel/../LowLevel/Endpoint.h **** 			}
 325:../LUFA/Drivers/USB/Class/Device/../../HighLevel/../LowLevel/Endpoint.h **** 
 326:../LUFA/Drivers/USB/Class/Device/../../HighLevel/../LowLevel/Endpoint.h **** 			/** Disables the currently selected endpoint so that data cannot be sent and received through it
 327:../LUFA/Drivers/USB/Class/Device/../../HighLevel/../LowLevel/Endpoint.h **** 			 *  to and from a host.
 328:../LUFA/Drivers/USB/Class/Device/../../HighLevel/../LowLevel/Endpoint.h **** 			 */
 329:../LUFA/Drivers/USB/Class/Device/../../HighLevel/../LowLevel/Endpoint.h **** 			static inline void Endpoint_DisableEndpoint(void) ATTR_ALWAYS_INLINE;
 330:../LUFA/Drivers/USB/Class/Device/../../HighLevel/../LowLevel/Endpoint.h **** 			static inline void Endpoint_DisableEndpoint(void)
 331:../LUFA/Drivers/USB/Class/Device/../../HighLevel/../LowLevel/Endpoint.h **** 			{
 332:../LUFA/Drivers/USB/Class/Device/../../HighLevel/../LowLevel/Endpoint.h **** 				UECONX &= ~(1 << EPEN);
 333:../LUFA/Drivers/USB/Class/Device/../../HighLevel/../LowLevel/Endpoint.h **** 			}
 334:../LUFA/Drivers/USB/Class/Device/../../HighLevel/../LowLevel/Endpoint.h **** 			
 335:../LUFA/Drivers/USB/Class/Device/../../HighLevel/../LowLevel/Endpoint.h **** 			/** Determines if the currently selected endpoint is enabled, but not necessarily configured.
 336:../LUFA/Drivers/USB/Class/Device/../../HighLevel/../LowLevel/Endpoint.h **** 			 *
 337:../LUFA/Drivers/USB/Class/Device/../../HighLevel/../LowLevel/Endpoint.h **** 			 * \return Boolean True if the currently selected endpoint is enabled, false otherwise.
 338:../LUFA/Drivers/USB/Class/Device/../../HighLevel/../LowLevel/Endpoint.h **** 			 */
 339:../LUFA/Drivers/USB/Class/Device/../../HighLevel/../LowLevel/Endpoint.h **** 			static inline bool Endpoint_IsEnabled(void) ATTR_WARN_UNUSED_RESULT ATTR_ALWAYS_INLINE;
 340:../LUFA/Drivers/USB/Class/Device/../../HighLevel/../LowLevel/Endpoint.h **** 			static inline bool Endpoint_IsEnabled(void)
 341:../LUFA/Drivers/USB/Class/Device/../../HighLevel/../LowLevel/Endpoint.h **** 			{
 342:../LUFA/Drivers/USB/Class/Device/../../HighLevel/../LowLevel/Endpoint.h **** 				return ((UECONX & (1 << EPEN)) ? true : false);
 343:../LUFA/Drivers/USB/Class/Device/../../HighLevel/../LowLevel/Endpoint.h **** 			}
 344:../LUFA/Drivers/USB/Class/Device/../../HighLevel/../LowLevel/Endpoint.h **** 			
 345:../LUFA/Drivers/USB/Class/Device/../../HighLevel/../LowLevel/Endpoint.h **** 			/** Determines if the currently selected endpoint may be read from (if data is waiting in the en
 346:../LUFA/Drivers/USB/Class/Device/../../HighLevel/../LowLevel/Endpoint.h **** 			 *  bank and the endpoint is an OUT direction, or if the bank is not yet full if the endpoint is
 347:../LUFA/Drivers/USB/Class/Device/../../HighLevel/../LowLevel/Endpoint.h **** 			 *  direction). This function will return false if an error has occurred in the endpoint, if the
 348:../LUFA/Drivers/USB/Class/Device/../../HighLevel/../LowLevel/Endpoint.h **** 			 *  is an OUT direction and no packet (or an empty packet) has been received, or if the endpoint
 349:../LUFA/Drivers/USB/Class/Device/../../HighLevel/../LowLevel/Endpoint.h **** 			 *  direction and the endpoint bank is full.
 350:../LUFA/Drivers/USB/Class/Device/../../HighLevel/../LowLevel/Endpoint.h **** 			 *
 351:../LUFA/Drivers/USB/Class/Device/../../HighLevel/../LowLevel/Endpoint.h **** 			 *  \ingroup Group_EndpointPacketManagement
 352:../LUFA/Drivers/USB/Class/Device/../../HighLevel/../LowLevel/Endpoint.h **** 			 *
 353:../LUFA/Drivers/USB/Class/Device/../../HighLevel/../LowLevel/Endpoint.h **** 			 *  \return Boolean true if the currently selected endpoint may be read from or written to, depe
 354:../LUFA/Drivers/USB/Class/Device/../../HighLevel/../LowLevel/Endpoint.h **** 			 */
 355:../LUFA/Drivers/USB/Class/Device/../../HighLevel/../LowLevel/Endpoint.h **** 			static inline bool Endpoint_IsReadWriteAllowed(void) ATTR_WARN_UNUSED_RESULT ATTR_ALWAYS_INLINE;
 356:../LUFA/Drivers/USB/Class/Device/../../HighLevel/../LowLevel/Endpoint.h **** 			static inline bool Endpoint_IsReadWriteAllowed(void)
 357:../LUFA/Drivers/USB/Class/Device/../../HighLevel/../LowLevel/Endpoint.h **** 			{
 358:../LUFA/Drivers/USB/Class/Device/../../HighLevel/../LowLevel/Endpoint.h **** 				return ((UEINTX & (1 << RWAL)) ? true : false);
 359:../LUFA/Drivers/USB/Class/Device/../../HighLevel/../LowLevel/Endpoint.h **** 			}
 360:../LUFA/Drivers/USB/Class/Device/../../HighLevel/../LowLevel/Endpoint.h **** 			
 361:../LUFA/Drivers/USB/Class/Device/../../HighLevel/../LowLevel/Endpoint.h **** 			/** Determines if the currently selected endpoint is configured.
 362:../LUFA/Drivers/USB/Class/Device/../../HighLevel/../LowLevel/Endpoint.h **** 			 *
 363:../LUFA/Drivers/USB/Class/Device/../../HighLevel/../LowLevel/Endpoint.h **** 			 *  \return Boolean true if the currently selected endpoint has been configured, false otherwise
 364:../LUFA/Drivers/USB/Class/Device/../../HighLevel/../LowLevel/Endpoint.h **** 			 */
 365:../LUFA/Drivers/USB/Class/Device/../../HighLevel/../LowLevel/Endpoint.h **** 			static inline bool Endpoint_IsConfigured(void) ATTR_WARN_UNUSED_RESULT ATTR_ALWAYS_INLINE;
 366:../LUFA/Drivers/USB/Class/Device/../../HighLevel/../LowLevel/Endpoint.h **** 			static inline bool Endpoint_IsConfigured(void)
 367:../LUFA/Drivers/USB/Class/Device/../../HighLevel/../LowLevel/Endpoint.h **** 			{
 368:../LUFA/Drivers/USB/Class/Device/../../HighLevel/../LowLevel/Endpoint.h **** 				return ((UESTA0X & (1 << CFGOK)) ? true : false);
 369:../LUFA/Drivers/USB/Class/Device/../../HighLevel/../LowLevel/Endpoint.h **** 			}
 370:../LUFA/Drivers/USB/Class/Device/../../HighLevel/../LowLevel/Endpoint.h **** 			
 371:../LUFA/Drivers/USB/Class/Device/../../HighLevel/../LowLevel/Endpoint.h **** 			/** Returns a mask indicating which INTERRUPT type endpoints have interrupted - i.e. their
 372:../LUFA/Drivers/USB/Class/Device/../../HighLevel/../LowLevel/Endpoint.h **** 			 *  interrupt duration has elapsed. Which endpoints have interrupted can be determined by
 373:../LUFA/Drivers/USB/Class/Device/../../HighLevel/../LowLevel/Endpoint.h **** 			 *  masking the return value against (1 << {Endpoint Number}).
 374:../LUFA/Drivers/USB/Class/Device/../../HighLevel/../LowLevel/Endpoint.h **** 			 *
 375:../LUFA/Drivers/USB/Class/Device/../../HighLevel/../LowLevel/Endpoint.h **** 			 *  \return Mask whose bits indicate which endpoints have interrupted.
 376:../LUFA/Drivers/USB/Class/Device/../../HighLevel/../LowLevel/Endpoint.h **** 			 */
 377:../LUFA/Drivers/USB/Class/Device/../../HighLevel/../LowLevel/Endpoint.h **** 			static inline uint8_t Endpoint_GetEndpointInterrupts(void) ATTR_WARN_UNUSED_RESULT ATTR_ALWAYS_I
 378:../LUFA/Drivers/USB/Class/Device/../../HighLevel/../LowLevel/Endpoint.h **** 			static inline uint8_t Endpoint_GetEndpointInterrupts(void)
 379:../LUFA/Drivers/USB/Class/Device/../../HighLevel/../LowLevel/Endpoint.h **** 			{
 380:../LUFA/Drivers/USB/Class/Device/../../HighLevel/../LowLevel/Endpoint.h **** 				return UEINT;
 381:../LUFA/Drivers/USB/Class/Device/../../HighLevel/../LowLevel/Endpoint.h **** 			}
 382:../LUFA/Drivers/USB/Class/Device/../../HighLevel/../LowLevel/Endpoint.h **** 			
 383:../LUFA/Drivers/USB/Class/Device/../../HighLevel/../LowLevel/Endpoint.h **** 			/** Determines if the specified endpoint number has interrupted (valid only for INTERRUPT type
 384:../LUFA/Drivers/USB/Class/Device/../../HighLevel/../LowLevel/Endpoint.h **** 			 *  endpoints).
 385:../LUFA/Drivers/USB/Class/Device/../../HighLevel/../LowLevel/Endpoint.h **** 			 *
 386:../LUFA/Drivers/USB/Class/Device/../../HighLevel/../LowLevel/Endpoint.h **** 			 *  \param[in] EndpointNumber  Index of the endpoint whose interrupt flag should be tested.
 387:../LUFA/Drivers/USB/Class/Device/../../HighLevel/../LowLevel/Endpoint.h **** 			 *
 388:../LUFA/Drivers/USB/Class/Device/../../HighLevel/../LowLevel/Endpoint.h **** 			 *  \return Boolean true if the specified endpoint has interrupted, false otherwise.
 389:../LUFA/Drivers/USB/Class/Device/../../HighLevel/../LowLevel/Endpoint.h **** 			 */
 390:../LUFA/Drivers/USB/Class/Device/../../HighLevel/../LowLevel/Endpoint.h **** 			static inline bool Endpoint_HasEndpointInterrupted(const uint8_t EndpointNumber) ATTR_WARN_UNUSE
 391:../LUFA/Drivers/USB/Class/Device/../../HighLevel/../LowLevel/Endpoint.h **** 			static inline bool Endpoint_HasEndpointInterrupted(const uint8_t EndpointNumber)
 392:../LUFA/Drivers/USB/Class/Device/../../HighLevel/../LowLevel/Endpoint.h **** 			{
 393:../LUFA/Drivers/USB/Class/Device/../../HighLevel/../LowLevel/Endpoint.h **** 				return ((UEINT & (1 << EndpointNumber)) ? true : false);
 394:../LUFA/Drivers/USB/Class/Device/../../HighLevel/../LowLevel/Endpoint.h **** 			}
 395:../LUFA/Drivers/USB/Class/Device/../../HighLevel/../LowLevel/Endpoint.h **** 			
 396:../LUFA/Drivers/USB/Class/Device/../../HighLevel/../LowLevel/Endpoint.h **** 			/** Determines if the selected IN endpoint is ready for a new packet.
 397:../LUFA/Drivers/USB/Class/Device/../../HighLevel/../LowLevel/Endpoint.h **** 			 *
 398:../LUFA/Drivers/USB/Class/Device/../../HighLevel/../LowLevel/Endpoint.h **** 			 *  \ingroup Group_EndpointPacketManagement
 399:../LUFA/Drivers/USB/Class/Device/../../HighLevel/../LowLevel/Endpoint.h **** 			 *
 400:../LUFA/Drivers/USB/Class/Device/../../HighLevel/../LowLevel/Endpoint.h **** 			 *  \return Boolean true if the current endpoint is ready for an IN packet, false otherwise.
 401:../LUFA/Drivers/USB/Class/Device/../../HighLevel/../LowLevel/Endpoint.h **** 			 */
 402:../LUFA/Drivers/USB/Class/Device/../../HighLevel/../LowLevel/Endpoint.h **** 			static inline bool Endpoint_IsINReady(void) ATTR_WARN_UNUSED_RESULT ATTR_ALWAYS_INLINE;
 403:../LUFA/Drivers/USB/Class/Device/../../HighLevel/../LowLevel/Endpoint.h **** 			static inline bool Endpoint_IsINReady(void)
 404:../LUFA/Drivers/USB/Class/Device/../../HighLevel/../LowLevel/Endpoint.h **** 			{
 405:../LUFA/Drivers/USB/Class/Device/../../HighLevel/../LowLevel/Endpoint.h **** 				return ((UEINTX & (1 << TXINI))  ? true : false);
 406:../LUFA/Drivers/USB/Class/Device/../../HighLevel/../LowLevel/Endpoint.h **** 			}
 407:../LUFA/Drivers/USB/Class/Device/../../HighLevel/../LowLevel/Endpoint.h **** 			
 408:../LUFA/Drivers/USB/Class/Device/../../HighLevel/../LowLevel/Endpoint.h **** 			/** Determines if the selected OUT endpoint has received new packet.
 409:../LUFA/Drivers/USB/Class/Device/../../HighLevel/../LowLevel/Endpoint.h **** 			 *
 410:../LUFA/Drivers/USB/Class/Device/../../HighLevel/../LowLevel/Endpoint.h **** 			 *  \ingroup Group_EndpointPacketManagement
 411:../LUFA/Drivers/USB/Class/Device/../../HighLevel/../LowLevel/Endpoint.h **** 			 *
 412:../LUFA/Drivers/USB/Class/Device/../../HighLevel/../LowLevel/Endpoint.h **** 			 *  \return Boolean true if current endpoint is has received an OUT packet, false otherwise.
 413:../LUFA/Drivers/USB/Class/Device/../../HighLevel/../LowLevel/Endpoint.h **** 			 */
 414:../LUFA/Drivers/USB/Class/Device/../../HighLevel/../LowLevel/Endpoint.h **** 			static inline bool Endpoint_IsOUTReceived(void) ATTR_WARN_UNUSED_RESULT ATTR_ALWAYS_INLINE;
 415:../LUFA/Drivers/USB/Class/Device/../../HighLevel/../LowLevel/Endpoint.h **** 			static inline bool Endpoint_IsOUTReceived(void)
 416:../LUFA/Drivers/USB/Class/Device/../../HighLevel/../LowLevel/Endpoint.h **** 			{
 417:../LUFA/Drivers/USB/Class/Device/../../HighLevel/../LowLevel/Endpoint.h **** 				return ((UEINTX & (1 << RXOUTI)) ? true : false);
 418:../LUFA/Drivers/USB/Class/Device/../../HighLevel/../LowLevel/Endpoint.h **** 			}
 419:../LUFA/Drivers/USB/Class/Device/../../HighLevel/../LowLevel/Endpoint.h **** 			
 420:../LUFA/Drivers/USB/Class/Device/../../HighLevel/../LowLevel/Endpoint.h **** 			/** Determines if the current CONTROL type endpoint has received a SETUP packet.
 421:../LUFA/Drivers/USB/Class/Device/../../HighLevel/../LowLevel/Endpoint.h **** 			 *
 422:../LUFA/Drivers/USB/Class/Device/../../HighLevel/../LowLevel/Endpoint.h **** 			 *  \ingroup Group_EndpointPacketManagement
 423:../LUFA/Drivers/USB/Class/Device/../../HighLevel/../LowLevel/Endpoint.h **** 			 *
 424:../LUFA/Drivers/USB/Class/Device/../../HighLevel/../LowLevel/Endpoint.h **** 			 *  \return Boolean true if the selected endpoint has received a SETUP packet, false otherwise.
 425:../LUFA/Drivers/USB/Class/Device/../../HighLevel/../LowLevel/Endpoint.h **** 			 */
 426:../LUFA/Drivers/USB/Class/Device/../../HighLevel/../LowLevel/Endpoint.h **** 			static inline bool Endpoint_IsSETUPReceived(void) ATTR_WARN_UNUSED_RESULT ATTR_ALWAYS_INLINE;
 427:../LUFA/Drivers/USB/Class/Device/../../HighLevel/../LowLevel/Endpoint.h **** 			static inline bool Endpoint_IsSETUPReceived(void)
 428:../LUFA/Drivers/USB/Class/Device/../../HighLevel/../LowLevel/Endpoint.h **** 			{
 429:../LUFA/Drivers/USB/Class/Device/../../HighLevel/../LowLevel/Endpoint.h **** 				return ((UEINTX & (1 << RXSTPI)) ? true : false);
  42               		.loc 2 429 0
  43 0008 2091 E800 		lds r18,232
  44               	.LBE56:
  45               	.LBE55:
  72:../LUFA/Drivers/USB/Class/Device/RNDIS.c **** 	if (!(Endpoint_IsSETUPReceived()))
  46               		.loc 1 72 0
  47 000c 23FF      		sbrs r18,3
  48 000e 00C0      		rjmp .L1
  73:../LUFA/Drivers/USB/Class/Device/RNDIS.c **** 	  return;
  74:../LUFA/Drivers/USB/Class/Device/RNDIS.c **** 	  
  75:../LUFA/Drivers/USB/Class/Device/RNDIS.c **** 	if (USB_ControlRequest.wIndex != RNDISInterfaceInfo->Config.ControlInterfaceNumber)
  49               		.loc 1 75 0
  50 0010 FC01      		movw r30,r24
  51 0012 2081      		ld r18,Z
  52 0014 30E0      		ldi r19,0
  53 0016 4091 0000 		lds r20,USB_ControlRequest+4
  54 001a 5091 0000 		lds r21,USB_ControlRequest+4+1
  55 001e 4217      		cp r20,r18
  56 0020 5307      		cpc r21,r19
  57 0022 01F0      		breq .+2
  58 0024 00C0      		rjmp .L1
  59 0026 EC01      		movw r28,r24
  76:../LUFA/Drivers/USB/Class/Device/RNDIS.c **** 	  return;
  77:../LUFA/Drivers/USB/Class/Device/RNDIS.c **** 
  78:../LUFA/Drivers/USB/Class/Device/RNDIS.c **** 	switch (USB_ControlRequest.bRequest)
  60               		.loc 1 78 0
  61 0028 8091 0000 		lds r24,USB_ControlRequest+1
  62               	.LVL1:
  63 002c 8823      		tst r24
  64 002e 01F0      		breq .L3
  65 0030 8130      		cpi r24,lo8(1)
  66 0032 01F4      		brne .+2
  67 0034 00C0      		rjmp .L4
  68 0036 00C0      		rjmp .L1
  69               	.L3:
  79:../LUFA/Drivers/USB/Class/Device/RNDIS.c **** 	{
  80:../LUFA/Drivers/USB/Class/Device/RNDIS.c **** 		case REQ_SendEncapsulatedCommand:
  81:../LUFA/Drivers/USB/Class/Device/RNDIS.c **** 			if (USB_ControlRequest.bmRequestType == (REQDIR_HOSTTODEVICE | REQTYPE_CLASS | REQREC_INTERFACE)
  70               		.loc 1 81 0
  71 0038 8091 0000 		lds r24,USB_ControlRequest
  72 003c 8132      		cpi r24,lo8(33)
  73 003e 01F0      		breq .+2
  74 0040 00C0      		rjmp .L1
  75               	.LBB57:
  76               	.LBB58:
 430:../LUFA/Drivers/USB/Class/Device/../../HighLevel/../LowLevel/Endpoint.h **** 			}
 431:../LUFA/Drivers/USB/Class/Device/../../HighLevel/../LowLevel/Endpoint.h **** 			
 432:../LUFA/Drivers/USB/Class/Device/../../HighLevel/../LowLevel/Endpoint.h **** 			/** Clears a received SETUP packet on the currently selected CONTROL type endpoint, freeing up t
 433:../LUFA/Drivers/USB/Class/Device/../../HighLevel/../LowLevel/Endpoint.h **** 			 *  endpoint for the next packet.
 434:../LUFA/Drivers/USB/Class/Device/../../HighLevel/../LowLevel/Endpoint.h **** 			 *
 435:../LUFA/Drivers/USB/Class/Device/../../HighLevel/../LowLevel/Endpoint.h **** 			 *  \ingroup Group_EndpointPacketManagement
 436:../LUFA/Drivers/USB/Class/Device/../../HighLevel/../LowLevel/Endpoint.h **** 			 *
 437:../LUFA/Drivers/USB/Class/Device/../../HighLevel/../LowLevel/Endpoint.h **** 			 *  \note This is not applicable for non CONTROL type endpoints. 
 438:../LUFA/Drivers/USB/Class/Device/../../HighLevel/../LowLevel/Endpoint.h **** 			 */
 439:../LUFA/Drivers/USB/Class/Device/../../HighLevel/../LowLevel/Endpoint.h **** 			static inline void Endpoint_ClearSETUP(void) ATTR_ALWAYS_INLINE;
 440:../LUFA/Drivers/USB/Class/Device/../../HighLevel/../LowLevel/Endpoint.h **** 			static inline void Endpoint_ClearSETUP(void)
 441:../LUFA/Drivers/USB/Class/Device/../../HighLevel/../LowLevel/Endpoint.h **** 			{
 442:../LUFA/Drivers/USB/Class/Device/../../HighLevel/../LowLevel/Endpoint.h **** 				UEINTX &= ~(1 << RXSTPI);
  77               		.loc 2 442 0
  78 0042 8091 E800 		lds r24,232
  79 0046 877F      		andi r24,lo8(-9)
  80 0048 8093 E800 		sts 232,r24
  81               	.LBE58:
  82               	.LBE57:
  82:../LUFA/Drivers/USB/Class/Device/RNDIS.c **** 			{
  83:../LUFA/Drivers/USB/Class/Device/RNDIS.c **** 				Endpoint_ClearSETUP();
  84:../LUFA/Drivers/USB/Class/Device/RNDIS.c **** 
  85:../LUFA/Drivers/USB/Class/Device/RNDIS.c **** 				Endpoint_Read_Control_Stream_LE(RNDISInterfaceInfo->State.RNDISMessageBuffer, USB_ControlReques
  83               		.loc 1 85 0
  84 004c 6091 0000 		lds r22,USB_ControlRequest+6
  85 0050 7091 0000 		lds r23,USB_ControlRequest+6+1
  86 0054 CF01      		movw r24,r30
  87 0056 4596      		adiw r24,21
  88 0058 0E94 0000 		call Endpoint_Read_Control_Stream_LE
  89               	.LVL2:
  90               	.LBB59:
  91               	.LBB60:
  86:../LUFA/Drivers/USB/Class/Device/RNDIS.c **** 				RNDIS_Device_ProcessRNDISControlMessage(RNDISInterfaceInfo);
  87:../LUFA/Drivers/USB/Class/Device/RNDIS.c **** 				Endpoint_ClearIN();
  88:../LUFA/Drivers/USB/Class/Device/RNDIS.c **** 			}
  89:../LUFA/Drivers/USB/Class/Device/RNDIS.c **** 			
  90:../LUFA/Drivers/USB/Class/Device/RNDIS.c **** 			break;
  91:../LUFA/Drivers/USB/Class/Device/RNDIS.c **** 		case REQ_GetEncapsulatedResponse:
  92:../LUFA/Drivers/USB/Class/Device/RNDIS.c **** 			if (USB_ControlRequest.bmRequestType == (REQDIR_DEVICETOHOST | REQTYPE_CLASS | REQREC_INTERFACE)
  93:../LUFA/Drivers/USB/Class/Device/RNDIS.c **** 			{
  94:../LUFA/Drivers/USB/Class/Device/RNDIS.c **** 				Endpoint_ClearSETUP();
  95:../LUFA/Drivers/USB/Class/Device/RNDIS.c **** 
  96:../LUFA/Drivers/USB/Class/Device/RNDIS.c **** 				RNDIS_Message_Header_t* MessageHeader = (RNDIS_Message_Header_t*)&RNDISInterfaceInfo->State.RND
  97:../LUFA/Drivers/USB/Class/Device/RNDIS.c **** 
  98:../LUFA/Drivers/USB/Class/Device/RNDIS.c **** 				if (!(MessageHeader->MessageLength))
  99:../LUFA/Drivers/USB/Class/Device/RNDIS.c **** 				{
 100:../LUFA/Drivers/USB/Class/Device/RNDIS.c **** 					RNDISInterfaceInfo->State.RNDISMessageBuffer[0] = 0;
 101:../LUFA/Drivers/USB/Class/Device/RNDIS.c **** 					MessageHeader->MessageLength = 1;
 102:../LUFA/Drivers/USB/Class/Device/RNDIS.c **** 				}
 103:../LUFA/Drivers/USB/Class/Device/RNDIS.c **** 
 104:../LUFA/Drivers/USB/Class/Device/RNDIS.c **** 				Endpoint_Write_Control_Stream_LE(RNDISInterfaceInfo->State.RNDISMessageBuffer, MessageHeader->M
 105:../LUFA/Drivers/USB/Class/Device/RNDIS.c **** 				Endpoint_ClearOUT();
 106:../LUFA/Drivers/USB/Class/Device/RNDIS.c **** 
 107:../LUFA/Drivers/USB/Class/Device/RNDIS.c **** 				MessageHeader->MessageLength = 0;
 108:../LUFA/Drivers/USB/Class/Device/RNDIS.c **** 			}
 109:../LUFA/Drivers/USB/Class/Device/RNDIS.c **** 	
 110:../LUFA/Drivers/USB/Class/Device/RNDIS.c **** 			break;
 111:../LUFA/Drivers/USB/Class/Device/RNDIS.c **** 	}
 112:../LUFA/Drivers/USB/Class/Device/RNDIS.c **** }
 113:../LUFA/Drivers/USB/Class/Device/RNDIS.c **** 
 114:../LUFA/Drivers/USB/Class/Device/RNDIS.c **** bool RNDIS_Device_ConfigureEndpoints(USB_ClassInfo_RNDIS_Device_t* const RNDISInterfaceInfo)
 115:../LUFA/Drivers/USB/Class/Device/RNDIS.c **** {
 116:../LUFA/Drivers/USB/Class/Device/RNDIS.c **** 	memset(&RNDISInterfaceInfo->State, 0x00, sizeof(RNDISInterfaceInfo->State));
 117:../LUFA/Drivers/USB/Class/Device/RNDIS.c **** 
 118:../LUFA/Drivers/USB/Class/Device/RNDIS.c **** 	if (!(Endpoint_ConfigureEndpoint(RNDISInterfaceInfo->Config.DataINEndpointNumber, EP_TYPE_BULK,
 119:../LUFA/Drivers/USB/Class/Device/RNDIS.c **** 							         ENDPOINT_DIR_IN, RNDISInterfaceInfo->Config.DataINEndpointSize,
 120:../LUFA/Drivers/USB/Class/Device/RNDIS.c **** 							         RNDISInterfaceInfo->Config.DataINEndpointDoubleBank ? ENDPOINT_BANK_DOUBLE : ENDPOI
 121:../LUFA/Drivers/USB/Class/Device/RNDIS.c **** 	{
 122:../LUFA/Drivers/USB/Class/Device/RNDIS.c **** 		return false;
 123:../LUFA/Drivers/USB/Class/Device/RNDIS.c **** 	}
 124:../LUFA/Drivers/USB/Class/Device/RNDIS.c **** 
 125:../LUFA/Drivers/USB/Class/Device/RNDIS.c **** 	if (!(Endpoint_ConfigureEndpoint(RNDISInterfaceInfo->Config.DataOUTEndpointNumber, EP_TYPE_BULK,
 126:../LUFA/Drivers/USB/Class/Device/RNDIS.c **** 	                                 ENDPOINT_DIR_OUT, RNDISInterfaceInfo->Config.DataOUTEndpointSize,
 127:../LUFA/Drivers/USB/Class/Device/RNDIS.c **** 	                                 RNDISInterfaceInfo->Config.DataOUTEndpointDoubleBank ? ENDPOINT_B
 128:../LUFA/Drivers/USB/Class/Device/RNDIS.c **** 	{
 129:../LUFA/Drivers/USB/Class/Device/RNDIS.c **** 		return false;
 130:../LUFA/Drivers/USB/Class/Device/RNDIS.c **** 	}
 131:../LUFA/Drivers/USB/Class/Device/RNDIS.c **** 
 132:../LUFA/Drivers/USB/Class/Device/RNDIS.c **** 	if (!(Endpoint_ConfigureEndpoint(RNDISInterfaceInfo->Config.NotificationEndpointNumber, EP_TYPE_IN
 133:../LUFA/Drivers/USB/Class/Device/RNDIS.c **** 	                                 ENDPOINT_DIR_IN, RNDISInterfaceInfo->Config.NotificationEndpointS
 134:../LUFA/Drivers/USB/Class/Device/RNDIS.c **** 	                                 RNDISInterfaceInfo->Config.NotificationEndpointDoubleBank ? ENDPO
 135:../LUFA/Drivers/USB/Class/Device/RNDIS.c **** 	{
 136:../LUFA/Drivers/USB/Class/Device/RNDIS.c **** 		return false;
 137:../LUFA/Drivers/USB/Class/Device/RNDIS.c **** 	}
 138:../LUFA/Drivers/USB/Class/Device/RNDIS.c **** 
 139:../LUFA/Drivers/USB/Class/Device/RNDIS.c **** 	return true;
 140:../LUFA/Drivers/USB/Class/Device/RNDIS.c **** }
 141:../LUFA/Drivers/USB/Class/Device/RNDIS.c **** 
 142:../LUFA/Drivers/USB/Class/Device/RNDIS.c **** void RNDIS_Device_USBTask(USB_ClassInfo_RNDIS_Device_t* const RNDISInterfaceInfo)
 143:../LUFA/Drivers/USB/Class/Device/RNDIS.c **** {
 144:../LUFA/Drivers/USB/Class/Device/RNDIS.c **** 	if (USB_DeviceState != DEVICE_STATE_Configured)
 145:../LUFA/Drivers/USB/Class/Device/RNDIS.c **** 	  return;
 146:../LUFA/Drivers/USB/Class/Device/RNDIS.c **** 
 147:../LUFA/Drivers/USB/Class/Device/RNDIS.c **** 	RNDIS_Message_Header_t* MessageHeader = (RNDIS_Message_Header_t*)&RNDISInterfaceInfo->State.RNDISM
 148:../LUFA/Drivers/USB/Class/Device/RNDIS.c **** 
 149:../LUFA/Drivers/USB/Class/Device/RNDIS.c **** 	Endpoint_SelectEndpoint(RNDISInterfaceInfo->Config.NotificationEndpointNumber);
 150:../LUFA/Drivers/USB/Class/Device/RNDIS.c **** 
 151:../LUFA/Drivers/USB/Class/Device/RNDIS.c **** 	if (Endpoint_IsINReady() && RNDISInterfaceInfo->State.ResponseReady)
 152:../LUFA/Drivers/USB/Class/Device/RNDIS.c **** 	{
 153:../LUFA/Drivers/USB/Class/Device/RNDIS.c **** 		USB_Request_Header_t Notification = (USB_Request_Header_t)
 154:../LUFA/Drivers/USB/Class/Device/RNDIS.c **** 			{
 155:../LUFA/Drivers/USB/Class/Device/RNDIS.c **** 				.bmRequestType = (REQDIR_DEVICETOHOST | REQTYPE_CLASS | REQREC_INTERFACE),
 156:../LUFA/Drivers/USB/Class/Device/RNDIS.c **** 				.bRequest      = NOTIF_ResponseAvailable,
 157:../LUFA/Drivers/USB/Class/Device/RNDIS.c **** 				.wValue        = 0,
 158:../LUFA/Drivers/USB/Class/Device/RNDIS.c **** 				.wIndex        = 0,
 159:../LUFA/Drivers/USB/Class/Device/RNDIS.c **** 				.wLength       = 0,
 160:../LUFA/Drivers/USB/Class/Device/RNDIS.c **** 			};
 161:../LUFA/Drivers/USB/Class/Device/RNDIS.c **** 		
 162:../LUFA/Drivers/USB/Class/Device/RNDIS.c **** 		Endpoint_Write_Stream_LE(&Notification, sizeof(USB_Request_Header_t), NO_STREAM_CALLBACK);
 163:../LUFA/Drivers/USB/Class/Device/RNDIS.c **** 
 164:../LUFA/Drivers/USB/Class/Device/RNDIS.c **** 		Endpoint_ClearIN();
 165:../LUFA/Drivers/USB/Class/Device/RNDIS.c **** 
 166:../LUFA/Drivers/USB/Class/Device/RNDIS.c **** 		RNDISInterfaceInfo->State.ResponseReady = false;
 167:../LUFA/Drivers/USB/Class/Device/RNDIS.c **** 	}
 168:../LUFA/Drivers/USB/Class/Device/RNDIS.c **** 	
 169:../LUFA/Drivers/USB/Class/Device/RNDIS.c **** 	if ((RNDISInterfaceInfo->State.CurrRNDISState == RNDIS_Data_Initialized) && !(MessageHeader->Messa
 170:../LUFA/Drivers/USB/Class/Device/RNDIS.c **** 	{
 171:../LUFA/Drivers/USB/Class/Device/RNDIS.c **** 		RNDIS_Packet_Message_t RNDISPacketHeader;
 172:../LUFA/Drivers/USB/Class/Device/RNDIS.c **** 
 173:../LUFA/Drivers/USB/Class/Device/RNDIS.c **** 		Endpoint_SelectEndpoint(RNDISInterfaceInfo->Config.DataOUTEndpointNumber);
 174:../LUFA/Drivers/USB/Class/Device/RNDIS.c **** 
 175:../LUFA/Drivers/USB/Class/Device/RNDIS.c **** 		if (Endpoint_IsOUTReceived() && !(RNDISInterfaceInfo->State.FrameIN.FrameInBuffer))
 176:../LUFA/Drivers/USB/Class/Device/RNDIS.c **** 		{
 177:../LUFA/Drivers/USB/Class/Device/RNDIS.c **** 			Endpoint_Read_Stream_LE(&RNDISPacketHeader, sizeof(RNDIS_Packet_Message_t), NO_STREAM_CALLBACK);
 178:../LUFA/Drivers/USB/Class/Device/RNDIS.c **** 
 179:../LUFA/Drivers/USB/Class/Device/RNDIS.c **** 			if (RNDISPacketHeader.DataLength > ETHERNET_FRAME_SIZE_MAX)
 180:../LUFA/Drivers/USB/Class/Device/RNDIS.c **** 			{
 181:../LUFA/Drivers/USB/Class/Device/RNDIS.c **** 				Endpoint_StallTransaction();
 182:../LUFA/Drivers/USB/Class/Device/RNDIS.c **** 				return;
 183:../LUFA/Drivers/USB/Class/Device/RNDIS.c **** 			}
 184:../LUFA/Drivers/USB/Class/Device/RNDIS.c **** 			
 185:../LUFA/Drivers/USB/Class/Device/RNDIS.c **** 			Endpoint_Read_Stream_LE(RNDISInterfaceInfo->State.FrameIN.FrameData, RNDISPacketHeader.DataLengt
 186:../LUFA/Drivers/USB/Class/Device/RNDIS.c **** 
 187:../LUFA/Drivers/USB/Class/Device/RNDIS.c **** 			Endpoint_ClearOUT();
 188:../LUFA/Drivers/USB/Class/Device/RNDIS.c **** 			
 189:../LUFA/Drivers/USB/Class/Device/RNDIS.c **** 			RNDISInterfaceInfo->State.FrameIN.FrameLength = RNDISPacketHeader.DataLength;
 190:../LUFA/Drivers/USB/Class/Device/RNDIS.c **** 
 191:../LUFA/Drivers/USB/Class/Device/RNDIS.c **** 			RNDISInterfaceInfo->State.FrameIN.FrameInBuffer = true;
 192:../LUFA/Drivers/USB/Class/Device/RNDIS.c **** 		}
 193:../LUFA/Drivers/USB/Class/Device/RNDIS.c **** 		
 194:../LUFA/Drivers/USB/Class/Device/RNDIS.c **** 		Endpoint_SelectEndpoint(RNDISInterfaceInfo->Config.DataINEndpointNumber);
 195:../LUFA/Drivers/USB/Class/Device/RNDIS.c **** 		
 196:../LUFA/Drivers/USB/Class/Device/RNDIS.c **** 		if (Endpoint_IsINReady() && RNDISInterfaceInfo->State.FrameOUT.FrameInBuffer)
 197:../LUFA/Drivers/USB/Class/Device/RNDIS.c **** 		{
 198:../LUFA/Drivers/USB/Class/Device/RNDIS.c **** 			memset(&RNDISPacketHeader, 0, sizeof(RNDIS_Packet_Message_t));
 199:../LUFA/Drivers/USB/Class/Device/RNDIS.c **** 
 200:../LUFA/Drivers/USB/Class/Device/RNDIS.c **** 			RNDISPacketHeader.MessageType   = REMOTE_NDIS_PACKET_MSG;
 201:../LUFA/Drivers/USB/Class/Device/RNDIS.c **** 			RNDISPacketHeader.MessageLength = (sizeof(RNDIS_Packet_Message_t) + RNDISInterfaceInfo->State.Fr
 202:../LUFA/Drivers/USB/Class/Device/RNDIS.c **** 			RNDISPacketHeader.DataOffset    = (sizeof(RNDIS_Packet_Message_t) - sizeof(RNDIS_Message_Header_
 203:../LUFA/Drivers/USB/Class/Device/RNDIS.c **** 			RNDISPacketHeader.DataLength    = RNDISInterfaceInfo->State.FrameOUT.FrameLength;
 204:../LUFA/Drivers/USB/Class/Device/RNDIS.c **** 
 205:../LUFA/Drivers/USB/Class/Device/RNDIS.c **** 			Endpoint_Write_Stream_LE(&RNDISPacketHeader, sizeof(RNDIS_Packet_Message_t), NO_STREAM_CALLBACK)
 206:../LUFA/Drivers/USB/Class/Device/RNDIS.c **** 			Endpoint_Write_Stream_LE(RNDISInterfaceInfo->State.FrameOUT.FrameData, RNDISPacketHeader.DataLen
 207:../LUFA/Drivers/USB/Class/Device/RNDIS.c **** 			Endpoint_ClearIN();
 208:../LUFA/Drivers/USB/Class/Device/RNDIS.c **** 			
 209:../LUFA/Drivers/USB/Class/Device/RNDIS.c **** 			RNDISInterfaceInfo->State.FrameOUT.FrameInBuffer = false;
 210:../LUFA/Drivers/USB/Class/Device/RNDIS.c **** 		}
 211:../LUFA/Drivers/USB/Class/Device/RNDIS.c **** 	}
 212:../LUFA/Drivers/USB/Class/Device/RNDIS.c **** }							
 213:../LUFA/Drivers/USB/Class/Device/RNDIS.c **** 
 214:../LUFA/Drivers/USB/Class/Device/RNDIS.c **** void RNDIS_Device_ProcessRNDISControlMessage(USB_ClassInfo_RNDIS_Device_t* const RNDISInterfaceInfo
 215:../LUFA/Drivers/USB/Class/Device/RNDIS.c **** {
 216:../LUFA/Drivers/USB/Class/Device/RNDIS.c **** 	/* Note: Only a single buffer is used for both the received message and its response to save SRAM.
 217:../LUFA/Drivers/USB/Class/Device/RNDIS.c **** 	         this, response bytes should be filled in order so that they do not clobber unread data in
 218:../LUFA/Drivers/USB/Class/Device/RNDIS.c **** 
 219:../LUFA/Drivers/USB/Class/Device/RNDIS.c **** 	RNDIS_Message_Header_t* MessageHeader = (RNDIS_Message_Header_t*)&RNDISInterfaceInfo->State.RNDISM
 220:../LUFA/Drivers/USB/Class/Device/RNDIS.c **** 
 221:../LUFA/Drivers/USB/Class/Device/RNDIS.c **** 	switch (MessageHeader->MessageType)
  92               		.loc 1 221 0
  93 005c 8D89      		ldd r24,Y+21
  94 005e 9E89      		ldd r25,Y+22
  95 0060 AF89      		ldd r26,Y+23
  96 0062 B88D      		ldd r27,Y+24
  97 0064 8430      		cpi r24,4
  98 0066 9105      		cpc r25,__zero_reg__
  99 0068 A105      		cpc r26,__zero_reg__
 100 006a B105      		cpc r27,__zero_reg__
 101 006c 01F4      		brne .+2
 102 006e 00C0      		rjmp .L6
 103 0070 00F4      		brsh .L7
 104 0072 8230      		cpi r24,2
 105 0074 9105      		cpc r25,__zero_reg__
 106 0076 A105      		cpc r26,__zero_reg__
 107 0078 B105      		cpc r27,__zero_reg__
 108 007a 01F0      		breq .L8
 109 007c 0397      		sbiw r24,3
 110 007e A105      		cpc r26,__zero_reg__
 111 0080 B105      		cpc r27,__zero_reg__
 112 0082 01F0      		breq .+2
 113 0084 00C0      		rjmp .L5
 114               	.LBB61:
 222:../LUFA/Drivers/USB/Class/Device/RNDIS.c **** 	{
 223:../LUFA/Drivers/USB/Class/Device/RNDIS.c **** 		case REMOTE_NDIS_INITIALIZE_MSG:
 224:../LUFA/Drivers/USB/Class/Device/RNDIS.c **** 			RNDISInterfaceInfo->State.ResponseReady = true;
 225:../LUFA/Drivers/USB/Class/Device/RNDIS.c **** 			
 226:../LUFA/Drivers/USB/Class/Device/RNDIS.c **** 			RNDIS_Initialize_Message_t*  INITIALIZE_Message  =
 227:../LUFA/Drivers/USB/Class/Device/RNDIS.c **** 			               (RNDIS_Initialize_Message_t*)&RNDISInterfaceInfo->State.RNDISMessageBuffer;
 228:../LUFA/Drivers/USB/Class/Device/RNDIS.c **** 			RNDIS_Initialize_Complete_t* INITIALIZE_Response =
 229:../LUFA/Drivers/USB/Class/Device/RNDIS.c **** 			               (RNDIS_Initialize_Complete_t*)&RNDISInterfaceInfo->State.RNDISMessageBuffer;
 230:../LUFA/Drivers/USB/Class/Device/RNDIS.c **** 			
 231:../LUFA/Drivers/USB/Class/Device/RNDIS.c **** 			INITIALIZE_Response->MessageType           = REMOTE_NDIS_INITIALIZE_CMPLT;
 232:../LUFA/Drivers/USB/Class/Device/RNDIS.c **** 			INITIALIZE_Response->MessageLength         = sizeof(RNDIS_Initialize_Complete_t);
 233:../LUFA/Drivers/USB/Class/Device/RNDIS.c **** 			INITIALIZE_Response->RequestId             = INITIALIZE_Message->RequestId;
 234:../LUFA/Drivers/USB/Class/Device/RNDIS.c **** 			INITIALIZE_Response->Status                = REMOTE_NDIS_STATUS_SUCCESS;
 235:../LUFA/Drivers/USB/Class/Device/RNDIS.c **** 			
 236:../LUFA/Drivers/USB/Class/Device/RNDIS.c **** 			INITIALIZE_Response->MajorVersion          = REMOTE_NDIS_VERSION_MAJOR;
 237:../LUFA/Drivers/USB/Class/Device/RNDIS.c **** 			INITIALIZE_Response->MinorVersion          = REMOTE_NDIS_VERSION_MINOR;			
 238:../LUFA/Drivers/USB/Class/Device/RNDIS.c **** 			INITIALIZE_Response->DeviceFlags           = REMOTE_NDIS_DF_CONNECTIONLESS;
 239:../LUFA/Drivers/USB/Class/Device/RNDIS.c **** 			INITIALIZE_Response->Medium                = REMOTE_NDIS_MEDIUM_802_3;
 240:../LUFA/Drivers/USB/Class/Device/RNDIS.c **** 			INITIALIZE_Response->MaxPacketsPerTransfer = 1;
 241:../LUFA/Drivers/USB/Class/Device/RNDIS.c **** 			INITIALIZE_Response->MaxTransferSize       = (sizeof(RNDIS_Packet_Message_t) + ETHERNET_FRAME_SI
 242:../LUFA/Drivers/USB/Class/Device/RNDIS.c **** 			INITIALIZE_Response->PacketAlignmentFactor = 0;
 243:../LUFA/Drivers/USB/Class/Device/RNDIS.c **** 			INITIALIZE_Response->AFListOffset          = 0;
 244:../LUFA/Drivers/USB/Class/Device/RNDIS.c **** 			INITIALIZE_Response->AFListSize            = 0;
 245:../LUFA/Drivers/USB/Class/Device/RNDIS.c **** 			
 246:../LUFA/Drivers/USB/Class/Device/RNDIS.c **** 			RNDISInterfaceInfo->State.CurrRNDISState = RNDIS_Initialized;
 247:../LUFA/Drivers/USB/Class/Device/RNDIS.c **** 		
 248:../LUFA/Drivers/USB/Class/Device/RNDIS.c **** 			break;
 249:../LUFA/Drivers/USB/Class/Device/RNDIS.c **** 		case REMOTE_NDIS_HALT_MSG:
 250:../LUFA/Drivers/USB/Class/Device/RNDIS.c **** 			RNDISInterfaceInfo->State.ResponseReady = false;
 115               		.loc 1 250 0
 116 0086 FE01      		movw r30,r28
 117 0088 EB56      		subi r30,107
 118 008a FF4F      		sbci r31,-1
 119 008c 1082      		st Z,__zero_reg__
 251:../LUFA/Drivers/USB/Class/Device/RNDIS.c **** 			MessageHeader->MessageLength = 0;
 120               		.loc 1 251 0
 121 008e 198E      		std Y+25,__zero_reg__
 122 0090 1A8E      		std Y+26,__zero_reg__
 123 0092 1B8E      		std Y+27,__zero_reg__
 124 0094 1C8E      		std Y+28,__zero_reg__
 252:../LUFA/Drivers/USB/Class/Device/RNDIS.c **** 
 253:../LUFA/Drivers/USB/Class/Device/RNDIS.c **** 			RNDISInterfaceInfo->State.CurrRNDISState = RNDIS_Uninitialized;
 125               		.loc 1 253 0
 126 0096 CA56      		subi r28,106
 127 0098 DF4F      		sbci r29,-1
 128               	.LVL3:
 129 009a 1882      		st Y,__zero_reg__
 130 009c 00C0      		rjmp .L5
 131               	.LVL4:
 132               	.L7:
 133               	.LBE61:
 221:../LUFA/Drivers/USB/Class/Device/RNDIS.c **** 	{
 134               		.loc 1 221 0
 135 009e 8630      		cpi r24,6
 136 00a0 9105      		cpc r25,__zero_reg__
 137 00a2 A105      		cpc r26,__zero_reg__
 138 00a4 B105      		cpc r27,__zero_reg__
 139 00a6 01F4      		brne .+2
 140 00a8 00C0      		rjmp .L10
 141 00aa 00F4      		brsh .+2
 142 00ac 00C0      		rjmp .L11
 143 00ae 0897      		sbiw r24,8
 144 00b0 A105      		cpc r26,__zero_reg__
 145 00b2 B105      		cpc r27,__zero_reg__
 146 00b4 01F0      		breq .+2
 147 00b6 00C0      		rjmp .L5
 148               	.LBB68:
 254:../LUFA/Drivers/USB/Class/Device/RNDIS.c **** 
 255:../LUFA/Drivers/USB/Class/Device/RNDIS.c **** 			break;
 256:../LUFA/Drivers/USB/Class/Device/RNDIS.c **** 		case REMOTE_NDIS_QUERY_MSG:
 257:../LUFA/Drivers/USB/Class/Device/RNDIS.c **** 			RNDISInterfaceInfo->State.ResponseReady = true;
 258:../LUFA/Drivers/USB/Class/Device/RNDIS.c **** 						
 259:../LUFA/Drivers/USB/Class/Device/RNDIS.c **** 			RNDIS_Query_Message_t*  QUERY_Message  = (RNDIS_Query_Message_t*)&RNDISInterfaceInfo->State.RNDI
 260:../LUFA/Drivers/USB/Class/Device/RNDIS.c **** 			RNDIS_Query_Complete_t* QUERY_Response = (RNDIS_Query_Complete_t*)&RNDISInterfaceInfo->State.RND
 261:../LUFA/Drivers/USB/Class/Device/RNDIS.c **** 			uint32_t                Query_Oid      = QUERY_Message->Oid;
 262:../LUFA/Drivers/USB/Class/Device/RNDIS.c **** 						
 263:../LUFA/Drivers/USB/Class/Device/RNDIS.c **** 			void*     QueryData = &RNDISInterfaceInfo->State.RNDISMessageBuffer[sizeof(RNDIS_Message_Header_
 264:../LUFA/Drivers/USB/Class/Device/RNDIS.c **** 			                                                                    QUERY_Message->InformationBu
 265:../LUFA/Drivers/USB/Class/Device/RNDIS.c **** 			void*     ResponseData = &RNDISInterfaceInfo->State.RNDISMessageBuffer[sizeof(RNDIS_Query_Comple
 266:../LUFA/Drivers/USB/Class/Device/RNDIS.c **** 			uint16_t  ResponseSize;
 267:../LUFA/Drivers/USB/Class/Device/RNDIS.c **** 
 268:../LUFA/Drivers/USB/Class/Device/RNDIS.c **** 			QUERY_Response->MessageType   = REMOTE_NDIS_QUERY_CMPLT;
 269:../LUFA/Drivers/USB/Class/Device/RNDIS.c **** 			QUERY_Response->MessageLength = sizeof(RNDIS_Query_Complete_t);
 270:../LUFA/Drivers/USB/Class/Device/RNDIS.c **** 						
 271:../LUFA/Drivers/USB/Class/Device/RNDIS.c **** 			if (RNDIS_Device_ProcessNDISQuery(RNDISInterfaceInfo, Query_Oid, QueryData, QUERY_Message->Infor
 272:../LUFA/Drivers/USB/Class/Device/RNDIS.c **** 			                                  ResponseData, &ResponseSize))
 273:../LUFA/Drivers/USB/Class/Device/RNDIS.c **** 			{
 274:../LUFA/Drivers/USB/Class/Device/RNDIS.c **** 				QUERY_Response->Status                  = REMOTE_NDIS_STATUS_SUCCESS;
 275:../LUFA/Drivers/USB/Class/Device/RNDIS.c **** 				QUERY_Response->MessageLength          += ResponseSize;
 276:../LUFA/Drivers/USB/Class/Device/RNDIS.c **** 							
 277:../LUFA/Drivers/USB/Class/Device/RNDIS.c **** 				QUERY_Response->InformationBufferLength = ResponseSize;
 278:../LUFA/Drivers/USB/Class/Device/RNDIS.c **** 				QUERY_Response->InformationBufferOffset = (sizeof(RNDIS_Query_Complete_t) - sizeof(RNDIS_Messag
 279:../LUFA/Drivers/USB/Class/Device/RNDIS.c **** 			}
 280:../LUFA/Drivers/USB/Class/Device/RNDIS.c **** 			else
 281:../LUFA/Drivers/USB/Class/Device/RNDIS.c **** 			{				
 282:../LUFA/Drivers/USB/Class/Device/RNDIS.c **** 				QUERY_Response->Status                  = REMOTE_NDIS_STATUS_NOT_SUPPORTED;
 283:../LUFA/Drivers/USB/Class/Device/RNDIS.c **** 
 284:../LUFA/Drivers/USB/Class/Device/RNDIS.c **** 				QUERY_Response->InformationBufferLength = 0;
 285:../LUFA/Drivers/USB/Class/Device/RNDIS.c **** 				QUERY_Response->InformationBufferOffset = 0;
 286:../LUFA/Drivers/USB/Class/Device/RNDIS.c **** 			}
 287:../LUFA/Drivers/USB/Class/Device/RNDIS.c **** 			
 288:../LUFA/Drivers/USB/Class/Device/RNDIS.c **** 			break;
 289:../LUFA/Drivers/USB/Class/Device/RNDIS.c **** 		case REMOTE_NDIS_SET_MSG:
 290:../LUFA/Drivers/USB/Class/Device/RNDIS.c **** 			RNDISInterfaceInfo->State.ResponseReady = true;
 291:../LUFA/Drivers/USB/Class/Device/RNDIS.c **** 			
 292:../LUFA/Drivers/USB/Class/Device/RNDIS.c **** 			RNDIS_Set_Message_t*  SET_Message  = (RNDIS_Set_Message_t*)&RNDISInterfaceInfo->State.RNDISMessa
 293:../LUFA/Drivers/USB/Class/Device/RNDIS.c **** 			RNDIS_Set_Complete_t* SET_Response = (RNDIS_Set_Complete_t*)&RNDISInterfaceInfo->State.RNDISMess
 294:../LUFA/Drivers/USB/Class/Device/RNDIS.c **** 			uint32_t              SET_Oid      = SET_Message->Oid;
 295:../LUFA/Drivers/USB/Class/Device/RNDIS.c **** 
 296:../LUFA/Drivers/USB/Class/Device/RNDIS.c **** 			SET_Response->MessageType   = REMOTE_NDIS_SET_CMPLT;
 297:../LUFA/Drivers/USB/Class/Device/RNDIS.c **** 			SET_Response->MessageLength = sizeof(RNDIS_Set_Complete_t);
 298:../LUFA/Drivers/USB/Class/Device/RNDIS.c **** 			SET_Response->RequestId     = SET_Message->RequestId;
 299:../LUFA/Drivers/USB/Class/Device/RNDIS.c **** 
 300:../LUFA/Drivers/USB/Class/Device/RNDIS.c **** 			void* SetData = &RNDISInterfaceInfo->State.RNDISMessageBuffer[sizeof(RNDIS_Message_Header_t) +
 301:../LUFA/Drivers/USB/Class/Device/RNDIS.c **** 			                                                              SET_Message->InformationBufferOffs
 302:../LUFA/Drivers/USB/Class/Device/RNDIS.c **** 						
 303:../LUFA/Drivers/USB/Class/Device/RNDIS.c **** 			SET_Response->Status = RNDIS_Device_ProcessNDISSet(RNDISInterfaceInfo, SET_Oid, SetData,
 304:../LUFA/Drivers/USB/Class/Device/RNDIS.c **** 			                                                   SET_Message->InformationBufferLength) ?
 305:../LUFA/Drivers/USB/Class/Device/RNDIS.c **** 			                                                   REMOTE_NDIS_STATUS_SUCCESS : REMOTE_NDIS_STAT
 306:../LUFA/Drivers/USB/Class/Device/RNDIS.c **** 			break;
 307:../LUFA/Drivers/USB/Class/Device/RNDIS.c **** 		case REMOTE_NDIS_RESET_MSG:
 308:../LUFA/Drivers/USB/Class/Device/RNDIS.c **** 			RNDISInterfaceInfo->State.ResponseReady = true;
 309:../LUFA/Drivers/USB/Class/Device/RNDIS.c **** 			
 310:../LUFA/Drivers/USB/Class/Device/RNDIS.c **** 			RNDIS_Reset_Complete_t* RESET_Response = (RNDIS_Reset_Complete_t*)&RNDISInterfaceInfo->State.RND
 311:../LUFA/Drivers/USB/Class/Device/RNDIS.c **** 
 312:../LUFA/Drivers/USB/Class/Device/RNDIS.c **** 			RESET_Response->MessageType     = REMOTE_NDIS_RESET_CMPLT;
 313:../LUFA/Drivers/USB/Class/Device/RNDIS.c **** 			RESET_Response->MessageLength   = sizeof(RNDIS_Reset_Complete_t);
 314:../LUFA/Drivers/USB/Class/Device/RNDIS.c **** 			RESET_Response->Status          = REMOTE_NDIS_STATUS_SUCCESS;
 315:../LUFA/Drivers/USB/Class/Device/RNDIS.c **** 			RESET_Response->AddressingReset = 0;
 316:../LUFA/Drivers/USB/Class/Device/RNDIS.c **** 
 317:../LUFA/Drivers/USB/Class/Device/RNDIS.c **** 			break;
 318:../LUFA/Drivers/USB/Class/Device/RNDIS.c **** 		case REMOTE_NDIS_KEEPALIVE_MSG:
 319:../LUFA/Drivers/USB/Class/Device/RNDIS.c **** 			RNDISInterfaceInfo->State.ResponseReady = true;
 149               		.loc 1 319 0
 150 00b8 FE01      		movw r30,r28
 151 00ba EB56      		subi r30,107
 152 00bc FF4F      		sbci r31,-1
 153 00be 81E0      		ldi r24,lo8(1)
 154 00c0 8083      		st Z,r24
 155               	.LVL5:
 320:../LUFA/Drivers/USB/Class/Device/RNDIS.c **** 			
 321:../LUFA/Drivers/USB/Class/Device/RNDIS.c **** 			RNDIS_KeepAlive_Message_t*  KEEPALIVE_Message  =
 322:../LUFA/Drivers/USB/Class/Device/RNDIS.c **** 			                (RNDIS_KeepAlive_Message_t*)&RNDISInterfaceInfo->State.RNDISMessageBuffer;
 323:../LUFA/Drivers/USB/Class/Device/RNDIS.c **** 			RNDIS_KeepAlive_Complete_t* KEEPALIVE_Response =
 324:../LUFA/Drivers/USB/Class/Device/RNDIS.c **** 			                (RNDIS_KeepAlive_Complete_t*)&RNDISInterfaceInfo->State.RNDISMessageBuffer;
 325:../LUFA/Drivers/USB/Class/Device/RNDIS.c **** 
 326:../LUFA/Drivers/USB/Class/Device/RNDIS.c **** 			KEEPALIVE_Response->MessageType   = REMOTE_NDIS_KEEPALIVE_CMPLT;
 156               		.loc 1 326 0
 157 00c2 88E0      		ldi r24,lo8(8)
 158 00c4 90E0      		ldi r25,0
 159 00c6 A0E0      		ldi r26,0
 160 00c8 B0E8      		ldi r27,lo8(-128)
 161 00ca 8D8B      		std Y+21,r24
 162 00cc 9E8B      		std Y+22,r25
 163 00ce AF8B      		std Y+23,r26
 164 00d0 B88F      		std Y+24,r27
 327:../LUFA/Drivers/USB/Class/Device/RNDIS.c **** 			KEEPALIVE_Response->MessageLength = sizeof(RNDIS_KeepAlive_Complete_t);
 165               		.loc 1 327 0
 166 00d2 80E1      		ldi r24,lo8(16)
 167 00d4 90E0      		ldi r25,0
 168 00d6 A0E0      		ldi r26,0
 169 00d8 B0E0      		ldi r27,0
 170 00da 898F      		std Y+25,r24
 171 00dc 9A8F      		std Y+26,r25
 172 00de AB8F      		std Y+27,r26
 173 00e0 BC8F      		std Y+28,r27
 174 00e2 00C0      		rjmp .L52
 175               	.LVL6:
 176               	.L8:
 224:../LUFA/Drivers/USB/Class/Device/RNDIS.c **** 			
 177               		.loc 1 224 0
 178 00e4 FE01      		movw r30,r28
 179 00e6 EB56      		subi r30,107
 180 00e8 FF4F      		sbci r31,-1
 181 00ea 21E0      		ldi r18,lo8(1)
 182 00ec 2083      		st Z,r18
 183               	.LVL7:
 231:../LUFA/Drivers/USB/Class/Device/RNDIS.c **** 			INITIALIZE_Response->MessageLength         = sizeof(RNDIS_Initialize_Complete_t);
 184               		.loc 1 231 0
 185 00ee 82E0      		ldi r24,lo8(2)
 186 00f0 90E0      		ldi r25,0
 187 00f2 A0E0      		ldi r26,0
 188 00f4 B0E8      		ldi r27,lo8(-128)
 189 00f6 8D8B      		std Y+21,r24
 190 00f8 9E8B      		std Y+22,r25
 191 00fa AF8B      		std Y+23,r26
 192 00fc B88F      		std Y+24,r27
 232:../LUFA/Drivers/USB/Class/Device/RNDIS.c **** 			INITIALIZE_Response->RequestId             = INITIALIZE_Message->RequestId;
 193               		.loc 1 232 0
 194 00fe 84E3      		ldi r24,lo8(52)
 195 0100 90E0      		ldi r25,0
 196 0102 A0E0      		ldi r26,0
 197 0104 B0E0      		ldi r27,0
 198 0106 898F      		std Y+25,r24
 199 0108 9A8F      		std Y+26,r25
 200 010a AB8F      		std Y+27,r26
 201 010c BC8F      		std Y+28,r27
 234:../LUFA/Drivers/USB/Class/Device/RNDIS.c **** 			
 202               		.loc 1 234 0
 203 010e 19A2      		std Y+33,__zero_reg__
 204 0110 1AA2      		std Y+34,__zero_reg__
 205 0112 1BA2      		std Y+35,__zero_reg__
 206 0114 1CA2      		std Y+36,__zero_reg__
 236:../LUFA/Drivers/USB/Class/Device/RNDIS.c **** 			INITIALIZE_Response->MinorVersion          = REMOTE_NDIS_VERSION_MINOR;			
 207               		.loc 1 236 0
 208 0116 81E0      		ldi r24,lo8(1)
 209 0118 90E0      		ldi r25,0
 210 011a A0E0      		ldi r26,0
 211 011c B0E0      		ldi r27,0
 212 011e 8DA3      		std Y+37,r24
 213 0120 9EA3      		std Y+38,r25
 214 0122 AFA3      		std Y+39,r26
 215 0124 B8A7      		std Y+40,r27
 237:../LUFA/Drivers/USB/Class/Device/RNDIS.c **** 			INITIALIZE_Response->DeviceFlags           = REMOTE_NDIS_DF_CONNECTIONLESS;
 216               		.loc 1 237 0
 217 0126 19A6      		std Y+41,__zero_reg__
 218 0128 1AA6      		std Y+42,__zero_reg__
 219 012a 1BA6      		std Y+43,__zero_reg__
 220 012c 1CA6      		std Y+44,__zero_reg__
 238:../LUFA/Drivers/USB/Class/Device/RNDIS.c **** 			INITIALIZE_Response->Medium                = REMOTE_NDIS_MEDIUM_802_3;
 221               		.loc 1 238 0
 222 012e 8DA7      		std Y+45,r24
 223 0130 9EA7      		std Y+46,r25
 224 0132 AFA7      		std Y+47,r26
 225 0134 B8AB      		std Y+48,r27
 239:../LUFA/Drivers/USB/Class/Device/RNDIS.c **** 			INITIALIZE_Response->MaxPacketsPerTransfer = 1;
 226               		.loc 1 239 0
 227 0136 19AA      		std Y+49,__zero_reg__
 228 0138 1AAA      		std Y+50,__zero_reg__
 229 013a 1BAA      		std Y+51,__zero_reg__
 230 013c 1CAA      		std Y+52,__zero_reg__
 240:../LUFA/Drivers/USB/Class/Device/RNDIS.c **** 			INITIALIZE_Response->MaxTransferSize       = (sizeof(RNDIS_Packet_Message_t) + ETHERNET_FRAME_SI
 231               		.loc 1 240 0
 232 013e 8DAB      		std Y+53,r24
 233 0140 9EAB      		std Y+54,r25
 234 0142 AFAB      		std Y+55,r26
 235 0144 B8AF      		std Y+56,r27
 241:../LUFA/Drivers/USB/Class/Device/RNDIS.c **** 			INITIALIZE_Response->PacketAlignmentFactor = 0;
 236               		.loc 1 241 0
 237 0146 88E0      		ldi r24,lo8(8)
 238 0148 96E0      		ldi r25,lo8(6)
 239 014a A0E0      		ldi r26,0
 240 014c B0E0      		ldi r27,0
 241 014e 89AF      		std Y+57,r24
 242 0150 9AAF      		std Y+58,r25
 243 0152 ABAF      		std Y+59,r26
 244 0154 BCAF      		std Y+60,r27
 242:../LUFA/Drivers/USB/Class/Device/RNDIS.c **** 			INITIALIZE_Response->AFListOffset          = 0;
 245               		.loc 1 242 0
 246 0156 E855      		subi r30,88
 247 0158 F109      		sbc r31,__zero_reg__
 248 015a 1082      		st Z,__zero_reg__
 249 015c 1182      		std Z+1,__zero_reg__
 250 015e 1282      		std Z+2,__zero_reg__
 251 0160 1382      		std Z+3,__zero_reg__
 243:../LUFA/Drivers/USB/Class/Device/RNDIS.c **** 			INITIALIZE_Response->AFListSize            = 0;
 252               		.loc 1 243 0
 253 0162 3496      		adiw r30,4
 254 0164 1082      		st Z,__zero_reg__
 255 0166 1182      		std Z+1,__zero_reg__
 256 0168 1282      		std Z+2,__zero_reg__
 257 016a 1382      		std Z+3,__zero_reg__
 244:../LUFA/Drivers/USB/Class/Device/RNDIS.c **** 			
 258               		.loc 1 244 0
 259 016c 3496      		adiw r30,4
 260 016e 1082      		st Z,__zero_reg__
 261 0170 1182      		std Z+1,__zero_reg__
 262 0172 1282      		std Z+2,__zero_reg__
 263 0174 1382      		std Z+3,__zero_reg__
 246:../LUFA/Drivers/USB/Class/Device/RNDIS.c **** 		
 264               		.loc 1 246 0
 265 0176 CA56      		subi r28,106
 266 0178 DF4F      		sbci r29,-1
 267               	.LVL8:
 268 017a 2883      		st Y,r18
 269 017c 00C0      		rjmp .L5
 270               	.LVL9:
 271               	.L6:
 257:../LUFA/Drivers/USB/Class/Device/RNDIS.c **** 						
 272               		.loc 1 257 0
 273 017e 81E0      		ldi r24,lo8(1)
 274 0180 FE01      		movw r30,r28
 275 0182 EB56      		subi r30,107
 276 0184 FF4F      		sbci r31,-1
 277 0186 8083      		st Z,r24
 278               	.LVL10:
 261:../LUFA/Drivers/USB/Class/Device/RNDIS.c **** 						
 279               		.loc 1 261 0
 280 0188 49A1      		ldd r20,Y+33
 281 018a 5AA1      		ldd r21,Y+34
 282 018c 6BA1      		ldd r22,Y+35
 283 018e 7CA1      		ldd r23,Y+36
 284               	.LVL11:
 265:../LUFA/Drivers/USB/Class/Device/RNDIS.c **** 			uint16_t  ResponseSize;
 285               		.loc 1 265 0
 286 0190 CE01      		movw r24,r28
 287 0192 8D96      		adiw r24,45
 288               	.LVL12:
 268:../LUFA/Drivers/USB/Class/Device/RNDIS.c **** 			QUERY_Response->MessageLength = sizeof(RNDIS_Query_Complete_t);
 289               		.loc 1 268 0
 290 0194 04E0      		ldi r16,lo8(4)
 291 0196 10E0      		ldi r17,0
 292 0198 20E0      		ldi r18,0
 293 019a 30E8      		ldi r19,lo8(-128)
 294 019c 0D8B      		std Y+21,r16
 295 019e 1E8B      		std Y+22,r17
 296 01a0 2F8B      		std Y+23,r18
 297 01a2 388F      		std Y+24,r19
 269:../LUFA/Drivers/USB/Class/Device/RNDIS.c **** 						
 298               		.loc 1 269 0
 299 01a4 08E1      		ldi r16,lo8(24)
 300 01a6 10E0      		ldi r17,0
 301 01a8 20E0      		ldi r18,0
 302 01aa 30E0      		ldi r19,0
 303 01ac 098F      		std Y+25,r16
 304 01ae 1A8F      		std Y+26,r17
 305 01b0 2B8F      		std Y+27,r18
 306 01b2 3C8F      		std Y+28,r19
 307               	.LVL13:
 308               	.LBB62:
 309               	.LBB63:
 328:../LUFA/Drivers/USB/Class/Device/RNDIS.c **** 			KEEPALIVE_Response->RequestId     = KEEPALIVE_Message->RequestId;
 329:../LUFA/Drivers/USB/Class/Device/RNDIS.c **** 			KEEPALIVE_Response->Status        = REMOTE_NDIS_STATUS_SUCCESS;
 330:../LUFA/Drivers/USB/Class/Device/RNDIS.c **** 			
 331:../LUFA/Drivers/USB/Class/Device/RNDIS.c **** 			break;
 332:../LUFA/Drivers/USB/Class/Device/RNDIS.c **** 	}
 333:../LUFA/Drivers/USB/Class/Device/RNDIS.c **** }
 334:../LUFA/Drivers/USB/Class/Device/RNDIS.c **** 
 335:../LUFA/Drivers/USB/Class/Device/RNDIS.c **** static bool RNDIS_Device_ProcessNDISQuery(USB_ClassInfo_RNDIS_Device_t* const RNDISInterfaceInfo,
 336:../LUFA/Drivers/USB/Class/Device/RNDIS.c ****                                           const uint32_t OId,
 337:../LUFA/Drivers/USB/Class/Device/RNDIS.c ****                                           void* const QueryData,
 338:../LUFA/Drivers/USB/Class/Device/RNDIS.c ****                                           const uint16_t QuerySize,
 339:../LUFA/Drivers/USB/Class/Device/RNDIS.c ****                                           void* ResponseData,
 340:../LUFA/Drivers/USB/Class/Device/RNDIS.c ****                                           uint16_t* const ResponseSize)
 341:../LUFA/Drivers/USB/Class/Device/RNDIS.c **** {
 342:../LUFA/Drivers/USB/Class/Device/RNDIS.c **** 	(void)QueryData;
 343:../LUFA/Drivers/USB/Class/Device/RNDIS.c **** 	(void)QuerySize;
 344:../LUFA/Drivers/USB/Class/Device/RNDIS.c **** 
 345:../LUFA/Drivers/USB/Class/Device/RNDIS.c **** 	switch (OId)
 310               		.loc 1 345 0
 311 01b4 4E30      		cpi r20,14
 312 01b6 F1E0      		ldi r31,1
 313 01b8 5F07      		cpc r21,r31
 314 01ba 6F07      		cpc r22,r31
 315 01bc 7105      		cpc r23,__zero_reg__
 316 01be 01F4      		brne .+2
 317 01c0 00C0      		rjmp .L14
 318 01c2 00F0      		brlo .+2
 319 01c4 00C0      		rjmp .L15
 320 01c6 4630      		cpi r20,6
 321 01c8 E1E0      		ldi r30,1
 322 01ca 5E07      		cpc r21,r30
 323 01cc 6E07      		cpc r22,r30
 324 01ce 7105      		cpc r23,__zero_reg__
 325 01d0 01F4      		brne .+2
 326 01d2 00C0      		rjmp .L16
 327 01d4 00F4      		brsh .L17
 328 01d6 4230      		cpi r20,2
 329 01d8 21E0      		ldi r18,1
 330 01da 5207      		cpc r21,r18
 331 01dc 6207      		cpc r22,r18
 332 01de 7105      		cpc r23,__zero_reg__
 333 01e0 01F4      		brne .+2
 334 01e2 00C0      		rjmp .L27
 335 01e4 00F4      		brsh .L19
 336 01e6 4130      		cpi r20,1
 337 01e8 5140      		sbci r21,1
 338 01ea 6140      		sbci r22,1
 339 01ec 7105      		cpc r23,__zero_reg__
 340 01ee 01F0      		breq .+2
 341 01f0 00C0      		rjmp .L13
 342               	.LVL14:
 346:../LUFA/Drivers/USB/Class/Device/RNDIS.c **** 	{
 347:../LUFA/Drivers/USB/Class/Device/RNDIS.c **** 		case OID_GEN_SUPPORTED_LIST:
 348:../LUFA/Drivers/USB/Class/Device/RNDIS.c **** 			*ResponseSize = sizeof(AdapterSupportedOIDList);
 349:../LUFA/Drivers/USB/Class/Device/RNDIS.c **** 			
 350:../LUFA/Drivers/USB/Class/Device/RNDIS.c **** 			memcpy_P(ResponseData, AdapterSupportedOIDList, sizeof(AdapterSupportedOIDList));
 343               		.loc 1 350 0
 344 01f2 4CE6      		ldi r20,lo8(108)
 345 01f4 50E0      		ldi r21,0
 346               	.LVL15:
 347 01f6 60E0      		ldi r22,lo8(AdapterSupportedOIDList)
 348 01f8 70E0      		ldi r23,hi8(AdapterSupportedOIDList)
 349 01fa 0E94 0000 		call memcpy_P
 350               	.LVL16:
 348:../LUFA/Drivers/USB/Class/Device/RNDIS.c **** 			
 351               		.loc 1 348 0
 352 01fe 0CE6      		ldi r16,lo8(108)
 353 0200 10E0      		ldi r17,0
 354 0202 00C0      		rjmp .L34
 355               	.LVL17:
 356               	.L19:
 345:../LUFA/Drivers/USB/Class/Device/RNDIS.c **** 	{
 357               		.loc 1 345 0
 358 0204 4530      		cpi r20,5
 359 0206 5140      		sbci r21,1
 360 0208 6140      		sbci r22,1
 361 020a 7105      		cpc r23,__zero_reg__
 362 020c 00F4      		brsh .+2
 363 020e 00C0      		rjmp .L27
 364 0210 00C0      		rjmp .L13
 365               	.L17:
 366 0212 4C30      		cpi r20,12
 367 0214 E1E0      		ldi r30,1
 368 0216 5E07      		cpc r21,r30
 369 0218 6E07      		cpc r22,r30
 370 021a 7105      		cpc r23,__zero_reg__
 371 021c 00F4      		brsh .L22
 372 021e 4A30      		cpi r20,10
 373 0220 F1E0      		ldi r31,1
 374 0222 5F07      		cpc r21,r31
 375 0224 6F07      		cpc r22,r31
 376 0226 7105      		cpc r23,__zero_reg__
 377 0228 00F0      		brlo .+2
 378 022a 00C0      		rjmp .L16
 379 022c 4730      		cpi r20,7
 380 022e 5140      		sbci r21,1
 381 0230 6140      		sbci r22,1
 382 0232 7105      		cpc r23,__zero_reg__
 383 0234 01F0      		breq .+2
 384 0236 00C0      		rjmp .L13
 385               	.LVL18:
 351:../LUFA/Drivers/USB/Class/Device/RNDIS.c **** 			
 352:../LUFA/Drivers/USB/Class/Device/RNDIS.c **** 			return true;
 353:../LUFA/Drivers/USB/Class/Device/RNDIS.c **** 		case OID_GEN_PHYSICAL_MEDIUM:
 354:../LUFA/Drivers/USB/Class/Device/RNDIS.c **** 			*ResponseSize = sizeof(uint32_t);
 355:../LUFA/Drivers/USB/Class/Device/RNDIS.c **** 			
 356:../LUFA/Drivers/USB/Class/Device/RNDIS.c **** 			/* Indicate that the device is a true ethernet link */
 357:../LUFA/Drivers/USB/Class/Device/RNDIS.c **** 			*((uint32_t*)ResponseData) = 0;
 358:../LUFA/Drivers/USB/Class/Device/RNDIS.c **** 			
 359:../LUFA/Drivers/USB/Class/Device/RNDIS.c **** 			return true;
 360:../LUFA/Drivers/USB/Class/Device/RNDIS.c **** 		case OID_GEN_HARDWARE_STATUS:
 361:../LUFA/Drivers/USB/Class/Device/RNDIS.c **** 			*ResponseSize = sizeof(uint32_t);
 362:../LUFA/Drivers/USB/Class/Device/RNDIS.c **** 			
 363:../LUFA/Drivers/USB/Class/Device/RNDIS.c **** 			*((uint32_t*)ResponseData) = NDIS_HardwareStatus_Ready;
 364:../LUFA/Drivers/USB/Class/Device/RNDIS.c **** 			
 365:../LUFA/Drivers/USB/Class/Device/RNDIS.c **** 			return true;
 366:../LUFA/Drivers/USB/Class/Device/RNDIS.c **** 		case OID_GEN_MEDIA_SUPPORTED:
 367:../LUFA/Drivers/USB/Class/Device/RNDIS.c **** 		case OID_GEN_MEDIA_IN_USE:
 368:../LUFA/Drivers/USB/Class/Device/RNDIS.c **** 			*ResponseSize = sizeof(uint32_t);
 369:../LUFA/Drivers/USB/Class/Device/RNDIS.c **** 			
 370:../LUFA/Drivers/USB/Class/Device/RNDIS.c **** 			*((uint32_t*)ResponseData) = REMOTE_NDIS_MEDIUM_802_3;
 371:../LUFA/Drivers/USB/Class/Device/RNDIS.c **** 			
 372:../LUFA/Drivers/USB/Class/Device/RNDIS.c **** 			return true;
 373:../LUFA/Drivers/USB/Class/Device/RNDIS.c **** 		case OID_GEN_VENDOR_ID:
 374:../LUFA/Drivers/USB/Class/Device/RNDIS.c **** 			*ResponseSize = sizeof(uint32_t);
 375:../LUFA/Drivers/USB/Class/Device/RNDIS.c **** 			
 376:../LUFA/Drivers/USB/Class/Device/RNDIS.c **** 			/* Vendor ID 0x0xFFFFFF is reserved for vendors who have not purchased a NDIS VID */
 377:../LUFA/Drivers/USB/Class/Device/RNDIS.c **** 			*((uint32_t*)ResponseData) = 0x00FFFFFF;
 378:../LUFA/Drivers/USB/Class/Device/RNDIS.c **** 			
 379:../LUFA/Drivers/USB/Class/Device/RNDIS.c **** 			return true;
 380:../LUFA/Drivers/USB/Class/Device/RNDIS.c **** 		case OID_GEN_MAXIMUM_FRAME_SIZE:
 381:../LUFA/Drivers/USB/Class/Device/RNDIS.c **** 		case OID_GEN_TRANSMIT_BLOCK_SIZE:
 382:../LUFA/Drivers/USB/Class/Device/RNDIS.c **** 		case OID_GEN_RECEIVE_BLOCK_SIZE:
 383:../LUFA/Drivers/USB/Class/Device/RNDIS.c **** 			*ResponseSize = sizeof(uint32_t);
 384:../LUFA/Drivers/USB/Class/Device/RNDIS.c **** 			
 385:../LUFA/Drivers/USB/Class/Device/RNDIS.c **** 			*((uint32_t*)ResponseData) = ETHERNET_FRAME_SIZE_MAX;
 386:../LUFA/Drivers/USB/Class/Device/RNDIS.c **** 			
 387:../LUFA/Drivers/USB/Class/Device/RNDIS.c **** 			return true;
 388:../LUFA/Drivers/USB/Class/Device/RNDIS.c **** 		case OID_GEN_VENDOR_DESCRIPTION:
 389:../LUFA/Drivers/USB/Class/Device/RNDIS.c **** 			*ResponseSize = (strlen(RNDISInterfaceInfo->Config.AdapterVendorDescription) + 1);
 390:../LUFA/Drivers/USB/Class/Device/RNDIS.c **** 			
 391:../LUFA/Drivers/USB/Class/Device/RNDIS.c **** 			memcpy(ResponseData, RNDISInterfaceInfo->Config.AdapterVendorDescription, *ResponseSize);
 392:../LUFA/Drivers/USB/Class/Device/RNDIS.c **** 			
 393:../LUFA/Drivers/USB/Class/Device/RNDIS.c **** 			return true;
 394:../LUFA/Drivers/USB/Class/Device/RNDIS.c **** 		case OID_GEN_MEDIA_CONNECT_STATUS:
 395:../LUFA/Drivers/USB/Class/Device/RNDIS.c **** 			*ResponseSize = sizeof(uint32_t);
 396:../LUFA/Drivers/USB/Class/Device/RNDIS.c **** 			
 397:../LUFA/Drivers/USB/Class/Device/RNDIS.c **** 			*((uint32_t*)ResponseData) = REMOTE_NDIS_MEDIA_STATE_CONNECTED;
 398:../LUFA/Drivers/USB/Class/Device/RNDIS.c **** 			
 399:../LUFA/Drivers/USB/Class/Device/RNDIS.c **** 			return true;
 400:../LUFA/Drivers/USB/Class/Device/RNDIS.c **** 		case OID_GEN_LINK_SPEED:
 401:../LUFA/Drivers/USB/Class/Device/RNDIS.c **** 			*ResponseSize = sizeof(uint32_t);
 402:../LUFA/Drivers/USB/Class/Device/RNDIS.c **** 			
 403:../LUFA/Drivers/USB/Class/Device/RNDIS.c **** 			/* Indicate 10Mb/s link speed */
 404:../LUFA/Drivers/USB/Class/Device/RNDIS.c **** 			*((uint32_t*)ResponseData) = 100000;
 386               		.loc 1 404 0
 387 0238 80EA      		ldi r24,lo8(-96)
 388 023a 96E8      		ldi r25,lo8(-122)
 389 023c A1E0      		ldi r26,lo8(1)
 390 023e B0E0      		ldi r27,0
 391               	.LVL19:
 392 0240 00C0      		rjmp .L54
 393               	.LVL20:
 394               	.L22:
 345:../LUFA/Drivers/USB/Class/Device/RNDIS.c **** 	{
 395               		.loc 1 345 0
 396 0242 4C30      		cpi r20,12
 397 0244 E1E0      		ldi r30,1
 398 0246 5E07      		cpc r21,r30
 399 0248 6E07      		cpc r22,r30
 400 024a 7105      		cpc r23,__zero_reg__
 401 024c 01F4      		brne .+2
 402 024e 00C0      		rjmp .L24
 403 0250 4D30      		cpi r20,13
 404 0252 5140      		sbci r21,1
 405 0254 6140      		sbci r22,1
 406 0256 7105      		cpc r23,__zero_reg__
 407 0258 01F0      		breq .+2
 408 025a 00C0      		rjmp .L13
 389:../LUFA/Drivers/USB/Class/Device/RNDIS.c **** 			
 409               		.loc 1 389 0
 410 025c 6D85      		ldd r22,Y+13
 411 025e 7E85      		ldd r23,Y+14
 412 0260 FB01      		movw r30,r22
 413               		0:
 414 0262 0190      		ld __tmp_reg__,Z+
 415 0264 0020      		tst __tmp_reg__
 416 0266 01F4      		brne 0b
 417 0268 8F01      		movw r16,r30
 418 026a 061B      		sub r16,r22
 419 026c 170B      		sbc r17,r23
 420               	.LVL21:
 391:../LUFA/Drivers/USB/Class/Device/RNDIS.c **** 			
 421               		.loc 1 391 0
 422 026e A801      		movw r20,r16
 423               	.LVL22:
 424 0270 0E94 0000 		call memcpy
 425               	.LVL23:
 426 0274 00C0      		rjmp .L34
 427               	.LVL24:
 428               	.L15:
 345:../LUFA/Drivers/USB/Class/Device/RNDIS.c **** 	{
 429               		.loc 1 345 0
 430 0276 4630      		cpi r20,6
 431 0278 21E0      		ldi r18,1
 432 027a 5207      		cpc r21,r18
 433 027c 22E0      		ldi r18,2
 434 027e 6207      		cpc r22,r18
 435 0280 7105      		cpc r23,__zero_reg__
 436 0282 00F4      		brsh .L26
 437 0284 4130      		cpi r20,1
 438 0286 81E0      		ldi r24,1
 439 0288 5807      		cpc r21,r24
 440 028a 82E0      		ldi r24,2
 441 028c 6807      		cpc r22,r24
 442 028e 7105      		cpc r23,__zero_reg__
 443               	.LVL25:
 444 0290 00F0      		brlo .+2
 445 0292 00C0      		rjmp .L27
 446 0294 4431      		cpi r20,20
 447 0296 E1E0      		ldi r30,1
 448 0298 5E07      		cpc r21,r30
 449 029a 6E07      		cpc r22,r30
 450 029c 7105      		cpc r23,__zero_reg__
 451 029e 01F4      		brne .+2
 452 02a0 00C0      		rjmp .L27
 453 02a2 4230      		cpi r20,2
 454 02a4 F2E0      		ldi r31,2
 455 02a6 5F07      		cpc r21,r31
 456 02a8 F1E0      		ldi r31,1
 457 02aa 6F07      		cpc r22,r31
 458 02ac 7105      		cpc r23,__zero_reg__
 459 02ae 01F4      		brne .+2
 460 02b0 00C0      		rjmp .L27
 461 02b2 4131      		cpi r20,17
 462 02b4 5140      		sbci r21,1
 463 02b6 6140      		sbci r22,1
 464 02b8 7105      		cpc r23,__zero_reg__
 465 02ba 01F0      		breq .+2
 466 02bc 00C0      		rjmp .L13
 467               	.LVL26:
 405:../LUFA/Drivers/USB/Class/Device/RNDIS.c **** 
 406:../LUFA/Drivers/USB/Class/Device/RNDIS.c **** 			return true;
 407:../LUFA/Drivers/USB/Class/Device/RNDIS.c **** 		case OID_802_3_PERMANENT_ADDRESS:
 408:../LUFA/Drivers/USB/Class/Device/RNDIS.c **** 		case OID_802_3_CURRENT_ADDRESS:
 409:../LUFA/Drivers/USB/Class/Device/RNDIS.c **** 			*ResponseSize = sizeof(MAC_Address_t);
 410:../LUFA/Drivers/USB/Class/Device/RNDIS.c **** 			
 411:../LUFA/Drivers/USB/Class/Device/RNDIS.c **** 			memcpy(ResponseData, &RNDISInterfaceInfo->Config.AdapterMACAddress, sizeof(MAC_Address_t));
 412:../LUFA/Drivers/USB/Class/Device/RNDIS.c **** 
 413:../LUFA/Drivers/USB/Class/Device/RNDIS.c **** 			return true;
 414:../LUFA/Drivers/USB/Class/Device/RNDIS.c **** 		case OID_802_3_MAXIMUM_LIST_SIZE:
 415:../LUFA/Drivers/USB/Class/Device/RNDIS.c **** 			*ResponseSize = sizeof(uint32_t);
 416:../LUFA/Drivers/USB/Class/Device/RNDIS.c **** 			
 417:../LUFA/Drivers/USB/Class/Device/RNDIS.c **** 			/* Indicate only one multicast address supported */
 418:../LUFA/Drivers/USB/Class/Device/RNDIS.c **** 			*((uint32_t*)ResponseData) = 1;
 419:../LUFA/Drivers/USB/Class/Device/RNDIS.c **** 		
 420:../LUFA/Drivers/USB/Class/Device/RNDIS.c **** 			return true;
 421:../LUFA/Drivers/USB/Class/Device/RNDIS.c **** 		case OID_GEN_CURRENT_PACKET_FILTER:
 422:../LUFA/Drivers/USB/Class/Device/RNDIS.c **** 			*ResponseSize = sizeof(uint32_t);
 423:../LUFA/Drivers/USB/Class/Device/RNDIS.c **** 			
 424:../LUFA/Drivers/USB/Class/Device/RNDIS.c **** 			*((uint32_t*)ResponseData) = RNDISInterfaceInfo->State.CurrPacketFilter;
 425:../LUFA/Drivers/USB/Class/Device/RNDIS.c **** 		
 426:../LUFA/Drivers/USB/Class/Device/RNDIS.c **** 			return true;			
 427:../LUFA/Drivers/USB/Class/Device/RNDIS.c **** 		case OID_GEN_XMIT_OK:
 428:../LUFA/Drivers/USB/Class/Device/RNDIS.c **** 		case OID_GEN_RCV_OK:
 429:../LUFA/Drivers/USB/Class/Device/RNDIS.c **** 		case OID_GEN_XMIT_ERROR:
 430:../LUFA/Drivers/USB/Class/Device/RNDIS.c **** 		case OID_GEN_RCV_ERROR:
 431:../LUFA/Drivers/USB/Class/Device/RNDIS.c **** 		case OID_GEN_RCV_NO_BUFFER:
 432:../LUFA/Drivers/USB/Class/Device/RNDIS.c **** 		case OID_802_3_RCV_ERROR_ALIGNMENT:
 433:../LUFA/Drivers/USB/Class/Device/RNDIS.c **** 		case OID_802_3_XMIT_ONE_COLLISION:
 434:../LUFA/Drivers/USB/Class/Device/RNDIS.c **** 		case OID_802_3_XMIT_MORE_COLLISIONS:
 435:../LUFA/Drivers/USB/Class/Device/RNDIS.c **** 			*ResponseSize = sizeof(uint32_t);
 436:../LUFA/Drivers/USB/Class/Device/RNDIS.c **** 			
 437:../LUFA/Drivers/USB/Class/Device/RNDIS.c **** 			/* Unused statistic OIDs - always return 0 for each */
 438:../LUFA/Drivers/USB/Class/Device/RNDIS.c **** 			*((uint32_t*)ResponseData) = 0;
 439:../LUFA/Drivers/USB/Class/Device/RNDIS.c **** 		
 440:../LUFA/Drivers/USB/Class/Device/RNDIS.c **** 			return true;
 441:../LUFA/Drivers/USB/Class/Device/RNDIS.c **** 		case OID_GEN_MAXIMUM_TOTAL_SIZE:
 442:../LUFA/Drivers/USB/Class/Device/RNDIS.c **** 			*ResponseSize = sizeof(uint32_t);
 443:../LUFA/Drivers/USB/Class/Device/RNDIS.c **** 			
 444:../LUFA/Drivers/USB/Class/Device/RNDIS.c **** 			/* Indicate maximum overall buffer (Ethernet frame and RNDIS header) the adapter can handle */
 445:../LUFA/Drivers/USB/Class/Device/RNDIS.c **** 			*((uint32_t*)ResponseData) = (RNDIS_MESSAGE_BUFFER_SIZE + ETHERNET_FRAME_SIZE_MAX);
 468               		.loc 1 445 0
 469 02be 8CE5      		ldi r24,lo8(92)
 470 02c0 96E0      		ldi r25,lo8(6)
 471 02c2 A0E0      		ldi r26,0
 472 02c4 B0E0      		ldi r27,0
 473 02c6 00C0      		rjmp .L54
 474               	.LVL27:
 475               	.L26:
 345:../LUFA/Drivers/USB/Class/Device/RNDIS.c **** 	{
 476               		.loc 1 345 0
 477 02c8 4430      		cpi r20,4
 478 02ca E1E0      		ldi r30,1
 479 02cc 5E07      		cpc r21,r30
 480 02ce 6E07      		cpc r22,r30
 481 02d0 7E07      		cpc r23,r30
 482 02d2 01F0      		breq .L31
 483 02d4 00F4      		brsh .L32
 484 02d6 4150      		subi r20,1
 485 02d8 5140      		sbci r21,1
 486 02da 6140      		sbci r22,1
 487 02dc 7140      		sbci r23,1
 488               	.LVL28:
 489 02de 4230      		cpi r20,2
 490 02e0 5105      		cpc r21,__zero_reg__
 491 02e2 6105      		cpc r22,__zero_reg__
 492 02e4 7105      		cpc r23,__zero_reg__
 493 02e6 00F0      		brlo .+2
 494 02e8 00C0      		rjmp .L13
 495               	.LVL29:
 411:../LUFA/Drivers/USB/Class/Device/RNDIS.c **** 
 496               		.loc 1 411 0
 497 02ea 26E0      		ldi r18,lo8(6)
 498 02ec FE01      		movw r30,r28
 499 02ee 3F96      		adiw r30,15
 500 02f0 DC01      		movw r26,r24
 501               		0:
 502 02f2 0190      		ld r0,Z+
 503 02f4 0D92      		st X+,r0
 504 02f6 2A95      		dec r18
 505 02f8 01F4      		brne 0b
 409:../LUFA/Drivers/USB/Class/Device/RNDIS.c **** 			
 506               		.loc 1 409 0
 507 02fa 06E0      		ldi r16,lo8(6)
 508 02fc 10E0      		ldi r17,0
 509 02fe 00C0      		rjmp .L34
 510               	.LVL30:
 511               	.L32:
 345:../LUFA/Drivers/USB/Class/Device/RNDIS.c **** 	{
 512               		.loc 1 345 0
 513 0300 4150      		subi r20,1
 514 0302 5140      		sbci r21,1
 515 0304 6240      		sbci r22,2
 516 0306 7140      		sbci r23,1
 517               	.LVL31:
 518 0308 4330      		cpi r20,3
 519 030a 5105      		cpc r21,__zero_reg__
 520 030c 6105      		cpc r22,__zero_reg__
 521 030e 7105      		cpc r23,__zero_reg__
 522 0310 00F0      		brlo .L27
 523 0312 00C0      		rjmp .L13
 524               	.LVL32:
 525               	.L24:
 377:../LUFA/Drivers/USB/Class/Device/RNDIS.c **** 			
 526               		.loc 1 377 0
 527 0314 8FEF      		ldi r24,lo8(-1)
 528 0316 9FEF      		ldi r25,lo8(-1)
 529 0318 AFEF      		ldi r26,lo8(-1)
 530 031a B0E0      		ldi r27,0
 531               	.LVL33:
 532 031c 00C0      		rjmp .L54
 533               	.LVL34:
 534               	.L16:
 385:../LUFA/Drivers/USB/Class/Device/RNDIS.c **** 			
 535               		.loc 1 385 0
 536 031e 8CED      		ldi r24,lo8(-36)
 537 0320 95E0      		ldi r25,lo8(5)
 538 0322 A0E0      		ldi r26,0
 539 0324 B0E0      		ldi r27,0
 540               	.LVL35:
 541 0326 00C0      		rjmp .L54
 542               	.LVL36:
 543               	.L31:
 418:../LUFA/Drivers/USB/Class/Device/RNDIS.c **** 		
 544               		.loc 1 418 0
 545 0328 81E0      		ldi r24,lo8(1)
 546 032a 90E0      		ldi r25,0
 547 032c A0E0      		ldi r26,0
 548 032e B0E0      		ldi r27,0
 549               	.LVL37:
 550 0330 00C0      		rjmp .L54
 551               	.LVL38:
 552               	.L14:
 424:../LUFA/Drivers/USB/Class/Device/RNDIS.c **** 		
 553               		.loc 1 424 0
 554 0332 FE01      		movw r30,r28
 555 0334 E956      		subi r30,105
 556 0336 FF4F      		sbci r31,-1
 557 0338 8081      		ld r24,Z
 558 033a 9181      		ldd r25,Z+1
 559 033c A281      		ldd r26,Z+2
 560 033e B381      		ldd r27,Z+3
 561               	.LVL39:
 562 0340 00C0      		rjmp .L54
 563               	.LVL40:
 564               	.L27:
 438:../LUFA/Drivers/USB/Class/Device/RNDIS.c **** 		
 565               		.loc 1 438 0
 566 0342 1DA6      		std Y+45,__zero_reg__
 567 0344 1EA6      		std Y+46,__zero_reg__
 568 0346 1FA6      		std Y+47,__zero_reg__
 569 0348 18AA      		std Y+48,__zero_reg__
 570 034a 00C0      		rjmp .L53
 571               	.LVL41:
 572               	.L54:
 573               		.loc 1 445 0
 574 034c 8DA7      		std Y+45,r24
 575 034e 9EA7      		std Y+46,r25
 576 0350 AFA7      		std Y+47,r26
 577 0352 B8AB      		std Y+48,r27
 578               	.LVL42:
 579               	.L53:
 442:../LUFA/Drivers/USB/Class/Device/RNDIS.c **** 			
 580               		.loc 1 442 0
 581 0354 04E0      		ldi r16,lo8(4)
 582 0356 10E0      		ldi r17,0
 583 0358 00C0      		rjmp .L34
 584               	.LVL43:
 585               	.L11:
 586               	.LBE63:
 587               	.LBE62:
 290:../LUFA/Drivers/USB/Class/Device/RNDIS.c **** 			
 588               		.loc 1 290 0
 589 035a 81E0      		ldi r24,lo8(1)
 590 035c FE01      		movw r30,r28
 591 035e EB56      		subi r30,107
 592 0360 FF4F      		sbci r31,-1
 593 0362 8083      		st Z,r24
 594               	.LVL44:
 294:../LUFA/Drivers/USB/Class/Device/RNDIS.c **** 
 595               		.loc 1 294 0
 596 0364 89A1      		ldd r24,Y+33
 597 0366 9AA1      		ldd r25,Y+34
 598 0368 ABA1      		ldd r26,Y+35
 599 036a BCA1      		ldd r27,Y+36
 600               	.LVL45:
 296:../LUFA/Drivers/USB/Class/Device/RNDIS.c **** 			SET_Response->MessageLength = sizeof(RNDIS_Set_Complete_t);
 601               		.loc 1 296 0
 602 036c 45E0      		ldi r20,lo8(5)
 603 036e 50E0      		ldi r21,0
 604 0370 60E0      		ldi r22,0
 605 0372 70E8      		ldi r23,lo8(-128)
 606 0374 4D8B      		std Y+21,r20
 607 0376 5E8B      		std Y+22,r21
 608 0378 6F8B      		std Y+23,r22
 609 037a 788F      		std Y+24,r23
 297:../LUFA/Drivers/USB/Class/Device/RNDIS.c **** 			SET_Response->RequestId     = SET_Message->RequestId;
 610               		.loc 1 297 0
 611 037c 40E1      		ldi r20,lo8(16)
 612 037e 50E0      		ldi r21,0
 613 0380 60E0      		ldi r22,0
 614 0382 70E0      		ldi r23,0
 615 0384 498F      		std Y+25,r20
 616 0386 5A8F      		std Y+26,r21
 617 0388 6B8F      		std Y+27,r22
 618 038a 7C8F      		std Y+28,r23
 619               	.LVL46:
 620               	.LBB64:
 621               	.LBB65:
 446:../LUFA/Drivers/USB/Class/Device/RNDIS.c **** 		
 447:../LUFA/Drivers/USB/Class/Device/RNDIS.c **** 			return true;
 448:../LUFA/Drivers/USB/Class/Device/RNDIS.c **** 		default:
 449:../LUFA/Drivers/USB/Class/Device/RNDIS.c **** 			return false;
 450:../LUFA/Drivers/USB/Class/Device/RNDIS.c **** 	}
 451:../LUFA/Drivers/USB/Class/Device/RNDIS.c **** }
 452:../LUFA/Drivers/USB/Class/Device/RNDIS.c **** 
 453:../LUFA/Drivers/USB/Class/Device/RNDIS.c **** static bool RNDIS_Device_ProcessNDISSet(USB_ClassInfo_RNDIS_Device_t* const RNDISInterfaceInfo,
 454:../LUFA/Drivers/USB/Class/Device/RNDIS.c ****                                         const uint32_t OId,
 455:../LUFA/Drivers/USB/Class/Device/RNDIS.c ****                                         const void* SetData,
 456:../LUFA/Drivers/USB/Class/Device/RNDIS.c ****                                         const uint16_t SetSize)
 457:../LUFA/Drivers/USB/Class/Device/RNDIS.c **** {
 458:../LUFA/Drivers/USB/Class/Device/RNDIS.c **** 	(void)SetSize;
 459:../LUFA/Drivers/USB/Class/Device/RNDIS.c **** 
 460:../LUFA/Drivers/USB/Class/Device/RNDIS.c **** 	switch (OId)
 622               		.loc 1 460 0
 623 038c 8E30      		cpi r24,14
 624 038e 21E0      		ldi r18,1
 625 0390 9207      		cpc r25,r18
 626 0392 A207      		cpc r26,r18
 627 0394 B105      		cpc r27,__zero_reg__
 628 0396 01F0      		breq .L36
 629 0398 8330      		cpi r24,3
 630 039a 9140      		sbci r25,1
 631 039c A140      		sbci r26,1
 632 039e B140      		sbci r27,1
 633 03a0 01F0      		breq .L37
 634               	.LBE65:
 635               	.LBE64:
 305:../LUFA/Drivers/USB/Class/Device/RNDIS.c **** 			break;
 636               		.loc 1 305 0
 637 03a2 8BEB      		ldi r24,lo8(-69)
 638 03a4 90E0      		ldi r25,0
 639 03a6 A0E0      		ldi r26,0
 640 03a8 B0EC      		ldi r27,lo8(-64)
 641               	.LVL47:
 642 03aa 00C0      		rjmp .L35
 643               	.LVL48:
 644               	.L36:
 300:../LUFA/Drivers/USB/Class/Device/RNDIS.c **** 			                                                              SET_Message->InformationBufferOffs
 645               		.loc 1 300 0
 646 03ac 89A5      		ldd r24,Y+41
 647 03ae 9AA5      		ldd r25,Y+42
 648 03b0 ABA5      		ldd r26,Y+43
 649 03b2 BCA5      		ldd r27,Y+44
 650               	.LVL49:
 651 03b4 0896      		adiw r24,8
 652 03b6 A11D      		adc r26,__zero_reg__
 653 03b8 B11D      		adc r27,__zero_reg__
 654               	.LBB67:
 655               	.LBB66:
 461:../LUFA/Drivers/USB/Class/Device/RNDIS.c **** 	{
 462:../LUFA/Drivers/USB/Class/Device/RNDIS.c **** 		case OID_GEN_CURRENT_PACKET_FILTER:
 463:../LUFA/Drivers/USB/Class/Device/RNDIS.c **** 			RNDISInterfaceInfo->State.CurrPacketFilter = *((uint32_t*)SetData);
 656               		.loc 1 463 0
 657 03ba FE01      		movw r30,r28
 658 03bc E80F      		add r30,r24
 659 03be F91F      		adc r31,r25
 660 03c0 8589      		ldd r24,Z+21
 661 03c2 9689      		ldd r25,Z+22
 662 03c4 A789      		ldd r26,Z+23
 663 03c6 B08D      		ldd r27,Z+24
 664 03c8 FE01      		movw r30,r28
 665 03ca E956      		subi r30,105
 666 03cc FF4F      		sbci r31,-1
 667 03ce 8083      		st Z,r24
 668 03d0 9183      		std Z+1,r25
 669 03d2 A283      		std Z+2,r26
 670 03d4 B383      		std Z+3,r27
 464:../LUFA/Drivers/USB/Class/Device/RNDIS.c **** 			RNDISInterfaceInfo->State.CurrRNDISState = ((RNDISInterfaceInfo->State.CurrPacketFilter) ?
 671               		.loc 1 464 0
 672 03d6 82E0      		ldi r24,lo8(2)
 673 03d8 3197      		sbiw r30,1
 674 03da 8083      		st Z,r24
 675               	.L37:
 676               	.LVL50:
 677               	.LBE66:
 678               	.LBE67:
 305:../LUFA/Drivers/USB/Class/Device/RNDIS.c **** 			break;
 679               		.loc 1 305 0
 680 03dc 80E0      		ldi r24,0
 681 03de 90E0      		ldi r25,0
 682 03e0 DC01      		movw r26,r24
 683               	.L35:
 303:../LUFA/Drivers/USB/Class/Device/RNDIS.c **** 			                                                   SET_Message->InformationBufferLength) ?
 684               		.loc 1 303 0
 685 03e2 89A3      		std Y+33,r24
 686 03e4 9AA3      		std Y+34,r25
 687 03e6 ABA3      		std Y+35,r26
 688 03e8 BCA3      		std Y+36,r27
 689               	.LVL51:
 690 03ea 00C0      		rjmp .L5
 691               	.LVL52:
 692               	.L10:
 308:../LUFA/Drivers/USB/Class/Device/RNDIS.c **** 			
 693               		.loc 1 308 0
 694 03ec FE01      		movw r30,r28
 695 03ee EB56      		subi r30,107
 696 03f0 FF4F      		sbci r31,-1
 697 03f2 81E0      		ldi r24,lo8(1)
 698 03f4 8083      		st Z,r24
 699               	.LVL53:
 312:../LUFA/Drivers/USB/Class/Device/RNDIS.c **** 			RESET_Response->MessageLength   = sizeof(RNDIS_Reset_Complete_t);
 700               		.loc 1 312 0
 701 03f6 86E0      		ldi r24,lo8(6)
 702 03f8 90E0      		ldi r25,0
 703 03fa A0E0      		ldi r26,0
 704 03fc B0E8      		ldi r27,lo8(-128)
 705 03fe 8D8B      		std Y+21,r24
 706 0400 9E8B      		std Y+22,r25
 707 0402 AF8B      		std Y+23,r26
 708 0404 B88F      		std Y+24,r27
 313:../LUFA/Drivers/USB/Class/Device/RNDIS.c **** 			RESET_Response->Status          = REMOTE_NDIS_STATUS_SUCCESS;
 709               		.loc 1 313 0
 710 0406 80E1      		ldi r24,lo8(16)
 711 0408 90E0      		ldi r25,0
 712 040a A0E0      		ldi r26,0
 713 040c B0E0      		ldi r27,0
 714 040e 898F      		std Y+25,r24
 715 0410 9A8F      		std Y+26,r25
 716 0412 AB8F      		std Y+27,r26
 717 0414 BC8F      		std Y+28,r27
 314:../LUFA/Drivers/USB/Class/Device/RNDIS.c **** 			RESET_Response->AddressingReset = 0;
 718               		.loc 1 314 0
 719 0416 1D8E      		std Y+29,__zero_reg__
 720 0418 1E8E      		std Y+30,__zero_reg__
 721 041a 1F8E      		std Y+31,__zero_reg__
 722 041c 18A2      		std Y+32,__zero_reg__
 723               	.LVL54:
 724               	.L52:
 329:../LUFA/Drivers/USB/Class/Device/RNDIS.c **** 			
 725               		.loc 1 329 0
 726 041e 19A2      		std Y+33,__zero_reg__
 727 0420 1AA2      		std Y+34,__zero_reg__
 728 0422 1BA2      		std Y+35,__zero_reg__
 729 0424 1CA2      		std Y+36,__zero_reg__
 730               	.LVL55:
 731               	.L5:
 732               	.LBE68:
 733               	.LBE60:
 734               	.LBE59:
 735               	.LBB71:
 736               	.LBB72:
 443:../LUFA/Drivers/USB/Class/Device/../../HighLevel/../LowLevel/Endpoint.h **** 			}
 444:../LUFA/Drivers/USB/Class/Device/../../HighLevel/../LowLevel/Endpoint.h **** 			
 445:../LUFA/Drivers/USB/Class/Device/../../HighLevel/../LowLevel/Endpoint.h **** 			/** Sends an IN packet to the host on the currently selected endpoint, freeing up the endpoint f
 446:../LUFA/Drivers/USB/Class/Device/../../HighLevel/../LowLevel/Endpoint.h **** 			 *  next packet and switching to the alternative endpoint bank if double banked.
 447:../LUFA/Drivers/USB/Class/Device/../../HighLevel/../LowLevel/Endpoint.h **** 			 *
 448:../LUFA/Drivers/USB/Class/Device/../../HighLevel/../LowLevel/Endpoint.h **** 			 *  \ingroup Group_EndpointPacketManagement
 449:../LUFA/Drivers/USB/Class/Device/../../HighLevel/../LowLevel/Endpoint.h **** 			 */
 450:../LUFA/Drivers/USB/Class/Device/../../HighLevel/../LowLevel/Endpoint.h **** 			static inline void Endpoint_ClearIN(void) ATTR_ALWAYS_INLINE;
 451:../LUFA/Drivers/USB/Class/Device/../../HighLevel/../LowLevel/Endpoint.h **** 			static inline void Endpoint_ClearIN(void)
 452:../LUFA/Drivers/USB/Class/Device/../../HighLevel/../LowLevel/Endpoint.h **** 			{
 453:../LUFA/Drivers/USB/Class/Device/../../HighLevel/../LowLevel/Endpoint.h **** 				#if !defined(CONTROL_ONLY_DEVICE)
 454:../LUFA/Drivers/USB/Class/Device/../../HighLevel/../LowLevel/Endpoint.h **** 					UEINTX &= ~((1 << TXINI) | (1 << FIFOCON));
 737               		.loc 2 454 0
 738 0426 8091 E800 		lds r24,232
 739 042a 8E77      		andi r24,lo8(126)
 740 042c 8093 E800 		sts 232,r24
 741 0430 00C0      		rjmp .L1
 742               	.LVL56:
 743               	.L4:
 744               	.LBE72:
 745               	.LBE71:
  92:../LUFA/Drivers/USB/Class/Device/RNDIS.c **** 			{
 746               		.loc 1 92 0
 747 0432 8091 0000 		lds r24,USB_ControlRequest
 748 0436 813A      		cpi r24,lo8(-95)
 749 0438 01F0      		breq .+2
 750 043a 00C0      		rjmp .L1
 751               	.LBB73:
 752               	.LBB74:
 753               	.LBB75:
 442:../LUFA/Drivers/USB/Class/Device/../../HighLevel/../LowLevel/Endpoint.h **** 			}
 754               		.loc 2 442 0
 755 043c 8091 E800 		lds r24,232
 756 0440 877F      		andi r24,lo8(-9)
 757 0442 8093 E800 		sts 232,r24
 758               	.LVL57:
 759               	.LBE75:
 760               	.LBE74:
  98:../LUFA/Drivers/USB/Class/Device/RNDIS.c **** 				{
 761               		.loc 1 98 0
 762 0446 818D      		ldd r24,Z+25
 763 0448 928D      		ldd r25,Z+26
 764 044a A38D      		ldd r26,Z+27
 765 044c B48D      		ldd r27,Z+28
 766 044e 892B      		or r24,r25
 767 0450 8A2B      		or r24,r26
 768 0452 8B2B      		or r24,r27
 769 0454 01F4      		brne .L38
 100:../LUFA/Drivers/USB/Class/Device/RNDIS.c **** 					MessageHeader->MessageLength = 1;
 770               		.loc 1 100 0
 771 0456 158A      		std Z+21,__zero_reg__
 101:../LUFA/Drivers/USB/Class/Device/RNDIS.c **** 				}
 772               		.loc 1 101 0
 773 0458 81E0      		ldi r24,lo8(1)
 774 045a 90E0      		ldi r25,0
 775 045c A0E0      		ldi r26,0
 776 045e B0E0      		ldi r27,0
 777 0460 818F      		std Z+25,r24
 778 0462 928F      		std Z+26,r25
 779 0464 A38F      		std Z+27,r26
 780 0466 B48F      		std Z+28,r27
 781               	.L38:
 104:../LUFA/Drivers/USB/Class/Device/RNDIS.c **** 				Endpoint_ClearOUT();
 782               		.loc 1 104 0
 783 0468 698D      		ldd r22,Y+25
 784 046a 7A8D      		ldd r23,Y+26
 785 046c CE01      		movw r24,r28
 786 046e 4596      		adiw r24,21
 787 0470 0E94 0000 		call Endpoint_Write_Control_Stream_LE
 788               	.LVL58:
 789               	.LBB76:
 790               	.LBB77:
 455:../LUFA/Drivers/USB/Class/Device/../../HighLevel/../LowLevel/Endpoint.h **** 				#else
 456:../LUFA/Drivers/USB/Class/Device/../../HighLevel/../LowLevel/Endpoint.h **** 					UEINTX &= ~(1 << TXINI);
 457:../LUFA/Drivers/USB/Class/Device/../../HighLevel/../LowLevel/Endpoint.h **** 				#endif
 458:../LUFA/Drivers/USB/Class/Device/../../HighLevel/../LowLevel/Endpoint.h **** 			}
 459:../LUFA/Drivers/USB/Class/Device/../../HighLevel/../LowLevel/Endpoint.h **** 			
 460:../LUFA/Drivers/USB/Class/Device/../../HighLevel/../LowLevel/Endpoint.h **** 			/** Acknowledges an OUT packet to the host on the currently selected endpoint, freeing up the en
 461:../LUFA/Drivers/USB/Class/Device/../../HighLevel/../LowLevel/Endpoint.h **** 			 *  for the next packet and switching to the alternative endpoint bank if double banked.
 462:../LUFA/Drivers/USB/Class/Device/../../HighLevel/../LowLevel/Endpoint.h **** 			 *
 463:../LUFA/Drivers/USB/Class/Device/../../HighLevel/../LowLevel/Endpoint.h **** 			 *  \ingroup Group_EndpointPacketManagement
 464:../LUFA/Drivers/USB/Class/Device/../../HighLevel/../LowLevel/Endpoint.h **** 			 */
 465:../LUFA/Drivers/USB/Class/Device/../../HighLevel/../LowLevel/Endpoint.h **** 			static inline void Endpoint_ClearOUT(void) ATTR_ALWAYS_INLINE;
 466:../LUFA/Drivers/USB/Class/Device/../../HighLevel/../LowLevel/Endpoint.h **** 			static inline void Endpoint_ClearOUT(void)
 467:../LUFA/Drivers/USB/Class/Device/../../HighLevel/../LowLevel/Endpoint.h **** 			{
 468:../LUFA/Drivers/USB/Class/Device/../../HighLevel/../LowLevel/Endpoint.h **** 				#if !defined(CONTROL_ONLY_DEVICE)
 469:../LUFA/Drivers/USB/Class/Device/../../HighLevel/../LowLevel/Endpoint.h **** 					UEINTX &= ~((1 << RXOUTI) | (1 << FIFOCON));
 791               		.loc 2 469 0
 792 0474 8091 E800 		lds r24,232
 793 0478 8B77      		andi r24,lo8(123)
 794 047a 8093 E800 		sts 232,r24
 795               	.LBE77:
 796               	.LBE76:
 107:../LUFA/Drivers/USB/Class/Device/RNDIS.c **** 			}
 797               		.loc 1 107 0
 798 047e 198E      		std Y+25,__zero_reg__
 799 0480 1A8E      		std Y+26,__zero_reg__
 800 0482 1B8E      		std Y+27,__zero_reg__
 801 0484 1C8E      		std Y+28,__zero_reg__
 802 0486 00C0      		rjmp .L1
 803               	.LVL59:
 804               	.L34:
 805               	.LBE73:
 806               	.LBB78:
 807               	.LBB70:
 808               	.LBB69:
 274:../LUFA/Drivers/USB/Class/Device/RNDIS.c **** 				QUERY_Response->MessageLength          += ResponseSize;
 809               		.loc 1 274 0
 810 0488 19A2      		std Y+33,__zero_reg__
 811 048a 1AA2      		std Y+34,__zero_reg__
 812 048c 1BA2      		std Y+35,__zero_reg__
 813 048e 1CA2      		std Y+36,__zero_reg__
 275:../LUFA/Drivers/USB/Class/Device/RNDIS.c **** 							
 814               		.loc 1 275 0
 815 0490 A801      		movw r20,r16
 816 0492 60E0      		ldi r22,0
 817 0494 70E0      		ldi r23,0
 818 0496 898D      		ldd r24,Y+25
 819 0498 9A8D      		ldd r25,Y+26
 820 049a AB8D      		ldd r26,Y+27
 821 049c BC8D      		ldd r27,Y+28
 822 049e 840F      		add r24,r20
 823 04a0 951F      		adc r25,r21
 824 04a2 A61F      		adc r26,r22
 825 04a4 B71F      		adc r27,r23
 826 04a6 898F      		std Y+25,r24
 827 04a8 9A8F      		std Y+26,r25
 828 04aa AB8F      		std Y+27,r26
 829 04ac BC8F      		std Y+28,r27
 277:../LUFA/Drivers/USB/Class/Device/RNDIS.c **** 				QUERY_Response->InformationBufferOffset = (sizeof(RNDIS_Query_Complete_t) - sizeof(RNDIS_Messag
 830               		.loc 1 277 0
 831 04ae 4DA3      		std Y+37,r20
 832 04b0 5EA3      		std Y+38,r21
 833 04b2 6FA3      		std Y+39,r22
 834 04b4 78A7      		std Y+40,r23
 278:../LUFA/Drivers/USB/Class/Device/RNDIS.c **** 			}
 835               		.loc 1 278 0
 836 04b6 80E1      		ldi r24,lo8(16)
 837 04b8 90E0      		ldi r25,0
 838 04ba A0E0      		ldi r26,0
 839 04bc B0E0      		ldi r27,0
 840 04be 89A7      		std Y+41,r24
 841 04c0 9AA7      		std Y+42,r25
 842 04c2 ABA7      		std Y+43,r26
 843 04c4 BCA7      		std Y+44,r27
 844 04c6 00C0      		rjmp .L5
 845               	.LVL60:
 846               	.L13:
 282:../LUFA/Drivers/USB/Class/Device/RNDIS.c **** 
 847               		.loc 1 282 0
 848 04c8 8BEB      		ldi r24,lo8(-69)
 849 04ca 90E0      		ldi r25,0
 850 04cc A0E0      		ldi r26,0
 851 04ce B0EC      		ldi r27,lo8(-64)
 852 04d0 89A3      		std Y+33,r24
 853 04d2 9AA3      		std Y+34,r25
 854 04d4 ABA3      		std Y+35,r26
 855 04d6 BCA3      		std Y+36,r27
 856               	.LVL61:
 284:../LUFA/Drivers/USB/Class/Device/RNDIS.c **** 				QUERY_Response->InformationBufferOffset = 0;
 857               		.loc 1 284 0
 858 04d8 1DA2      		std Y+37,__zero_reg__
 859 04da 1EA2      		std Y+38,__zero_reg__
 860 04dc 1FA2      		std Y+39,__zero_reg__
 861 04de 18A6      		std Y+40,__zero_reg__
 285:../LUFA/Drivers/USB/Class/Device/RNDIS.c **** 			}
 862               		.loc 1 285 0
 863 04e0 19A6      		std Y+41,__zero_reg__
 864 04e2 1AA6      		std Y+42,__zero_reg__
 865 04e4 1BA6      		std Y+43,__zero_reg__
 866 04e6 1CA6      		std Y+44,__zero_reg__
 867               	.LVL62:
 868 04e8 00C0      		rjmp .L5
 869               	.LVL63:
 870               	.L1:
 871               	/* epilogue start */
 872               	.LBE69:
 873               	.LBE70:
 874               	.LBE78:
 112:../LUFA/Drivers/USB/Class/Device/RNDIS.c **** 
 875               		.loc 1 112 0
 876 04ea DF91      		pop r29
 877 04ec CF91      		pop r28
 878 04ee 1F91      		pop r17
 879 04f0 0F91      		pop r16
 880 04f2 0895      		ret
 881               		.cfi_endproc
 882               	.LFE65:
 884               		.section	.text.RNDIS_Device_ConfigureEndpoints,"ax",@progbits
 885               	.global	RNDIS_Device_ConfigureEndpoints
 887               	RNDIS_Device_ConfigureEndpoints:
 888               	.LFB66:
 115:../LUFA/Drivers/USB/Class/Device/RNDIS.c **** 	memset(&RNDISInterfaceInfo->State, 0x00, sizeof(RNDISInterfaceInfo->State));
 889               		.loc 1 115 0
 890               		.cfi_startproc
 891               	.LVL64:
 892 0000 0F93      		push r16
 893               	.LCFI4:
 894               		.cfi_def_cfa_offset 3
 895               		.cfi_offset 16, -2
 896 0002 1F93      		push r17
 897               	.LCFI5:
 898               		.cfi_def_cfa_offset 4
 899               		.cfi_offset 17, -3
 900 0004 CF93      		push r28
 901               	.LCFI6:
 902               		.cfi_def_cfa_offset 5
 903               		.cfi_offset 28, -4
 904 0006 DF93      		push r29
 905               	.LCFI7:
 906               		.cfi_def_cfa_offset 6
 907               		.cfi_offset 29, -5
 908               	/* prologue: function */
 909               	/* frame size = 0 */
 910               	/* stack size = 4 */
 911               	.L__stack_usage = 4
 912 0008 EC01      		movw r28,r24
 116:../LUFA/Drivers/USB/Class/Device/RNDIS.c **** 
 913               		.loc 1 116 0
 914 000a FC01      		movw r30,r24
 915 000c 7596      		adiw r30,21
 916 000e 84E4      		ldi r24,lo8(68)
 917 0010 9CE0      		ldi r25,lo8(12)
 918               	.LVL65:
 919 0012 DF01      		movw r26,r30
 920 0014 9C01      		movw r18,r24
 921               		0:
 922 0016 1D92      		st X+,__zero_reg__
 923 0018 2150      		subi r18,1
 924 001a 3040      		sbci r19,0
 925 001c 01F4      		brne 0b
 118:../LUFA/Drivers/USB/Class/Device/RNDIS.c **** 							         ENDPOINT_DIR_IN, RNDISInterfaceInfo->Config.DataINEndpointSize,
 926               		.loc 1 118 0
 927 001e 8A81      		ldd r24,Y+2
 928 0020 9B81      		ldd r25,Y+3
 929 0022 2C81      		ldd r18,Y+4
 930 0024 2111      		cpse r18,__zero_reg__
 931 0026 00C0      		rjmp .L63
 932 0028 10E0      		ldi r17,0
 933 002a 00C0      		rjmp .L57
 934               	.L63:
 935 002c 14E0      		ldi r17,lo8(4)
 936               	.L57:
 118:../LUFA/Drivers/USB/Class/Device/RNDIS.c **** 							         ENDPOINT_DIR_IN, RNDISInterfaceInfo->Config.DataINEndpointSize,
 937               		.loc 1 118 0 is_stmt 0 discriminator 11
 938 002e 0981      		ldd r16,Y+1
 939               	.LVL66:
 940               	.LBB97:
 941               	.LBB98:
 470:../LUFA/Drivers/USB/Class/Device/../../HighLevel/../LowLevel/Endpoint.h **** 				#else
 471:../LUFA/Drivers/USB/Class/Device/../../HighLevel/../LowLevel/Endpoint.h **** 					UEINTX &= ~(1 << RXOUTI);	
 472:../LUFA/Drivers/USB/Class/Device/../../HighLevel/../LowLevel/Endpoint.h **** 				#endif
 473:../LUFA/Drivers/USB/Class/Device/../../HighLevel/../LowLevel/Endpoint.h **** 			}
 474:../LUFA/Drivers/USB/Class/Device/../../HighLevel/../LowLevel/Endpoint.h **** 			
 475:../LUFA/Drivers/USB/Class/Device/../../HighLevel/../LowLevel/Endpoint.h **** 			/** Stalls the current endpoint, indicating to the host that a logical problem occurred with the
 476:../LUFA/Drivers/USB/Class/Device/../../HighLevel/../LowLevel/Endpoint.h **** 			 *  indicated endpoint and that the current transfer sequence should be aborted. This provides a
 477:../LUFA/Drivers/USB/Class/Device/../../HighLevel/../LowLevel/Endpoint.h **** 			 *  way for devices to indicate invalid commands to the host so that the current transfer can be
 478:../LUFA/Drivers/USB/Class/Device/../../HighLevel/../LowLevel/Endpoint.h **** 			 *  aborted and the host can begin its own recovery sequence.
 479:../LUFA/Drivers/USB/Class/Device/../../HighLevel/../LowLevel/Endpoint.h **** 			 *
 480:../LUFA/Drivers/USB/Class/Device/../../HighLevel/../LowLevel/Endpoint.h **** 			 *  The currently selected endpoint remains stalled until either the \ref Endpoint_ClearStall() 
 481:../LUFA/Drivers/USB/Class/Device/../../HighLevel/../LowLevel/Endpoint.h **** 			 *  is called, or the host issues a CLEAR FEATURE request to the device for the currently select
 482:../LUFA/Drivers/USB/Class/Device/../../HighLevel/../LowLevel/Endpoint.h **** 			 *  endpoint.
 483:../LUFA/Drivers/USB/Class/Device/../../HighLevel/../LowLevel/Endpoint.h **** 			 *
 484:../LUFA/Drivers/USB/Class/Device/../../HighLevel/../LowLevel/Endpoint.h **** 			 *  \ingroup Group_EndpointPacketManagement
 485:../LUFA/Drivers/USB/Class/Device/../../HighLevel/../LowLevel/Endpoint.h **** 			 */
 486:../LUFA/Drivers/USB/Class/Device/../../HighLevel/../LowLevel/Endpoint.h **** 			static inline void Endpoint_StallTransaction(void) ATTR_ALWAYS_INLINE;
 487:../LUFA/Drivers/USB/Class/Device/../../HighLevel/../LowLevel/Endpoint.h **** 			static inline void Endpoint_StallTransaction(void)
 488:../LUFA/Drivers/USB/Class/Device/../../HighLevel/../LowLevel/Endpoint.h **** 			{
 489:../LUFA/Drivers/USB/Class/Device/../../HighLevel/../LowLevel/Endpoint.h **** 				UECONX |= (1 << STALLRQ);
 490:../LUFA/Drivers/USB/Class/Device/../../HighLevel/../LowLevel/Endpoint.h **** 			}
 491:../LUFA/Drivers/USB/Class/Device/../../HighLevel/../LowLevel/Endpoint.h **** 			
 492:../LUFA/Drivers/USB/Class/Device/../../HighLevel/../LowLevel/Endpoint.h **** 			/** Clears the STALL condition on the currently selected endpoint.
 493:../LUFA/Drivers/USB/Class/Device/../../HighLevel/../LowLevel/Endpoint.h **** 			 *
 494:../LUFA/Drivers/USB/Class/Device/../../HighLevel/../LowLevel/Endpoint.h **** 			 *  \ingroup Group_EndpointPacketManagement
 495:../LUFA/Drivers/USB/Class/Device/../../HighLevel/../LowLevel/Endpoint.h **** 			 */
 496:../LUFA/Drivers/USB/Class/Device/../../HighLevel/../LowLevel/Endpoint.h **** 			static inline void Endpoint_ClearStall(void) ATTR_ALWAYS_INLINE;
 497:../LUFA/Drivers/USB/Class/Device/../../HighLevel/../LowLevel/Endpoint.h **** 			static inline void Endpoint_ClearStall(void)
 498:../LUFA/Drivers/USB/Class/Device/../../HighLevel/../LowLevel/Endpoint.h **** 			{
 499:../LUFA/Drivers/USB/Class/Device/../../HighLevel/../LowLevel/Endpoint.h **** 				UECONX |= (1 << STALLRQC);
 500:../LUFA/Drivers/USB/Class/Device/../../HighLevel/../LowLevel/Endpoint.h **** 			}
 501:../LUFA/Drivers/USB/Class/Device/../../HighLevel/../LowLevel/Endpoint.h **** 			
 502:../LUFA/Drivers/USB/Class/Device/../../HighLevel/../LowLevel/Endpoint.h **** 			/** Determines if the currently selected endpoint is stalled, false otherwise.
 503:../LUFA/Drivers/USB/Class/Device/../../HighLevel/../LowLevel/Endpoint.h **** 			 *
 504:../LUFA/Drivers/USB/Class/Device/../../HighLevel/../LowLevel/Endpoint.h **** 			 *  \ingroup Group_EndpointPacketManagement
 505:../LUFA/Drivers/USB/Class/Device/../../HighLevel/../LowLevel/Endpoint.h **** 			 *
 506:../LUFA/Drivers/USB/Class/Device/../../HighLevel/../LowLevel/Endpoint.h **** 			 *  \return Boolean true if the currently selected endpoint is stalled, false otherwise.
 507:../LUFA/Drivers/USB/Class/Device/../../HighLevel/../LowLevel/Endpoint.h **** 			 */
 508:../LUFA/Drivers/USB/Class/Device/../../HighLevel/../LowLevel/Endpoint.h **** 			static inline bool Endpoint_IsStalled(void) ATTR_WARN_UNUSED_RESULT ATTR_ALWAYS_INLINE;
 509:../LUFA/Drivers/USB/Class/Device/../../HighLevel/../LowLevel/Endpoint.h **** 			static inline bool Endpoint_IsStalled(void)
 510:../LUFA/Drivers/USB/Class/Device/../../HighLevel/../LowLevel/Endpoint.h **** 			{
 511:../LUFA/Drivers/USB/Class/Device/../../HighLevel/../LowLevel/Endpoint.h **** 				return ((UECONX & (1 << STALLRQ)) ? true : false);
 512:../LUFA/Drivers/USB/Class/Device/../../HighLevel/../LowLevel/Endpoint.h **** 			}
 513:../LUFA/Drivers/USB/Class/Device/../../HighLevel/../LowLevel/Endpoint.h **** 			
 514:../LUFA/Drivers/USB/Class/Device/../../HighLevel/../LowLevel/Endpoint.h **** 			/** Resets the data toggle of the currently selected endpoint. */
 515:../LUFA/Drivers/USB/Class/Device/../../HighLevel/../LowLevel/Endpoint.h **** 			static inline void Endpoint_ResetDataToggle(void) ATTR_ALWAYS_INLINE;
 516:../LUFA/Drivers/USB/Class/Device/../../HighLevel/../LowLevel/Endpoint.h **** 			static inline void Endpoint_ResetDataToggle(void)
 517:../LUFA/Drivers/USB/Class/Device/../../HighLevel/../LowLevel/Endpoint.h **** 			{
 518:../LUFA/Drivers/USB/Class/Device/../../HighLevel/../LowLevel/Endpoint.h **** 				UECONX |= (1 << RSTDT);
 519:../LUFA/Drivers/USB/Class/Device/../../HighLevel/../LowLevel/Endpoint.h **** 			}
 520:../LUFA/Drivers/USB/Class/Device/../../HighLevel/../LowLevel/Endpoint.h **** 			
 521:../LUFA/Drivers/USB/Class/Device/../../HighLevel/../LowLevel/Endpoint.h **** 			/** Determines the currently selected endpoint's direction.
 522:../LUFA/Drivers/USB/Class/Device/../../HighLevel/../LowLevel/Endpoint.h **** 			 *
 523:../LUFA/Drivers/USB/Class/Device/../../HighLevel/../LowLevel/Endpoint.h **** 			 *  \return The currently selected endpoint's direction, as a ENDPOINT_DIR_* mask.
 524:../LUFA/Drivers/USB/Class/Device/../../HighLevel/../LowLevel/Endpoint.h **** 			 */
 525:../LUFA/Drivers/USB/Class/Device/../../HighLevel/../LowLevel/Endpoint.h **** 			static inline uint8_t Endpoint_GetEndpointDirection(void) ATTR_WARN_UNUSED_RESULT ATTR_ALWAYS_IN
 526:../LUFA/Drivers/USB/Class/Device/../../HighLevel/../LowLevel/Endpoint.h **** 			static inline uint8_t Endpoint_GetEndpointDirection(void)
 527:../LUFA/Drivers/USB/Class/Device/../../HighLevel/../LowLevel/Endpoint.h **** 			{
 528:../LUFA/Drivers/USB/Class/Device/../../HighLevel/../LowLevel/Endpoint.h **** 				return (UECFG0X & ENDPOINT_DIR_IN);
 529:../LUFA/Drivers/USB/Class/Device/../../HighLevel/../LowLevel/Endpoint.h **** 			}
 530:../LUFA/Drivers/USB/Class/Device/../../HighLevel/../LowLevel/Endpoint.h **** 
 531:../LUFA/Drivers/USB/Class/Device/../../HighLevel/../LowLevel/Endpoint.h **** 			/** Sets the direction of the currently selected endpoint.
 532:../LUFA/Drivers/USB/Class/Device/../../HighLevel/../LowLevel/Endpoint.h **** 			 *
 533:../LUFA/Drivers/USB/Class/Device/../../HighLevel/../LowLevel/Endpoint.h **** 			 *  \param[in] DirectionMask  New endpoint direction, as a ENDPOINT_DIR_* mask.
 534:../LUFA/Drivers/USB/Class/Device/../../HighLevel/../LowLevel/Endpoint.h **** 			 */
 535:../LUFA/Drivers/USB/Class/Device/../../HighLevel/../LowLevel/Endpoint.h **** 			static inline void Endpoint_SetEndpointDirection(const uint8_t DirectionMask) ATTR_ALWAYS_INLINE
 536:../LUFA/Drivers/USB/Class/Device/../../HighLevel/../LowLevel/Endpoint.h **** 			static inline void Endpoint_SetEndpointDirection(const uint8_t DirectionMask)
 537:../LUFA/Drivers/USB/Class/Device/../../HighLevel/../LowLevel/Endpoint.h **** 			{
 538:../LUFA/Drivers/USB/Class/Device/../../HighLevel/../LowLevel/Endpoint.h **** 				UECFG0X = ((UECFG0X & ~ENDPOINT_DIR_IN) | DirectionMask);
 539:../LUFA/Drivers/USB/Class/Device/../../HighLevel/../LowLevel/Endpoint.h **** 			}
 540:../LUFA/Drivers/USB/Class/Device/../../HighLevel/../LowLevel/Endpoint.h **** 
 541:../LUFA/Drivers/USB/Class/Device/../../HighLevel/../LowLevel/Endpoint.h **** 			/** Reads one byte from the currently selected endpoint's bank, for OUT direction endpoints.
 542:../LUFA/Drivers/USB/Class/Device/../../HighLevel/../LowLevel/Endpoint.h **** 			 *
 543:../LUFA/Drivers/USB/Class/Device/../../HighLevel/../LowLevel/Endpoint.h **** 			 *  \ingroup Group_EndpointPrimitiveRW
 544:../LUFA/Drivers/USB/Class/Device/../../HighLevel/../LowLevel/Endpoint.h **** 			 *
 545:../LUFA/Drivers/USB/Class/Device/../../HighLevel/../LowLevel/Endpoint.h **** 			 *  \return Next byte in the currently selected endpoint's FIFO buffer.
 546:../LUFA/Drivers/USB/Class/Device/../../HighLevel/../LowLevel/Endpoint.h **** 			 */
 547:../LUFA/Drivers/USB/Class/Device/../../HighLevel/../LowLevel/Endpoint.h **** 			static inline uint8_t Endpoint_Read_Byte(void) ATTR_WARN_UNUSED_RESULT ATTR_ALWAYS_INLINE;
 548:../LUFA/Drivers/USB/Class/Device/../../HighLevel/../LowLevel/Endpoint.h **** 			static inline uint8_t Endpoint_Read_Byte(void)
 549:../LUFA/Drivers/USB/Class/Device/../../HighLevel/../LowLevel/Endpoint.h **** 			{
 550:../LUFA/Drivers/USB/Class/Device/../../HighLevel/../LowLevel/Endpoint.h **** 				return UEDATX;
 551:../LUFA/Drivers/USB/Class/Device/../../HighLevel/../LowLevel/Endpoint.h **** 			}
 552:../LUFA/Drivers/USB/Class/Device/../../HighLevel/../LowLevel/Endpoint.h **** 
 553:../LUFA/Drivers/USB/Class/Device/../../HighLevel/../LowLevel/Endpoint.h **** 			/** Writes one byte from the currently selected endpoint's bank, for IN direction endpoints.
 554:../LUFA/Drivers/USB/Class/Device/../../HighLevel/../LowLevel/Endpoint.h **** 			 *
 555:../LUFA/Drivers/USB/Class/Device/../../HighLevel/../LowLevel/Endpoint.h **** 			 *  \ingroup Group_EndpointPrimitiveRW
 556:../LUFA/Drivers/USB/Class/Device/../../HighLevel/../LowLevel/Endpoint.h **** 			 *
 557:../LUFA/Drivers/USB/Class/Device/../../HighLevel/../LowLevel/Endpoint.h **** 			 *  \param[in] Byte  Next byte to write into the the currently selected endpoint's FIFO buffer.
 558:../LUFA/Drivers/USB/Class/Device/../../HighLevel/../LowLevel/Endpoint.h **** 			 */
 559:../LUFA/Drivers/USB/Class/Device/../../HighLevel/../LowLevel/Endpoint.h **** 			static inline void Endpoint_Write_Byte(const uint8_t Byte) ATTR_ALWAYS_INLINE;
 560:../LUFA/Drivers/USB/Class/Device/../../HighLevel/../LowLevel/Endpoint.h **** 			static inline void Endpoint_Write_Byte(const uint8_t Byte)
 561:../LUFA/Drivers/USB/Class/Device/../../HighLevel/../LowLevel/Endpoint.h **** 			{
 562:../LUFA/Drivers/USB/Class/Device/../../HighLevel/../LowLevel/Endpoint.h **** 				UEDATX = Byte;
 563:../LUFA/Drivers/USB/Class/Device/../../HighLevel/../LowLevel/Endpoint.h **** 			}
 564:../LUFA/Drivers/USB/Class/Device/../../HighLevel/../LowLevel/Endpoint.h **** 
 565:../LUFA/Drivers/USB/Class/Device/../../HighLevel/../LowLevel/Endpoint.h **** 			/** Discards one byte from the currently selected endpoint's bank, for OUT direction endpoints.
 566:../LUFA/Drivers/USB/Class/Device/../../HighLevel/../LowLevel/Endpoint.h **** 			 *
 567:../LUFA/Drivers/USB/Class/Device/../../HighLevel/../LowLevel/Endpoint.h **** 			 *  \ingroup Group_EndpointPrimitiveRW
 568:../LUFA/Drivers/USB/Class/Device/../../HighLevel/../LowLevel/Endpoint.h **** 			 */
 569:../LUFA/Drivers/USB/Class/Device/../../HighLevel/../LowLevel/Endpoint.h **** 			static inline void Endpoint_Discard_Byte(void) ATTR_ALWAYS_INLINE;
 570:../LUFA/Drivers/USB/Class/Device/../../HighLevel/../LowLevel/Endpoint.h **** 			static inline void Endpoint_Discard_Byte(void)
 571:../LUFA/Drivers/USB/Class/Device/../../HighLevel/../LowLevel/Endpoint.h **** 			{
 572:../LUFA/Drivers/USB/Class/Device/../../HighLevel/../LowLevel/Endpoint.h **** 				uint8_t Dummy;
 573:../LUFA/Drivers/USB/Class/Device/../../HighLevel/../LowLevel/Endpoint.h **** 				
 574:../LUFA/Drivers/USB/Class/Device/../../HighLevel/../LowLevel/Endpoint.h **** 				Dummy = UEDATX;
 575:../LUFA/Drivers/USB/Class/Device/../../HighLevel/../LowLevel/Endpoint.h **** 			}
 576:../LUFA/Drivers/USB/Class/Device/../../HighLevel/../LowLevel/Endpoint.h **** 			
 577:../LUFA/Drivers/USB/Class/Device/../../HighLevel/../LowLevel/Endpoint.h **** 			/** Reads two bytes from the currently selected endpoint's bank in little endian format, for OUT
 578:../LUFA/Drivers/USB/Class/Device/../../HighLevel/../LowLevel/Endpoint.h **** 			 *  direction endpoints.
 579:../LUFA/Drivers/USB/Class/Device/../../HighLevel/../LowLevel/Endpoint.h **** 			 *
 580:../LUFA/Drivers/USB/Class/Device/../../HighLevel/../LowLevel/Endpoint.h **** 			 *  \ingroup Group_EndpointPrimitiveRW
 581:../LUFA/Drivers/USB/Class/Device/../../HighLevel/../LowLevel/Endpoint.h **** 			 *
 582:../LUFA/Drivers/USB/Class/Device/../../HighLevel/../LowLevel/Endpoint.h **** 			 *  \return Next word in the currently selected endpoint's FIFO buffer.
 583:../LUFA/Drivers/USB/Class/Device/../../HighLevel/../LowLevel/Endpoint.h **** 			 */
 584:../LUFA/Drivers/USB/Class/Device/../../HighLevel/../LowLevel/Endpoint.h **** 			static inline uint16_t Endpoint_Read_Word_LE(void) ATTR_WARN_UNUSED_RESULT ATTR_ALWAYS_INLINE;
 585:../LUFA/Drivers/USB/Class/Device/../../HighLevel/../LowLevel/Endpoint.h **** 			static inline uint16_t Endpoint_Read_Word_LE(void)
 586:../LUFA/Drivers/USB/Class/Device/../../HighLevel/../LowLevel/Endpoint.h **** 			{
 587:../LUFA/Drivers/USB/Class/Device/../../HighLevel/../LowLevel/Endpoint.h **** 				union
 588:../LUFA/Drivers/USB/Class/Device/../../HighLevel/../LowLevel/Endpoint.h **** 				{
 589:../LUFA/Drivers/USB/Class/Device/../../HighLevel/../LowLevel/Endpoint.h **** 					uint16_t Word;
 590:../LUFA/Drivers/USB/Class/Device/../../HighLevel/../LowLevel/Endpoint.h **** 					uint8_t  Bytes[2];
 591:../LUFA/Drivers/USB/Class/Device/../../HighLevel/../LowLevel/Endpoint.h **** 				} Data;
 592:../LUFA/Drivers/USB/Class/Device/../../HighLevel/../LowLevel/Endpoint.h **** 				
 593:../LUFA/Drivers/USB/Class/Device/../../HighLevel/../LowLevel/Endpoint.h **** 				Data.Bytes[0] = UEDATX;
 594:../LUFA/Drivers/USB/Class/Device/../../HighLevel/../LowLevel/Endpoint.h **** 				Data.Bytes[1] = UEDATX;
 595:../LUFA/Drivers/USB/Class/Device/../../HighLevel/../LowLevel/Endpoint.h **** 			
 596:../LUFA/Drivers/USB/Class/Device/../../HighLevel/../LowLevel/Endpoint.h **** 				return Data.Word;
 597:../LUFA/Drivers/USB/Class/Device/../../HighLevel/../LowLevel/Endpoint.h **** 			}
 598:../LUFA/Drivers/USB/Class/Device/../../HighLevel/../LowLevel/Endpoint.h **** 
 599:../LUFA/Drivers/USB/Class/Device/../../HighLevel/../LowLevel/Endpoint.h **** 			/** Reads two bytes from the currently selected endpoint's bank in big endian format, for OUT
 600:../LUFA/Drivers/USB/Class/Device/../../HighLevel/../LowLevel/Endpoint.h **** 			 *  direction endpoints.
 601:../LUFA/Drivers/USB/Class/Device/../../HighLevel/../LowLevel/Endpoint.h **** 			 *
 602:../LUFA/Drivers/USB/Class/Device/../../HighLevel/../LowLevel/Endpoint.h **** 			 *  \ingroup Group_EndpointPrimitiveRW
 603:../LUFA/Drivers/USB/Class/Device/../../HighLevel/../LowLevel/Endpoint.h **** 			 *
 604:../LUFA/Drivers/USB/Class/Device/../../HighLevel/../LowLevel/Endpoint.h **** 			 *  \return Next word in the currently selected endpoint's FIFO buffer.
 605:../LUFA/Drivers/USB/Class/Device/../../HighLevel/../LowLevel/Endpoint.h **** 			 */
 606:../LUFA/Drivers/USB/Class/Device/../../HighLevel/../LowLevel/Endpoint.h **** 			static inline uint16_t Endpoint_Read_Word_BE(void) ATTR_WARN_UNUSED_RESULT ATTR_ALWAYS_INLINE;
 607:../LUFA/Drivers/USB/Class/Device/../../HighLevel/../LowLevel/Endpoint.h **** 			static inline uint16_t Endpoint_Read_Word_BE(void)
 608:../LUFA/Drivers/USB/Class/Device/../../HighLevel/../LowLevel/Endpoint.h **** 			{
 609:../LUFA/Drivers/USB/Class/Device/../../HighLevel/../LowLevel/Endpoint.h **** 				union
 610:../LUFA/Drivers/USB/Class/Device/../../HighLevel/../LowLevel/Endpoint.h **** 				{
 611:../LUFA/Drivers/USB/Class/Device/../../HighLevel/../LowLevel/Endpoint.h **** 					uint16_t Word;
 612:../LUFA/Drivers/USB/Class/Device/../../HighLevel/../LowLevel/Endpoint.h **** 					uint8_t  Bytes[2];
 613:../LUFA/Drivers/USB/Class/Device/../../HighLevel/../LowLevel/Endpoint.h **** 				} Data;
 614:../LUFA/Drivers/USB/Class/Device/../../HighLevel/../LowLevel/Endpoint.h **** 				
 615:../LUFA/Drivers/USB/Class/Device/../../HighLevel/../LowLevel/Endpoint.h **** 				Data.Bytes[1] = UEDATX;
 616:../LUFA/Drivers/USB/Class/Device/../../HighLevel/../LowLevel/Endpoint.h **** 				Data.Bytes[0] = UEDATX;
 617:../LUFA/Drivers/USB/Class/Device/../../HighLevel/../LowLevel/Endpoint.h **** 			
 618:../LUFA/Drivers/USB/Class/Device/../../HighLevel/../LowLevel/Endpoint.h **** 				return Data.Word;
 619:../LUFA/Drivers/USB/Class/Device/../../HighLevel/../LowLevel/Endpoint.h **** 			}
 620:../LUFA/Drivers/USB/Class/Device/../../HighLevel/../LowLevel/Endpoint.h **** 
 621:../LUFA/Drivers/USB/Class/Device/../../HighLevel/../LowLevel/Endpoint.h **** 			/** Writes two bytes to the currently selected endpoint's bank in little endian format, for IN
 622:../LUFA/Drivers/USB/Class/Device/../../HighLevel/../LowLevel/Endpoint.h **** 			 *  direction endpoints.
 623:../LUFA/Drivers/USB/Class/Device/../../HighLevel/../LowLevel/Endpoint.h **** 			 *
 624:../LUFA/Drivers/USB/Class/Device/../../HighLevel/../LowLevel/Endpoint.h **** 			 *  \ingroup Group_EndpointPrimitiveRW
 625:../LUFA/Drivers/USB/Class/Device/../../HighLevel/../LowLevel/Endpoint.h **** 			 *
 626:../LUFA/Drivers/USB/Class/Device/../../HighLevel/../LowLevel/Endpoint.h **** 			 *  \param[in] Word  Next word to write to the currently selected endpoint's FIFO buffer.
 627:../LUFA/Drivers/USB/Class/Device/../../HighLevel/../LowLevel/Endpoint.h **** 			 */
 628:../LUFA/Drivers/USB/Class/Device/../../HighLevel/../LowLevel/Endpoint.h **** 			static inline void Endpoint_Write_Word_LE(const uint16_t Word) ATTR_ALWAYS_INLINE;
 629:../LUFA/Drivers/USB/Class/Device/../../HighLevel/../LowLevel/Endpoint.h **** 			static inline void Endpoint_Write_Word_LE(const uint16_t Word)
 630:../LUFA/Drivers/USB/Class/Device/../../HighLevel/../LowLevel/Endpoint.h **** 			{
 631:../LUFA/Drivers/USB/Class/Device/../../HighLevel/../LowLevel/Endpoint.h **** 				UEDATX = (Word & 0xFF);
 632:../LUFA/Drivers/USB/Class/Device/../../HighLevel/../LowLevel/Endpoint.h **** 				UEDATX = (Word >> 8);
 633:../LUFA/Drivers/USB/Class/Device/../../HighLevel/../LowLevel/Endpoint.h **** 			}
 634:../LUFA/Drivers/USB/Class/Device/../../HighLevel/../LowLevel/Endpoint.h **** 			
 635:../LUFA/Drivers/USB/Class/Device/../../HighLevel/../LowLevel/Endpoint.h **** 			/** Writes two bytes to the currently selected endpoint's bank in big endian format, for IN
 636:../LUFA/Drivers/USB/Class/Device/../../HighLevel/../LowLevel/Endpoint.h **** 			 *  direction endpoints.
 637:../LUFA/Drivers/USB/Class/Device/../../HighLevel/../LowLevel/Endpoint.h **** 			 *
 638:../LUFA/Drivers/USB/Class/Device/../../HighLevel/../LowLevel/Endpoint.h **** 			 *  \ingroup Group_EndpointPrimitiveRW
 639:../LUFA/Drivers/USB/Class/Device/../../HighLevel/../LowLevel/Endpoint.h **** 			 *
 640:../LUFA/Drivers/USB/Class/Device/../../HighLevel/../LowLevel/Endpoint.h **** 			 *  \param[in] Word  Next word to write to the currently selected endpoint's FIFO buffer.
 641:../LUFA/Drivers/USB/Class/Device/../../HighLevel/../LowLevel/Endpoint.h **** 			 */
 642:../LUFA/Drivers/USB/Class/Device/../../HighLevel/../LowLevel/Endpoint.h **** 			static inline void Endpoint_Write_Word_BE(const uint16_t Word) ATTR_ALWAYS_INLINE;
 643:../LUFA/Drivers/USB/Class/Device/../../HighLevel/../LowLevel/Endpoint.h **** 			static inline void Endpoint_Write_Word_BE(const uint16_t Word)
 644:../LUFA/Drivers/USB/Class/Device/../../HighLevel/../LowLevel/Endpoint.h **** 			{
 645:../LUFA/Drivers/USB/Class/Device/../../HighLevel/../LowLevel/Endpoint.h **** 				UEDATX = (Word >> 8);
 646:../LUFA/Drivers/USB/Class/Device/../../HighLevel/../LowLevel/Endpoint.h **** 				UEDATX = (Word & 0xFF);
 647:../LUFA/Drivers/USB/Class/Device/../../HighLevel/../LowLevel/Endpoint.h **** 			}
 648:../LUFA/Drivers/USB/Class/Device/../../HighLevel/../LowLevel/Endpoint.h **** 
 649:../LUFA/Drivers/USB/Class/Device/../../HighLevel/../LowLevel/Endpoint.h **** 			/** Discards two bytes from the currently selected endpoint's bank, for OUT direction endpoints.
 650:../LUFA/Drivers/USB/Class/Device/../../HighLevel/../LowLevel/Endpoint.h **** 			 *
 651:../LUFA/Drivers/USB/Class/Device/../../HighLevel/../LowLevel/Endpoint.h **** 			 *  \ingroup Group_EndpointPrimitiveRW
 652:../LUFA/Drivers/USB/Class/Device/../../HighLevel/../LowLevel/Endpoint.h **** 			 */
 653:../LUFA/Drivers/USB/Class/Device/../../HighLevel/../LowLevel/Endpoint.h **** 			static inline void Endpoint_Discard_Word(void) ATTR_ALWAYS_INLINE;
 654:../LUFA/Drivers/USB/Class/Device/../../HighLevel/../LowLevel/Endpoint.h **** 			static inline void Endpoint_Discard_Word(void)
 655:../LUFA/Drivers/USB/Class/Device/../../HighLevel/../LowLevel/Endpoint.h **** 			{
 656:../LUFA/Drivers/USB/Class/Device/../../HighLevel/../LowLevel/Endpoint.h **** 				uint8_t Dummy;
 657:../LUFA/Drivers/USB/Class/Device/../../HighLevel/../LowLevel/Endpoint.h **** 				
 658:../LUFA/Drivers/USB/Class/Device/../../HighLevel/../LowLevel/Endpoint.h **** 				Dummy = UEDATX;
 659:../LUFA/Drivers/USB/Class/Device/../../HighLevel/../LowLevel/Endpoint.h **** 				Dummy = UEDATX;
 660:../LUFA/Drivers/USB/Class/Device/../../HighLevel/../LowLevel/Endpoint.h **** 			}
 661:../LUFA/Drivers/USB/Class/Device/../../HighLevel/../LowLevel/Endpoint.h **** 
 662:../LUFA/Drivers/USB/Class/Device/../../HighLevel/../LowLevel/Endpoint.h **** 			/** Reads four bytes from the currently selected endpoint's bank in little endian format, for OU
 663:../LUFA/Drivers/USB/Class/Device/../../HighLevel/../LowLevel/Endpoint.h **** 			 *  direction endpoints.
 664:../LUFA/Drivers/USB/Class/Device/../../HighLevel/../LowLevel/Endpoint.h **** 			 *
 665:../LUFA/Drivers/USB/Class/Device/../../HighLevel/../LowLevel/Endpoint.h **** 			 *  \ingroup Group_EndpointPrimitiveRW
 666:../LUFA/Drivers/USB/Class/Device/../../HighLevel/../LowLevel/Endpoint.h **** 			 *
 667:../LUFA/Drivers/USB/Class/Device/../../HighLevel/../LowLevel/Endpoint.h **** 			 *  \return Next double word in the currently selected endpoint's FIFO buffer.
 668:../LUFA/Drivers/USB/Class/Device/../../HighLevel/../LowLevel/Endpoint.h **** 			 */
 669:../LUFA/Drivers/USB/Class/Device/../../HighLevel/../LowLevel/Endpoint.h **** 			static inline uint32_t Endpoint_Read_DWord_LE(void) ATTR_WARN_UNUSED_RESULT ATTR_ALWAYS_INLINE;
 670:../LUFA/Drivers/USB/Class/Device/../../HighLevel/../LowLevel/Endpoint.h **** 			static inline uint32_t Endpoint_Read_DWord_LE(void)
 671:../LUFA/Drivers/USB/Class/Device/../../HighLevel/../LowLevel/Endpoint.h **** 			{
 672:../LUFA/Drivers/USB/Class/Device/../../HighLevel/../LowLevel/Endpoint.h **** 				union
 673:../LUFA/Drivers/USB/Class/Device/../../HighLevel/../LowLevel/Endpoint.h **** 				{
 674:../LUFA/Drivers/USB/Class/Device/../../HighLevel/../LowLevel/Endpoint.h **** 					uint32_t DWord;
 675:../LUFA/Drivers/USB/Class/Device/../../HighLevel/../LowLevel/Endpoint.h **** 					uint8_t  Bytes[4];
 676:../LUFA/Drivers/USB/Class/Device/../../HighLevel/../LowLevel/Endpoint.h **** 				} Data;
 677:../LUFA/Drivers/USB/Class/Device/../../HighLevel/../LowLevel/Endpoint.h **** 				
 678:../LUFA/Drivers/USB/Class/Device/../../HighLevel/../LowLevel/Endpoint.h **** 				Data.Bytes[0] = UEDATX;
 679:../LUFA/Drivers/USB/Class/Device/../../HighLevel/../LowLevel/Endpoint.h **** 				Data.Bytes[1] = UEDATX;
 680:../LUFA/Drivers/USB/Class/Device/../../HighLevel/../LowLevel/Endpoint.h **** 				Data.Bytes[2] = UEDATX;
 681:../LUFA/Drivers/USB/Class/Device/../../HighLevel/../LowLevel/Endpoint.h **** 				Data.Bytes[3] = UEDATX;
 682:../LUFA/Drivers/USB/Class/Device/../../HighLevel/../LowLevel/Endpoint.h **** 			
 683:../LUFA/Drivers/USB/Class/Device/../../HighLevel/../LowLevel/Endpoint.h **** 				return Data.DWord;
 684:../LUFA/Drivers/USB/Class/Device/../../HighLevel/../LowLevel/Endpoint.h **** 			}
 685:../LUFA/Drivers/USB/Class/Device/../../HighLevel/../LowLevel/Endpoint.h **** 
 686:../LUFA/Drivers/USB/Class/Device/../../HighLevel/../LowLevel/Endpoint.h **** 			/** Reads four bytes from the currently selected endpoint's bank in big endian format, for OUT
 687:../LUFA/Drivers/USB/Class/Device/../../HighLevel/../LowLevel/Endpoint.h **** 			 *  direction endpoints.
 688:../LUFA/Drivers/USB/Class/Device/../../HighLevel/../LowLevel/Endpoint.h **** 			 *
 689:../LUFA/Drivers/USB/Class/Device/../../HighLevel/../LowLevel/Endpoint.h **** 			 *  \ingroup Group_EndpointPrimitiveRW
 690:../LUFA/Drivers/USB/Class/Device/../../HighLevel/../LowLevel/Endpoint.h **** 			 *
 691:../LUFA/Drivers/USB/Class/Device/../../HighLevel/../LowLevel/Endpoint.h **** 			 *  \return Next double word in the currently selected endpoint's FIFO buffer.
 692:../LUFA/Drivers/USB/Class/Device/../../HighLevel/../LowLevel/Endpoint.h **** 			 */
 693:../LUFA/Drivers/USB/Class/Device/../../HighLevel/../LowLevel/Endpoint.h **** 			static inline uint32_t Endpoint_Read_DWord_BE(void) ATTR_WARN_UNUSED_RESULT ATTR_ALWAYS_INLINE;
 694:../LUFA/Drivers/USB/Class/Device/../../HighLevel/../LowLevel/Endpoint.h **** 			static inline uint32_t Endpoint_Read_DWord_BE(void)
 695:../LUFA/Drivers/USB/Class/Device/../../HighLevel/../LowLevel/Endpoint.h **** 			{
 696:../LUFA/Drivers/USB/Class/Device/../../HighLevel/../LowLevel/Endpoint.h **** 				union
 697:../LUFA/Drivers/USB/Class/Device/../../HighLevel/../LowLevel/Endpoint.h **** 				{
 698:../LUFA/Drivers/USB/Class/Device/../../HighLevel/../LowLevel/Endpoint.h **** 					uint32_t DWord;
 699:../LUFA/Drivers/USB/Class/Device/../../HighLevel/../LowLevel/Endpoint.h **** 					uint8_t  Bytes[4];
 700:../LUFA/Drivers/USB/Class/Device/../../HighLevel/../LowLevel/Endpoint.h **** 				} Data;
 701:../LUFA/Drivers/USB/Class/Device/../../HighLevel/../LowLevel/Endpoint.h **** 				
 702:../LUFA/Drivers/USB/Class/Device/../../HighLevel/../LowLevel/Endpoint.h **** 				Data.Bytes[3] = UEDATX;
 703:../LUFA/Drivers/USB/Class/Device/../../HighLevel/../LowLevel/Endpoint.h **** 				Data.Bytes[2] = UEDATX;
 704:../LUFA/Drivers/USB/Class/Device/../../HighLevel/../LowLevel/Endpoint.h **** 				Data.Bytes[1] = UEDATX;
 705:../LUFA/Drivers/USB/Class/Device/../../HighLevel/../LowLevel/Endpoint.h **** 				Data.Bytes[0] = UEDATX;
 706:../LUFA/Drivers/USB/Class/Device/../../HighLevel/../LowLevel/Endpoint.h **** 			
 707:../LUFA/Drivers/USB/Class/Device/../../HighLevel/../LowLevel/Endpoint.h **** 				return Data.DWord;
 708:../LUFA/Drivers/USB/Class/Device/../../HighLevel/../LowLevel/Endpoint.h **** 			}
 709:../LUFA/Drivers/USB/Class/Device/../../HighLevel/../LowLevel/Endpoint.h **** 
 710:../LUFA/Drivers/USB/Class/Device/../../HighLevel/../LowLevel/Endpoint.h **** 			/** Writes four bytes to the currently selected endpoint's bank in little endian format, for IN
 711:../LUFA/Drivers/USB/Class/Device/../../HighLevel/../LowLevel/Endpoint.h **** 			 *  direction endpoints.
 712:../LUFA/Drivers/USB/Class/Device/../../HighLevel/../LowLevel/Endpoint.h **** 			 *
 713:../LUFA/Drivers/USB/Class/Device/../../HighLevel/../LowLevel/Endpoint.h **** 			 *  \ingroup Group_EndpointPrimitiveRW
 714:../LUFA/Drivers/USB/Class/Device/../../HighLevel/../LowLevel/Endpoint.h **** 			 *
 715:../LUFA/Drivers/USB/Class/Device/../../HighLevel/../LowLevel/Endpoint.h **** 			 *  \param[in] DWord  Next double word to write to the currently selected endpoint's FIFO buffer
 716:../LUFA/Drivers/USB/Class/Device/../../HighLevel/../LowLevel/Endpoint.h **** 			 */
 717:../LUFA/Drivers/USB/Class/Device/../../HighLevel/../LowLevel/Endpoint.h **** 			static inline void Endpoint_Write_DWord_LE(const uint32_t DWord) ATTR_ALWAYS_INLINE;
 718:../LUFA/Drivers/USB/Class/Device/../../HighLevel/../LowLevel/Endpoint.h **** 			static inline void Endpoint_Write_DWord_LE(const uint32_t DWord)
 719:../LUFA/Drivers/USB/Class/Device/../../HighLevel/../LowLevel/Endpoint.h **** 			{
 720:../LUFA/Drivers/USB/Class/Device/../../HighLevel/../LowLevel/Endpoint.h **** 				UEDATX = (DWord &  0xFF);
 721:../LUFA/Drivers/USB/Class/Device/../../HighLevel/../LowLevel/Endpoint.h **** 				UEDATX = (DWord >> 8);
 722:../LUFA/Drivers/USB/Class/Device/../../HighLevel/../LowLevel/Endpoint.h **** 				UEDATX = (DWord >> 16);
 723:../LUFA/Drivers/USB/Class/Device/../../HighLevel/../LowLevel/Endpoint.h **** 				UEDATX = (DWord >> 24);
 724:../LUFA/Drivers/USB/Class/Device/../../HighLevel/../LowLevel/Endpoint.h **** 			}
 725:../LUFA/Drivers/USB/Class/Device/../../HighLevel/../LowLevel/Endpoint.h **** 			
 726:../LUFA/Drivers/USB/Class/Device/../../HighLevel/../LowLevel/Endpoint.h **** 			/** Writes four bytes to the currently selected endpoint's bank in big endian format, for IN
 727:../LUFA/Drivers/USB/Class/Device/../../HighLevel/../LowLevel/Endpoint.h **** 			 *  direction endpoints.
 728:../LUFA/Drivers/USB/Class/Device/../../HighLevel/../LowLevel/Endpoint.h **** 			 *
 729:../LUFA/Drivers/USB/Class/Device/../../HighLevel/../LowLevel/Endpoint.h **** 			 *  \ingroup Group_EndpointPrimitiveRW
 730:../LUFA/Drivers/USB/Class/Device/../../HighLevel/../LowLevel/Endpoint.h **** 			 *
 731:../LUFA/Drivers/USB/Class/Device/../../HighLevel/../LowLevel/Endpoint.h **** 			 *  \param[in] DWord  Next double word to write to the currently selected endpoint's FIFO buffer
 732:../LUFA/Drivers/USB/Class/Device/../../HighLevel/../LowLevel/Endpoint.h **** 			 */
 733:../LUFA/Drivers/USB/Class/Device/../../HighLevel/../LowLevel/Endpoint.h **** 			static inline void Endpoint_Write_DWord_BE(const uint32_t DWord) ATTR_ALWAYS_INLINE;
 734:../LUFA/Drivers/USB/Class/Device/../../HighLevel/../LowLevel/Endpoint.h **** 			static inline void Endpoint_Write_DWord_BE(const uint32_t DWord)
 735:../LUFA/Drivers/USB/Class/Device/../../HighLevel/../LowLevel/Endpoint.h **** 			{
 736:../LUFA/Drivers/USB/Class/Device/../../HighLevel/../LowLevel/Endpoint.h **** 				UEDATX = (DWord >> 24);
 737:../LUFA/Drivers/USB/Class/Device/../../HighLevel/../LowLevel/Endpoint.h **** 				UEDATX = (DWord >> 16);
 738:../LUFA/Drivers/USB/Class/Device/../../HighLevel/../LowLevel/Endpoint.h **** 				UEDATX = (DWord >> 8);
 739:../LUFA/Drivers/USB/Class/Device/../../HighLevel/../LowLevel/Endpoint.h **** 				UEDATX = (DWord &  0xFF);
 740:../LUFA/Drivers/USB/Class/Device/../../HighLevel/../LowLevel/Endpoint.h **** 			}
 741:../LUFA/Drivers/USB/Class/Device/../../HighLevel/../LowLevel/Endpoint.h **** 
 742:../LUFA/Drivers/USB/Class/Device/../../HighLevel/../LowLevel/Endpoint.h **** 			/** Discards four bytes from the currently selected endpoint's bank, for OUT direction endpoints
 743:../LUFA/Drivers/USB/Class/Device/../../HighLevel/../LowLevel/Endpoint.h **** 			 *
 744:../LUFA/Drivers/USB/Class/Device/../../HighLevel/../LowLevel/Endpoint.h **** 			 *  \ingroup Group_EndpointPrimitiveRW
 745:../LUFA/Drivers/USB/Class/Device/../../HighLevel/../LowLevel/Endpoint.h **** 			 */
 746:../LUFA/Drivers/USB/Class/Device/../../HighLevel/../LowLevel/Endpoint.h **** 			static inline void Endpoint_Discard_DWord(void) ATTR_ALWAYS_INLINE;
 747:../LUFA/Drivers/USB/Class/Device/../../HighLevel/../LowLevel/Endpoint.h **** 			static inline void Endpoint_Discard_DWord(void)
 748:../LUFA/Drivers/USB/Class/Device/../../HighLevel/../LowLevel/Endpoint.h **** 			{
 749:../LUFA/Drivers/USB/Class/Device/../../HighLevel/../LowLevel/Endpoint.h **** 				uint8_t Dummy;
 750:../LUFA/Drivers/USB/Class/Device/../../HighLevel/../LowLevel/Endpoint.h **** 				
 751:../LUFA/Drivers/USB/Class/Device/../../HighLevel/../LowLevel/Endpoint.h **** 				Dummy = UEDATX;
 752:../LUFA/Drivers/USB/Class/Device/../../HighLevel/../LowLevel/Endpoint.h **** 				Dummy = UEDATX;
 753:../LUFA/Drivers/USB/Class/Device/../../HighLevel/../LowLevel/Endpoint.h **** 				Dummy = UEDATX;
 754:../LUFA/Drivers/USB/Class/Device/../../HighLevel/../LowLevel/Endpoint.h **** 				Dummy = UEDATX;
 755:../LUFA/Drivers/USB/Class/Device/../../HighLevel/../LowLevel/Endpoint.h **** 			}
 756:../LUFA/Drivers/USB/Class/Device/../../HighLevel/../LowLevel/Endpoint.h **** 
 757:../LUFA/Drivers/USB/Class/Device/../../HighLevel/../LowLevel/Endpoint.h **** 		/* External Variables: */
 758:../LUFA/Drivers/USB/Class/Device/../../HighLevel/../LowLevel/Endpoint.h **** 			/** Global indicating the maximum packet size of the default control endpoint located at address
 759:../LUFA/Drivers/USB/Class/Device/../../HighLevel/../LowLevel/Endpoint.h **** 			 *  0 in the device. This value is set to the value indicated in the device descriptor in the us
 760:../LUFA/Drivers/USB/Class/Device/../../HighLevel/../LowLevel/Endpoint.h **** 			 *  project once the USB interface is initialized into device mode.
 761:../LUFA/Drivers/USB/Class/Device/../../HighLevel/../LowLevel/Endpoint.h **** 			 *
 762:../LUFA/Drivers/USB/Class/Device/../../HighLevel/../LowLevel/Endpoint.h **** 			 *  If space is an issue, it is possible to fix this to a static value by defining the control
 763:../LUFA/Drivers/USB/Class/Device/../../HighLevel/../LowLevel/Endpoint.h **** 			 *  endpoint size in the FIXED_CONTROL_ENDPOINT_SIZE token passed to the compiler in the makefil
 764:../LUFA/Drivers/USB/Class/Device/../../HighLevel/../LowLevel/Endpoint.h **** 			 *  via the -D switch. When a fixed control endpoint size is used, the size is no longer dynamic
 765:../LUFA/Drivers/USB/Class/Device/../../HighLevel/../LowLevel/Endpoint.h **** 			 *  read from the descriptors at runtime and instead fixed to the given value. When used, it is
 766:../LUFA/Drivers/USB/Class/Device/../../HighLevel/../LowLevel/Endpoint.h **** 			 *  important that the descriptor control endpoint size value matches the size given as the
 767:../LUFA/Drivers/USB/Class/Device/../../HighLevel/../LowLevel/Endpoint.h **** 			 *  FIXED_CONTROL_ENDPOINT_SIZE token - it is recommended that the FIXED_CONTROL_ENDPOINT_SIZE t
 768:../LUFA/Drivers/USB/Class/Device/../../HighLevel/../LowLevel/Endpoint.h **** 			 *  be used in the descriptors to ensure this.
 769:../LUFA/Drivers/USB/Class/Device/../../HighLevel/../LowLevel/Endpoint.h **** 			 *
 770:../LUFA/Drivers/USB/Class/Device/../../HighLevel/../LowLevel/Endpoint.h **** 			 *  \note This variable should be treated as read-only in the user application, and never manual
 771:../LUFA/Drivers/USB/Class/Device/../../HighLevel/../LowLevel/Endpoint.h **** 			 *        changed in value.
 772:../LUFA/Drivers/USB/Class/Device/../../HighLevel/../LowLevel/Endpoint.h **** 			 */
 773:../LUFA/Drivers/USB/Class/Device/../../HighLevel/../LowLevel/Endpoint.h **** 			#if (!defined(FIXED_CONTROL_ENDPOINT_SIZE) || defined(__DOXYGEN__))
 774:../LUFA/Drivers/USB/Class/Device/../../HighLevel/../LowLevel/Endpoint.h **** 				extern uint8_t USB_ControlEndpointSize;
 775:../LUFA/Drivers/USB/Class/Device/../../HighLevel/../LowLevel/Endpoint.h **** 			#else
 776:../LUFA/Drivers/USB/Class/Device/../../HighLevel/../LowLevel/Endpoint.h **** 				#define USB_ControlEndpointSize FIXED_CONTROL_ENDPOINT_SIZE
 777:../LUFA/Drivers/USB/Class/Device/../../HighLevel/../LowLevel/Endpoint.h **** 			#endif
 778:../LUFA/Drivers/USB/Class/Device/../../HighLevel/../LowLevel/Endpoint.h **** 
 779:../LUFA/Drivers/USB/Class/Device/../../HighLevel/../LowLevel/Endpoint.h **** 		/* Function Prototypes: */
 780:../LUFA/Drivers/USB/Class/Device/../../HighLevel/../LowLevel/Endpoint.h **** 			#if !defined(NO_STREAM_CALLBACKS) || defined(__DOXYGEN__)
 781:../LUFA/Drivers/USB/Class/Device/../../HighLevel/../LowLevel/Endpoint.h **** 				#define __CALLBACK_PARAM     , StreamCallbackPtr_t Callback
 782:../LUFA/Drivers/USB/Class/Device/../../HighLevel/../LowLevel/Endpoint.h **** 			#else
 783:../LUFA/Drivers/USB/Class/Device/../../HighLevel/../LowLevel/Endpoint.h **** 				#define __CALLBACK_PARAM
 784:../LUFA/Drivers/USB/Class/Device/../../HighLevel/../LowLevel/Endpoint.h **** 			#endif
 785:../LUFA/Drivers/USB/Class/Device/../../HighLevel/../LowLevel/Endpoint.h **** 		
 786:../LUFA/Drivers/USB/Class/Device/../../HighLevel/../LowLevel/Endpoint.h **** 			/** Configures the specified endpoint number with the given endpoint type, direction, bank size
 787:../LUFA/Drivers/USB/Class/Device/../../HighLevel/../LowLevel/Endpoint.h **** 			 *  and banking mode. Endpoints should be allocated in ascending order by their address in the
 788:../LUFA/Drivers/USB/Class/Device/../../HighLevel/../LowLevel/Endpoint.h **** 			 *  device (i.e. endpoint 1 should be configured before endpoint 2 and so on) to prevent fragmen
 789:../LUFA/Drivers/USB/Class/Device/../../HighLevel/../LowLevel/Endpoint.h **** 			 *  of the USB FIFO memory.
 790:../LUFA/Drivers/USB/Class/Device/../../HighLevel/../LowLevel/Endpoint.h **** 			 *
 791:../LUFA/Drivers/USB/Class/Device/../../HighLevel/../LowLevel/Endpoint.h **** 			 *  The endpoint type may be one of the EP_TYPE_* macros listed in LowLevel.h and the direction
 792:../LUFA/Drivers/USB/Class/Device/../../HighLevel/../LowLevel/Endpoint.h **** 			 *  may be either \ref ENDPOINT_DIR_OUT or \ref ENDPOINT_DIR_IN.
 793:../LUFA/Drivers/USB/Class/Device/../../HighLevel/../LowLevel/Endpoint.h **** 			 *
 794:../LUFA/Drivers/USB/Class/Device/../../HighLevel/../LowLevel/Endpoint.h **** 			 *  The bank size must indicate the maximum packet size that the endpoint can handle. Different
 795:../LUFA/Drivers/USB/Class/Device/../../HighLevel/../LowLevel/Endpoint.h **** 			 *  endpoint numbers can handle different maximum packet sizes - refer to the chosen USB AVR's
 796:../LUFA/Drivers/USB/Class/Device/../../HighLevel/../LowLevel/Endpoint.h **** 			 *  datasheet to determine the maximum bank size for each endpoint.
 797:../LUFA/Drivers/USB/Class/Device/../../HighLevel/../LowLevel/Endpoint.h **** 			 *
 798:../LUFA/Drivers/USB/Class/Device/../../HighLevel/../LowLevel/Endpoint.h **** 			 *  The banking mode may be either \ref ENDPOINT_BANK_SINGLE or \ref ENDPOINT_BANK_DOUBLE.
 799:../LUFA/Drivers/USB/Class/Device/../../HighLevel/../LowLevel/Endpoint.h **** 			 *
 800:../LUFA/Drivers/USB/Class/Device/../../HighLevel/../LowLevel/Endpoint.h **** 			 *  \note The default control endpoint should not be manually configured by the user application
 801:../LUFA/Drivers/USB/Class/Device/../../HighLevel/../LowLevel/Endpoint.h **** 			 *        it is automatically configured by the library internally.
 802:../LUFA/Drivers/USB/Class/Device/../../HighLevel/../LowLevel/Endpoint.h **** 			 *        \n\n
 803:../LUFA/Drivers/USB/Class/Device/../../HighLevel/../LowLevel/Endpoint.h **** 			 *
 804:../LUFA/Drivers/USB/Class/Device/../../HighLevel/../LowLevel/Endpoint.h **** 			 *  \note This routine will select the specified endpoint, and the endpoint will remain selected
 805:../LUFA/Drivers/USB/Class/Device/../../HighLevel/../LowLevel/Endpoint.h **** 			 *        once the routine completes regardless of if the endpoint configuration succeeds.
 806:../LUFA/Drivers/USB/Class/Device/../../HighLevel/../LowLevel/Endpoint.h **** 			 *
 807:../LUFA/Drivers/USB/Class/Device/../../HighLevel/../LowLevel/Endpoint.h **** 			 *  \return Boolean true if the configuration succeeded, false otherwise.
 808:../LUFA/Drivers/USB/Class/Device/../../HighLevel/../LowLevel/Endpoint.h **** 			 */
 809:../LUFA/Drivers/USB/Class/Device/../../HighLevel/../LowLevel/Endpoint.h **** 			bool Endpoint_ConfigureEndpoint(const uint8_t  Number,
 810:../LUFA/Drivers/USB/Class/Device/../../HighLevel/../LowLevel/Endpoint.h **** 			                                const uint8_t Type,
 811:../LUFA/Drivers/USB/Class/Device/../../HighLevel/../LowLevel/Endpoint.h **** 			                                const uint8_t Direction,
 812:../LUFA/Drivers/USB/Class/Device/../../HighLevel/../LowLevel/Endpoint.h **** 			                                const uint16_t Size,
 813:../LUFA/Drivers/USB/Class/Device/../../HighLevel/../LowLevel/Endpoint.h **** 			                                const uint8_t Banks);
 814:../LUFA/Drivers/USB/Class/Device/../../HighLevel/../LowLevel/Endpoint.h **** 
 815:../LUFA/Drivers/USB/Class/Device/../../HighLevel/../LowLevel/Endpoint.h **** 			/** Spin-loops until the currently selected non-control endpoint is ready for the next packet of
 816:../LUFA/Drivers/USB/Class/Device/../../HighLevel/../LowLevel/Endpoint.h **** 			 *  to be read or written to it.
 817:../LUFA/Drivers/USB/Class/Device/../../HighLevel/../LowLevel/Endpoint.h **** 			 *
 818:../LUFA/Drivers/USB/Class/Device/../../HighLevel/../LowLevel/Endpoint.h **** 			 *  \note This routine should not be called on CONTROL type endpoints.
 819:../LUFA/Drivers/USB/Class/Device/../../HighLevel/../LowLevel/Endpoint.h **** 			 *
 820:../LUFA/Drivers/USB/Class/Device/../../HighLevel/../LowLevel/Endpoint.h **** 			 *  \ingroup Group_EndpointRW
 821:../LUFA/Drivers/USB/Class/Device/../../HighLevel/../LowLevel/Endpoint.h **** 			 *
 822:../LUFA/Drivers/USB/Class/Device/../../HighLevel/../LowLevel/Endpoint.h **** 			 *  \return A value from the \ref Endpoint_WaitUntilReady_ErrorCodes_t enum.
 823:../LUFA/Drivers/USB/Class/Device/../../HighLevel/../LowLevel/Endpoint.h **** 			 */
 824:../LUFA/Drivers/USB/Class/Device/../../HighLevel/../LowLevel/Endpoint.h **** 			uint8_t Endpoint_WaitUntilReady(void);
 825:../LUFA/Drivers/USB/Class/Device/../../HighLevel/../LowLevel/Endpoint.h **** 			
 826:../LUFA/Drivers/USB/Class/Device/../../HighLevel/../LowLevel/Endpoint.h **** 			/** Completes the status stage of a control transfer on a CONTROL type endpoint automatically,
 827:../LUFA/Drivers/USB/Class/Device/../../HighLevel/../LowLevel/Endpoint.h **** 			 *  with respect to the data direction. This is a convenience function which can be used to
 828:../LUFA/Drivers/USB/Class/Device/../../HighLevel/../LowLevel/Endpoint.h **** 			 *  simplify user control request handling.
 829:../LUFA/Drivers/USB/Class/Device/../../HighLevel/../LowLevel/Endpoint.h **** 			 */
 830:../LUFA/Drivers/USB/Class/Device/../../HighLevel/../LowLevel/Endpoint.h **** 			void Endpoint_ClearStatusStage(void);
 831:../LUFA/Drivers/USB/Class/Device/../../HighLevel/../LowLevel/Endpoint.h **** 
 832:../LUFA/Drivers/USB/Class/Device/../../HighLevel/../LowLevel/Endpoint.h **** 			/** Reads and discards the given number of bytes from the endpoint from the given buffer,
 833:../LUFA/Drivers/USB/Class/Device/../../HighLevel/../LowLevel/Endpoint.h **** 			 *  discarding fully read packets from the host as needed. The last packet is not automatically
 834:../LUFA/Drivers/USB/Class/Device/../../HighLevel/../LowLevel/Endpoint.h **** 			 *  discarded once the remaining bytes has been read; the user is responsible for manually
 835:../LUFA/Drivers/USB/Class/Device/../../HighLevel/../LowLevel/Endpoint.h **** 			 *  discarding the last packet from the host via the \ref Endpoint_ClearOUT() macro. Between
 836:../LUFA/Drivers/USB/Class/Device/../../HighLevel/../LowLevel/Endpoint.h **** 			 *  each USB packet, the given stream callback function is executed repeatedly until the next
 837:../LUFA/Drivers/USB/Class/Device/../../HighLevel/../LowLevel/Endpoint.h **** 			 *  packet is ready, allowing for early aborts of stream transfers.
 838:../LUFA/Drivers/USB/Class/Device/../../HighLevel/../LowLevel/Endpoint.h **** 			 *
 839:../LUFA/Drivers/USB/Class/Device/../../HighLevel/../LowLevel/Endpoint.h **** 			 *	The callback routine should be created according to the information in \ref Group_StreamCallb
 840:../LUFA/Drivers/USB/Class/Device/../../HighLevel/../LowLevel/Endpoint.h **** 			 *  If the token NO_STREAM_CALLBACKS is passed via the -D option to the compiler, stream callbac
 841:../LUFA/Drivers/USB/Class/Device/../../HighLevel/../LowLevel/Endpoint.h **** 			 *  disabled and this function has the Callback parameter omitted.
 842:../LUFA/Drivers/USB/Class/Device/../../HighLevel/../LowLevel/Endpoint.h **** 			 *
 843:../LUFA/Drivers/USB/Class/Device/../../HighLevel/../LowLevel/Endpoint.h **** 			 *  \note This routine should not be used on CONTROL type endpoints.
 844:../LUFA/Drivers/USB/Class/Device/../../HighLevel/../LowLevel/Endpoint.h **** 			 *
 845:../LUFA/Drivers/USB/Class/Device/../../HighLevel/../LowLevel/Endpoint.h **** 			 *  \ingroup Group_EndpointStreamRW
 846:../LUFA/Drivers/USB/Class/Device/../../HighLevel/../LowLevel/Endpoint.h **** 			 *
 847:../LUFA/Drivers/USB/Class/Device/../../HighLevel/../LowLevel/Endpoint.h **** 			 *  \param[in] Length    Number of bytes to send via the currently selected endpoint.
 848:../LUFA/Drivers/USB/Class/Device/../../HighLevel/../LowLevel/Endpoint.h **** 			 *  \param[in] Callback  Name of a callback routine to call between successive USB packet transf
 849:../LUFA/Drivers/USB/Class/Device/../../HighLevel/../LowLevel/Endpoint.h **** 			 *
 850:../LUFA/Drivers/USB/Class/Device/../../HighLevel/../LowLevel/Endpoint.h **** 			 *  \return A value from the \ref Endpoint_Stream_RW_ErrorCodes_t enum.
 851:../LUFA/Drivers/USB/Class/Device/../../HighLevel/../LowLevel/Endpoint.h **** 			 */
 852:../LUFA/Drivers/USB/Class/Device/../../HighLevel/../LowLevel/Endpoint.h **** 			uint8_t Endpoint_Discard_Stream(uint16_t Length
 853:../LUFA/Drivers/USB/Class/Device/../../HighLevel/../LowLevel/Endpoint.h **** 			                                __CALLBACK_PARAM);
 854:../LUFA/Drivers/USB/Class/Device/../../HighLevel/../LowLevel/Endpoint.h **** 
 855:../LUFA/Drivers/USB/Class/Device/../../HighLevel/../LowLevel/Endpoint.h **** 			/** Writes the given number of bytes to the endpoint from the given buffer in little endian,
 856:../LUFA/Drivers/USB/Class/Device/../../HighLevel/../LowLevel/Endpoint.h **** 			 *  sending full packets to the host as needed. The last packet filled is not automatically sent
 857:../LUFA/Drivers/USB/Class/Device/../../HighLevel/../LowLevel/Endpoint.h **** 			 *  the user is responsible for manually sending the last written packet to the host via the
 858:../LUFA/Drivers/USB/Class/Device/../../HighLevel/../LowLevel/Endpoint.h **** 			 *  \ref Endpoint_ClearIN() macro. Between each USB packet, the given stream callback function
 859:../LUFA/Drivers/USB/Class/Device/../../HighLevel/../LowLevel/Endpoint.h **** 			 *  is executed repeatedly until the endpoint is ready to accept the next packet, allowing for e
 860:../LUFA/Drivers/USB/Class/Device/../../HighLevel/../LowLevel/Endpoint.h **** 			 *  aborts of stream transfers.
 861:../LUFA/Drivers/USB/Class/Device/../../HighLevel/../LowLevel/Endpoint.h **** 			 *
 862:../LUFA/Drivers/USB/Class/Device/../../HighLevel/../LowLevel/Endpoint.h **** 			 *	The callback routine should be created according to the information in \ref Group_StreamCallb
 863:../LUFA/Drivers/USB/Class/Device/../../HighLevel/../LowLevel/Endpoint.h **** 			 *  If the token NO_STREAM_CALLBACKS is passed via the -D option to the compiler, stream callbac
 864:../LUFA/Drivers/USB/Class/Device/../../HighLevel/../LowLevel/Endpoint.h **** 			 *  disabled and this function has the Callback parameter omitted.
 865:../LUFA/Drivers/USB/Class/Device/../../HighLevel/../LowLevel/Endpoint.h **** 			 *
 866:../LUFA/Drivers/USB/Class/Device/../../HighLevel/../LowLevel/Endpoint.h **** 			 *  \note This routine should not be used on CONTROL type endpoints.
 867:../LUFA/Drivers/USB/Class/Device/../../HighLevel/../LowLevel/Endpoint.h **** 			 *
 868:../LUFA/Drivers/USB/Class/Device/../../HighLevel/../LowLevel/Endpoint.h **** 			 *  \ingroup Group_EndpointStreamRW
 869:../LUFA/Drivers/USB/Class/Device/../../HighLevel/../LowLevel/Endpoint.h **** 			 *
 870:../LUFA/Drivers/USB/Class/Device/../../HighLevel/../LowLevel/Endpoint.h **** 			 *  \param[in] Buffer    Pointer to the source data buffer to read from.
 871:../LUFA/Drivers/USB/Class/Device/../../HighLevel/../LowLevel/Endpoint.h **** 			 *  \param[in] Length    Number of bytes to read for the currently selected endpoint into the bu
 872:../LUFA/Drivers/USB/Class/Device/../../HighLevel/../LowLevel/Endpoint.h **** 			 *  \param[in] Callback  Name of a callback routine to call between successive USB packet transf
 873:../LUFA/Drivers/USB/Class/Device/../../HighLevel/../LowLevel/Endpoint.h **** 			 *
 874:../LUFA/Drivers/USB/Class/Device/../../HighLevel/../LowLevel/Endpoint.h **** 			 *  \return A value from the \ref Endpoint_Stream_RW_ErrorCodes_t enum.
 875:../LUFA/Drivers/USB/Class/Device/../../HighLevel/../LowLevel/Endpoint.h **** 			 */
 876:../LUFA/Drivers/USB/Class/Device/../../HighLevel/../LowLevel/Endpoint.h **** 			uint8_t Endpoint_Write_Stream_LE(const void* Buffer,
 877:../LUFA/Drivers/USB/Class/Device/../../HighLevel/../LowLevel/Endpoint.h **** 			                                 uint16_t Length
 878:../LUFA/Drivers/USB/Class/Device/../../HighLevel/../LowLevel/Endpoint.h **** 			                                 __CALLBACK_PARAM) ATTR_NON_NULL_PTR_ARG(1);
 879:../LUFA/Drivers/USB/Class/Device/../../HighLevel/../LowLevel/Endpoint.h **** 
 880:../LUFA/Drivers/USB/Class/Device/../../HighLevel/../LowLevel/Endpoint.h **** 			/** EEPROM buffer source version of \ref Endpoint_Write_Stream_LE().
 881:../LUFA/Drivers/USB/Class/Device/../../HighLevel/../LowLevel/Endpoint.h **** 			 *
 882:../LUFA/Drivers/USB/Class/Device/../../HighLevel/../LowLevel/Endpoint.h **** 			 *  \ingroup Group_EndpointStreamRW
 883:../LUFA/Drivers/USB/Class/Device/../../HighLevel/../LowLevel/Endpoint.h **** 			 *
 884:../LUFA/Drivers/USB/Class/Device/../../HighLevel/../LowLevel/Endpoint.h **** 			 *  \param[in] Buffer    Pointer to the source data buffer to read from.
 885:../LUFA/Drivers/USB/Class/Device/../../HighLevel/../LowLevel/Endpoint.h **** 			 *  \param[in] Length    Number of bytes to read for the currently selected endpoint into the bu
 886:../LUFA/Drivers/USB/Class/Device/../../HighLevel/../LowLevel/Endpoint.h **** 			 *  \param[in] Callback  Name of a callback routine to call between successive USB packet transf
 887:../LUFA/Drivers/USB/Class/Device/../../HighLevel/../LowLevel/Endpoint.h **** 			 *
 888:../LUFA/Drivers/USB/Class/Device/../../HighLevel/../LowLevel/Endpoint.h **** 			 *  \return A value from the \ref Endpoint_Stream_RW_ErrorCodes_t enum.
 889:../LUFA/Drivers/USB/Class/Device/../../HighLevel/../LowLevel/Endpoint.h **** 			 */
 890:../LUFA/Drivers/USB/Class/Device/../../HighLevel/../LowLevel/Endpoint.h **** 			uint8_t Endpoint_Write_EStream_LE(const void* Buffer,
 891:../LUFA/Drivers/USB/Class/Device/../../HighLevel/../LowLevel/Endpoint.h **** 			                                  uint16_t Length
 892:../LUFA/Drivers/USB/Class/Device/../../HighLevel/../LowLevel/Endpoint.h **** 			                                  __CALLBACK_PARAM) ATTR_NON_NULL_PTR_ARG(1);
 893:../LUFA/Drivers/USB/Class/Device/../../HighLevel/../LowLevel/Endpoint.h **** 
 894:../LUFA/Drivers/USB/Class/Device/../../HighLevel/../LowLevel/Endpoint.h **** 			/** FLASH buffer source version of \ref Endpoint_Write_Stream_LE().
 895:../LUFA/Drivers/USB/Class/Device/../../HighLevel/../LowLevel/Endpoint.h **** 			 *
 896:../LUFA/Drivers/USB/Class/Device/../../HighLevel/../LowLevel/Endpoint.h **** 			 *  \pre The FLASH data must be located in the first 64KB of FLASH for this function to work cor
 897:../LUFA/Drivers/USB/Class/Device/../../HighLevel/../LowLevel/Endpoint.h **** 			 *
 898:../LUFA/Drivers/USB/Class/Device/../../HighLevel/../LowLevel/Endpoint.h **** 			 *  \ingroup Group_EndpointStreamRW
 899:../LUFA/Drivers/USB/Class/Device/../../HighLevel/../LowLevel/Endpoint.h **** 			 *
 900:../LUFA/Drivers/USB/Class/Device/../../HighLevel/../LowLevel/Endpoint.h **** 			 *  \param[in] Buffer    Pointer to the source data buffer to read from.
 901:../LUFA/Drivers/USB/Class/Device/../../HighLevel/../LowLevel/Endpoint.h **** 			 *  \param[in] Length    Number of bytes to read for the currently selected endpoint into the bu
 902:../LUFA/Drivers/USB/Class/Device/../../HighLevel/../LowLevel/Endpoint.h **** 			 *  \param[in] Callback  Name of a callback routine to call between successive USB packet transf
 903:../LUFA/Drivers/USB/Class/Device/../../HighLevel/../LowLevel/Endpoint.h **** 			 *
 904:../LUFA/Drivers/USB/Class/Device/../../HighLevel/../LowLevel/Endpoint.h **** 			 *  \return A value from the \ref Endpoint_Stream_RW_ErrorCodes_t enum.
 905:../LUFA/Drivers/USB/Class/Device/../../HighLevel/../LowLevel/Endpoint.h **** 			 */
 906:../LUFA/Drivers/USB/Class/Device/../../HighLevel/../LowLevel/Endpoint.h **** 			uint8_t Endpoint_Write_PStream_LE(const void* Buffer,
 907:../LUFA/Drivers/USB/Class/Device/../../HighLevel/../LowLevel/Endpoint.h **** 			                                  uint16_t Length
 908:../LUFA/Drivers/USB/Class/Device/../../HighLevel/../LowLevel/Endpoint.h **** 			                                  __CALLBACK_PARAM) ATTR_NON_NULL_PTR_ARG(1);
 909:../LUFA/Drivers/USB/Class/Device/../../HighLevel/../LowLevel/Endpoint.h **** 
 910:../LUFA/Drivers/USB/Class/Device/../../HighLevel/../LowLevel/Endpoint.h **** 			/** Writes the given number of bytes to the endpoint from the given buffer in big endian,
 911:../LUFA/Drivers/USB/Class/Device/../../HighLevel/../LowLevel/Endpoint.h **** 			 *  sending full packets to the host as needed. The last packet filled is not automatically sent
 912:../LUFA/Drivers/USB/Class/Device/../../HighLevel/../LowLevel/Endpoint.h **** 			 *  the user is responsible for manually sending the last written packet to the host via the
 913:../LUFA/Drivers/USB/Class/Device/../../HighLevel/../LowLevel/Endpoint.h **** 			 *  \ref Endpoint_ClearIN() macro. Between each USB packet, the given stream callback function
 914:../LUFA/Drivers/USB/Class/Device/../../HighLevel/../LowLevel/Endpoint.h **** 			 *  is executed repeatedly until the endpoint is ready to accept the next packet, allowing for e
 915:../LUFA/Drivers/USB/Class/Device/../../HighLevel/../LowLevel/Endpoint.h **** 			 *  aborts of stream transfers.
 916:../LUFA/Drivers/USB/Class/Device/../../HighLevel/../LowLevel/Endpoint.h **** 			 *
 917:../LUFA/Drivers/USB/Class/Device/../../HighLevel/../LowLevel/Endpoint.h **** 			 *	The callback routine should be created according to the information in \ref Group_StreamCallb
 918:../LUFA/Drivers/USB/Class/Device/../../HighLevel/../LowLevel/Endpoint.h **** 			 *  If the token NO_STREAM_CALLBACKS is passed via the -D option to the compiler, stream callbac
 919:../LUFA/Drivers/USB/Class/Device/../../HighLevel/../LowLevel/Endpoint.h **** 			 *  disabled and this function has the Callback parameter omitted.
 920:../LUFA/Drivers/USB/Class/Device/../../HighLevel/../LowLevel/Endpoint.h **** 			 *
 921:../LUFA/Drivers/USB/Class/Device/../../HighLevel/../LowLevel/Endpoint.h **** 			 *  \note This routine should not be used on CONTROL type endpoints.
 922:../LUFA/Drivers/USB/Class/Device/../../HighLevel/../LowLevel/Endpoint.h **** 			 *
 923:../LUFA/Drivers/USB/Class/Device/../../HighLevel/../LowLevel/Endpoint.h **** 			 *  \ingroup Group_EndpointStreamRW
 924:../LUFA/Drivers/USB/Class/Device/../../HighLevel/../LowLevel/Endpoint.h **** 			 *
 925:../LUFA/Drivers/USB/Class/Device/../../HighLevel/../LowLevel/Endpoint.h **** 			 *  \param[in] Buffer    Pointer to the source data buffer to read from.
 926:../LUFA/Drivers/USB/Class/Device/../../HighLevel/../LowLevel/Endpoint.h **** 			 *  \param[in] Length    Number of bytes to read for the currently selected endpoint into the bu
 927:../LUFA/Drivers/USB/Class/Device/../../HighLevel/../LowLevel/Endpoint.h **** 			 *  \param[in] Callback  Name of a callback routine to call between successive USB packet transf
 928:../LUFA/Drivers/USB/Class/Device/../../HighLevel/../LowLevel/Endpoint.h **** 			 *
 929:../LUFA/Drivers/USB/Class/Device/../../HighLevel/../LowLevel/Endpoint.h **** 			 *  \return A value from the \ref Endpoint_Stream_RW_ErrorCodes_t enum.
 930:../LUFA/Drivers/USB/Class/Device/../../HighLevel/../LowLevel/Endpoint.h **** 			 */
 931:../LUFA/Drivers/USB/Class/Device/../../HighLevel/../LowLevel/Endpoint.h **** 			uint8_t Endpoint_Write_Stream_BE(const void* Buffer,
 932:../LUFA/Drivers/USB/Class/Device/../../HighLevel/../LowLevel/Endpoint.h **** 			                                 uint16_t Length
 933:../LUFA/Drivers/USB/Class/Device/../../HighLevel/../LowLevel/Endpoint.h **** 			                                 __CALLBACK_PARAM) ATTR_NON_NULL_PTR_ARG(1);
 934:../LUFA/Drivers/USB/Class/Device/../../HighLevel/../LowLevel/Endpoint.h **** 
 935:../LUFA/Drivers/USB/Class/Device/../../HighLevel/../LowLevel/Endpoint.h **** 			/** EEPROM buffer source version of \ref Endpoint_Write_Stream_BE().
 936:../LUFA/Drivers/USB/Class/Device/../../HighLevel/../LowLevel/Endpoint.h **** 			 *
 937:../LUFA/Drivers/USB/Class/Device/../../HighLevel/../LowLevel/Endpoint.h **** 			 *  \ingroup Group_EndpointStreamRW
 938:../LUFA/Drivers/USB/Class/Device/../../HighLevel/../LowLevel/Endpoint.h **** 			 *
 939:../LUFA/Drivers/USB/Class/Device/../../HighLevel/../LowLevel/Endpoint.h **** 			 *  \param[in] Buffer    Pointer to the source data buffer to read from.
 940:../LUFA/Drivers/USB/Class/Device/../../HighLevel/../LowLevel/Endpoint.h **** 			 *  \param[in] Length    Number of bytes to read for the currently selected endpoint into the bu
 941:../LUFA/Drivers/USB/Class/Device/../../HighLevel/../LowLevel/Endpoint.h **** 			 *  \param[in] Callback  Name of a callback routine to call between successive USB packet transf
 942:../LUFA/Drivers/USB/Class/Device/../../HighLevel/../LowLevel/Endpoint.h **** 			 *
 943:../LUFA/Drivers/USB/Class/Device/../../HighLevel/../LowLevel/Endpoint.h **** 			 *  \return A value from the \ref Endpoint_Stream_RW_ErrorCodes_t enum.
 944:../LUFA/Drivers/USB/Class/Device/../../HighLevel/../LowLevel/Endpoint.h **** 			 */
 945:../LUFA/Drivers/USB/Class/Device/../../HighLevel/../LowLevel/Endpoint.h **** 			uint8_t Endpoint_Write_EStream_BE(const void* Buffer,
 946:../LUFA/Drivers/USB/Class/Device/../../HighLevel/../LowLevel/Endpoint.h **** 			                                  uint16_t Length
 947:../LUFA/Drivers/USB/Class/Device/../../HighLevel/../LowLevel/Endpoint.h **** 			                                  __CALLBACK_PARAM) ATTR_NON_NULL_PTR_ARG(1);
 948:../LUFA/Drivers/USB/Class/Device/../../HighLevel/../LowLevel/Endpoint.h **** 
 949:../LUFA/Drivers/USB/Class/Device/../../HighLevel/../LowLevel/Endpoint.h **** 			/** FLASH buffer source version of \ref Endpoint_Write_Stream_BE().
 950:../LUFA/Drivers/USB/Class/Device/../../HighLevel/../LowLevel/Endpoint.h **** 			 *
 951:../LUFA/Drivers/USB/Class/Device/../../HighLevel/../LowLevel/Endpoint.h **** 			 *  \pre The FLASH data must be located in the first 64KB of FLASH for this function to work cor
 952:../LUFA/Drivers/USB/Class/Device/../../HighLevel/../LowLevel/Endpoint.h **** 			 *
 953:../LUFA/Drivers/USB/Class/Device/../../HighLevel/../LowLevel/Endpoint.h **** 			 *  \ingroup Group_EndpointStreamRW
 954:../LUFA/Drivers/USB/Class/Device/../../HighLevel/../LowLevel/Endpoint.h **** 			 *
 955:../LUFA/Drivers/USB/Class/Device/../../HighLevel/../LowLevel/Endpoint.h **** 			 *  \param[in] Buffer    Pointer to the source data buffer to read from.
 956:../LUFA/Drivers/USB/Class/Device/../../HighLevel/../LowLevel/Endpoint.h **** 			 *  \param[in] Length    Number of bytes to read for the currently selected endpoint into the bu
 957:../LUFA/Drivers/USB/Class/Device/../../HighLevel/../LowLevel/Endpoint.h **** 			 *  \param[in] Callback  Name of a callback routine to call between successive USB packet transf
 958:../LUFA/Drivers/USB/Class/Device/../../HighLevel/../LowLevel/Endpoint.h **** 			 *
 959:../LUFA/Drivers/USB/Class/Device/../../HighLevel/../LowLevel/Endpoint.h **** 			 *  \return A value from the \ref Endpoint_Stream_RW_ErrorCodes_t enum.
 960:../LUFA/Drivers/USB/Class/Device/../../HighLevel/../LowLevel/Endpoint.h **** 			 */
 961:../LUFA/Drivers/USB/Class/Device/../../HighLevel/../LowLevel/Endpoint.h **** 			uint8_t Endpoint_Write_PStream_BE(const void* Buffer,
 962:../LUFA/Drivers/USB/Class/Device/../../HighLevel/../LowLevel/Endpoint.h **** 			                                  uint16_t Length
 963:../LUFA/Drivers/USB/Class/Device/../../HighLevel/../LowLevel/Endpoint.h **** 			                                  __CALLBACK_PARAM) ATTR_NON_NULL_PTR_ARG(1);
 964:../LUFA/Drivers/USB/Class/Device/../../HighLevel/../LowLevel/Endpoint.h **** 
 965:../LUFA/Drivers/USB/Class/Device/../../HighLevel/../LowLevel/Endpoint.h **** 			/** Reads the given number of bytes from the endpoint from the given buffer in little endian,
 966:../LUFA/Drivers/USB/Class/Device/../../HighLevel/../LowLevel/Endpoint.h **** 			 *  discarding fully read packets from the host as needed. The last packet is not automatically
 967:../LUFA/Drivers/USB/Class/Device/../../HighLevel/../LowLevel/Endpoint.h **** 			 *  discarded once the remaining bytes has been read; the user is responsible for manually
 968:../LUFA/Drivers/USB/Class/Device/../../HighLevel/../LowLevel/Endpoint.h **** 			 *  discarding the last packet from the host via the \ref Endpoint_ClearOUT() macro. Between
 969:../LUFA/Drivers/USB/Class/Device/../../HighLevel/../LowLevel/Endpoint.h **** 			 *  each USB packet, the given stream callback function is executed repeatedly until the endpoin
 970:../LUFA/Drivers/USB/Class/Device/../../HighLevel/../LowLevel/Endpoint.h **** 			 *  is ready to accept the next packet, allowing for early aborts of stream transfers.
 971:../LUFA/Drivers/USB/Class/Device/../../HighLevel/../LowLevel/Endpoint.h **** 			 *
 972:../LUFA/Drivers/USB/Class/Device/../../HighLevel/../LowLevel/Endpoint.h **** 			 *	The callback routine should be created according to the information in \ref Group_StreamCallb
 973:../LUFA/Drivers/USB/Class/Device/../../HighLevel/../LowLevel/Endpoint.h **** 			 *  If the token NO_STREAM_CALLBACKS is passed via the -D option to the compiler, stream callbac
 974:../LUFA/Drivers/USB/Class/Device/../../HighLevel/../LowLevel/Endpoint.h **** 			 *  disabled and this function has the Callback parameter omitted.
 975:../LUFA/Drivers/USB/Class/Device/../../HighLevel/../LowLevel/Endpoint.h **** 			 *
 976:../LUFA/Drivers/USB/Class/Device/../../HighLevel/../LowLevel/Endpoint.h **** 			 *  \note This routine should not be used on CONTROL type endpoints.
 977:../LUFA/Drivers/USB/Class/Device/../../HighLevel/../LowLevel/Endpoint.h **** 			 *
 978:../LUFA/Drivers/USB/Class/Device/../../HighLevel/../LowLevel/Endpoint.h **** 			 *  \ingroup Group_EndpointStreamRW
 979:../LUFA/Drivers/USB/Class/Device/../../HighLevel/../LowLevel/Endpoint.h **** 			 *
 980:../LUFA/Drivers/USB/Class/Device/../../HighLevel/../LowLevel/Endpoint.h **** 			 *  \param[out] Buffer    Pointer to the destination data buffer to write to.
 981:../LUFA/Drivers/USB/Class/Device/../../HighLevel/../LowLevel/Endpoint.h **** 			 *  \param[in]  Length    Number of bytes to send via the currently selected endpoint.
 982:../LUFA/Drivers/USB/Class/Device/../../HighLevel/../LowLevel/Endpoint.h **** 			 *  \param[in]  Callback  Name of a callback routine to call between successive USB packet trans
 983:../LUFA/Drivers/USB/Class/Device/../../HighLevel/../LowLevel/Endpoint.h **** 			 *
 984:../LUFA/Drivers/USB/Class/Device/../../HighLevel/../LowLevel/Endpoint.h **** 			 *  \return A value from the \ref Endpoint_Stream_RW_ErrorCodes_t enum.
 985:../LUFA/Drivers/USB/Class/Device/../../HighLevel/../LowLevel/Endpoint.h **** 			 */
 986:../LUFA/Drivers/USB/Class/Device/../../HighLevel/../LowLevel/Endpoint.h **** 			uint8_t Endpoint_Read_Stream_LE(void* Buffer,
 987:../LUFA/Drivers/USB/Class/Device/../../HighLevel/../LowLevel/Endpoint.h **** 			                                uint16_t Length
 988:../LUFA/Drivers/USB/Class/Device/../../HighLevel/../LowLevel/Endpoint.h **** 			                                __CALLBACK_PARAM) ATTR_NON_NULL_PTR_ARG(1);
 989:../LUFA/Drivers/USB/Class/Device/../../HighLevel/../LowLevel/Endpoint.h **** 
 990:../LUFA/Drivers/USB/Class/Device/../../HighLevel/../LowLevel/Endpoint.h **** 			/** EEPROM buffer source version of \ref Endpoint_Read_Stream_LE().
 991:../LUFA/Drivers/USB/Class/Device/../../HighLevel/../LowLevel/Endpoint.h **** 			 *
 992:../LUFA/Drivers/USB/Class/Device/../../HighLevel/../LowLevel/Endpoint.h **** 			 *  \ingroup Group_EndpointStreamRW
 993:../LUFA/Drivers/USB/Class/Device/../../HighLevel/../LowLevel/Endpoint.h **** 			 *
 994:../LUFA/Drivers/USB/Class/Device/../../HighLevel/../LowLevel/Endpoint.h **** 			 *  \param[out] Buffer    Pointer to the destination data buffer to write to, located in EEPROM 
 995:../LUFA/Drivers/USB/Class/Device/../../HighLevel/../LowLevel/Endpoint.h **** 			 *  \param[in]  Length    Number of bytes to send via the currently selected endpoint.
 996:../LUFA/Drivers/USB/Class/Device/../../HighLevel/../LowLevel/Endpoint.h **** 			 *  \param[in]  Callback  Name of a callback routine to call between successive USB packet trans
 997:../LUFA/Drivers/USB/Class/Device/../../HighLevel/../LowLevel/Endpoint.h **** 			 *
 998:../LUFA/Drivers/USB/Class/Device/../../HighLevel/../LowLevel/Endpoint.h **** 			 *  \return A value from the \ref Endpoint_Stream_RW_ErrorCodes_t enum.
 999:../LUFA/Drivers/USB/Class/Device/../../HighLevel/../LowLevel/Endpoint.h **** 			 */
1000:../LUFA/Drivers/USB/Class/Device/../../HighLevel/../LowLevel/Endpoint.h **** 			uint8_t Endpoint_Read_EStream_LE(void* Buffer,
1001:../LUFA/Drivers/USB/Class/Device/../../HighLevel/../LowLevel/Endpoint.h **** 			                                 uint16_t Length
1002:../LUFA/Drivers/USB/Class/Device/../../HighLevel/../LowLevel/Endpoint.h **** 			                                 __CALLBACK_PARAM) ATTR_NON_NULL_PTR_ARG(1);
1003:../LUFA/Drivers/USB/Class/Device/../../HighLevel/../LowLevel/Endpoint.h **** 			
1004:../LUFA/Drivers/USB/Class/Device/../../HighLevel/../LowLevel/Endpoint.h **** 			/** Reads the given number of bytes from the endpoint from the given buffer in big endian,
1005:../LUFA/Drivers/USB/Class/Device/../../HighLevel/../LowLevel/Endpoint.h **** 			 *  discarding fully read packets from the host as needed. The last packet is not automatically
1006:../LUFA/Drivers/USB/Class/Device/../../HighLevel/../LowLevel/Endpoint.h **** 			 *  discarded once the remaining bytes has been read; the user is responsible for manually
1007:../LUFA/Drivers/USB/Class/Device/../../HighLevel/../LowLevel/Endpoint.h **** 			 *  discarding the last packet from the host via the \ref Endpoint_ClearOUT() macro. Between
1008:../LUFA/Drivers/USB/Class/Device/../../HighLevel/../LowLevel/Endpoint.h **** 			 *  each USB packet, the given stream callback function is executed repeatedly until the endpoin
1009:../LUFA/Drivers/USB/Class/Device/../../HighLevel/../LowLevel/Endpoint.h **** 			 *  is ready to accept the next packet, allowing for early aborts of stream transfers.
1010:../LUFA/Drivers/USB/Class/Device/../../HighLevel/../LowLevel/Endpoint.h **** 			 *
1011:../LUFA/Drivers/USB/Class/Device/../../HighLevel/../LowLevel/Endpoint.h **** 			 *	The callback routine should be created according to the information in \ref Group_StreamCallb
1012:../LUFA/Drivers/USB/Class/Device/../../HighLevel/../LowLevel/Endpoint.h **** 			 *  If the token NO_STREAM_CALLBACKS is passed via the -D option to the compiler, stream callbac
1013:../LUFA/Drivers/USB/Class/Device/../../HighLevel/../LowLevel/Endpoint.h **** 			 *  disabled and this function has the Callback parameter omitted.
1014:../LUFA/Drivers/USB/Class/Device/../../HighLevel/../LowLevel/Endpoint.h **** 			 *
1015:../LUFA/Drivers/USB/Class/Device/../../HighLevel/../LowLevel/Endpoint.h **** 			 *  \note This routine should not be used on CONTROL type endpoints.
1016:../LUFA/Drivers/USB/Class/Device/../../HighLevel/../LowLevel/Endpoint.h **** 			 *
1017:../LUFA/Drivers/USB/Class/Device/../../HighLevel/../LowLevel/Endpoint.h **** 			 *  \ingroup Group_EndpointStreamRW
1018:../LUFA/Drivers/USB/Class/Device/../../HighLevel/../LowLevel/Endpoint.h **** 			 *
1019:../LUFA/Drivers/USB/Class/Device/../../HighLevel/../LowLevel/Endpoint.h **** 			 *  \param[out] Buffer    Pointer to the destination data buffer to write to.
1020:../LUFA/Drivers/USB/Class/Device/../../HighLevel/../LowLevel/Endpoint.h **** 			 *  \param[in]  Length    Number of bytes to send via the currently selected endpoint.
1021:../LUFA/Drivers/USB/Class/Device/../../HighLevel/../LowLevel/Endpoint.h **** 			 *  \param[in]  Callback  Name of a callback routine to call between successive USB packet trans
1022:../LUFA/Drivers/USB/Class/Device/../../HighLevel/../LowLevel/Endpoint.h **** 			 *
1023:../LUFA/Drivers/USB/Class/Device/../../HighLevel/../LowLevel/Endpoint.h **** 			 *  \return A value from the \ref Endpoint_Stream_RW_ErrorCodes_t enum.
1024:../LUFA/Drivers/USB/Class/Device/../../HighLevel/../LowLevel/Endpoint.h **** 			 */
1025:../LUFA/Drivers/USB/Class/Device/../../HighLevel/../LowLevel/Endpoint.h **** 			uint8_t Endpoint_Read_Stream_BE(void* Buffer,
1026:../LUFA/Drivers/USB/Class/Device/../../HighLevel/../LowLevel/Endpoint.h **** 			                                uint16_t Length
1027:../LUFA/Drivers/USB/Class/Device/../../HighLevel/../LowLevel/Endpoint.h **** 			                                __CALLBACK_PARAM) ATTR_NON_NULL_PTR_ARG(1);
1028:../LUFA/Drivers/USB/Class/Device/../../HighLevel/../LowLevel/Endpoint.h **** 
1029:../LUFA/Drivers/USB/Class/Device/../../HighLevel/../LowLevel/Endpoint.h **** 			/** EEPROM buffer source version of \ref Endpoint_Read_Stream_BE().
1030:../LUFA/Drivers/USB/Class/Device/../../HighLevel/../LowLevel/Endpoint.h **** 			 *
1031:../LUFA/Drivers/USB/Class/Device/../../HighLevel/../LowLevel/Endpoint.h **** 			 *  \ingroup Group_EndpointStreamRW
1032:../LUFA/Drivers/USB/Class/Device/../../HighLevel/../LowLevel/Endpoint.h **** 			 *
1033:../LUFA/Drivers/USB/Class/Device/../../HighLevel/../LowLevel/Endpoint.h **** 			 *  \param[out] Buffer    Pointer to the destination data buffer to write to, located in EEPROM 
1034:../LUFA/Drivers/USB/Class/Device/../../HighLevel/../LowLevel/Endpoint.h **** 			 *  \param[in]  Length    Number of bytes to send via the currently selected endpoint.
1035:../LUFA/Drivers/USB/Class/Device/../../HighLevel/../LowLevel/Endpoint.h **** 			 *  \param[in]  Callback  Name of a callback routine to call between successive USB packet trans
1036:../LUFA/Drivers/USB/Class/Device/../../HighLevel/../LowLevel/Endpoint.h **** 			 *
1037:../LUFA/Drivers/USB/Class/Device/../../HighLevel/../LowLevel/Endpoint.h **** 			 *  \return A value from the \ref Endpoint_Stream_RW_ErrorCodes_t enum.
1038:../LUFA/Drivers/USB/Class/Device/../../HighLevel/../LowLevel/Endpoint.h **** 			 */
1039:../LUFA/Drivers/USB/Class/Device/../../HighLevel/../LowLevel/Endpoint.h **** 			uint8_t Endpoint_Read_EStream_BE(void* Buffer,
1040:../LUFA/Drivers/USB/Class/Device/../../HighLevel/../LowLevel/Endpoint.h **** 			                                 uint16_t Length
1041:../LUFA/Drivers/USB/Class/Device/../../HighLevel/../LowLevel/Endpoint.h **** 			                                 __CALLBACK_PARAM) ATTR_NON_NULL_PTR_ARG(1);
1042:../LUFA/Drivers/USB/Class/Device/../../HighLevel/../LowLevel/Endpoint.h **** 
1043:../LUFA/Drivers/USB/Class/Device/../../HighLevel/../LowLevel/Endpoint.h **** 			/** Writes the given number of bytes to the CONTROL type endpoint from the given buffer in littl
1044:../LUFA/Drivers/USB/Class/Device/../../HighLevel/../LowLevel/Endpoint.h **** 			 *  sending full packets to the host as needed. The host OUT acknowledgement is not automaticall
1045:../LUFA/Drivers/USB/Class/Device/../../HighLevel/../LowLevel/Endpoint.h **** 			 *  in both failure and success states; the user is responsible for manually clearing the setup 
1046:../LUFA/Drivers/USB/Class/Device/../../HighLevel/../LowLevel/Endpoint.h **** 			 *  finalize the transfer via the \ref Endpoint_ClearOUT() macro.
1047:../LUFA/Drivers/USB/Class/Device/../../HighLevel/../LowLevel/Endpoint.h **** 			 *
1048:../LUFA/Drivers/USB/Class/Device/../../HighLevel/../LowLevel/Endpoint.h **** 			 *  \note This function automatically clears the control transfer's status stage. Do not manuall
1049:../LUFA/Drivers/USB/Class/Device/../../HighLevel/../LowLevel/Endpoint.h **** 			 *        to clear the status stage when using this routine in a control transaction.
1050:../LUFA/Drivers/USB/Class/Device/../../HighLevel/../LowLevel/Endpoint.h **** 			 *        \n\n
1051:../LUFA/Drivers/USB/Class/Device/../../HighLevel/../LowLevel/Endpoint.h **** 			 *
1052:../LUFA/Drivers/USB/Class/Device/../../HighLevel/../LowLevel/Endpoint.h **** 			 *  \note This routine should only be used on CONTROL type endpoints.
1053:../LUFA/Drivers/USB/Class/Device/../../HighLevel/../LowLevel/Endpoint.h **** 			 *
1054:../LUFA/Drivers/USB/Class/Device/../../HighLevel/../LowLevel/Endpoint.h **** 			 *  \warning Unlike the standard stream read/write commands, the control stream commands cannot 
1055:../LUFA/Drivers/USB/Class/Device/../../HighLevel/../LowLevel/Endpoint.h **** 			 *           together; i.e. the entire stream data must be read or written at the one time.
1056:../LUFA/Drivers/USB/Class/Device/../../HighLevel/../LowLevel/Endpoint.h **** 			 *
1057:../LUFA/Drivers/USB/Class/Device/../../HighLevel/../LowLevel/Endpoint.h **** 			 *  \ingroup Group_EndpointStreamRW
1058:../LUFA/Drivers/USB/Class/Device/../../HighLevel/../LowLevel/Endpoint.h **** 			 *
1059:../LUFA/Drivers/USB/Class/Device/../../HighLevel/../LowLevel/Endpoint.h **** 			 *  \param[in] Buffer  Pointer to the source data buffer to read from.
1060:../LUFA/Drivers/USB/Class/Device/../../HighLevel/../LowLevel/Endpoint.h **** 			 *  \param[in] Length  Number of bytes to read for the currently selected endpoint into the buff
1061:../LUFA/Drivers/USB/Class/Device/../../HighLevel/../LowLevel/Endpoint.h **** 			 *
1062:../LUFA/Drivers/USB/Class/Device/../../HighLevel/../LowLevel/Endpoint.h **** 			 *  \return A value from the \ref Endpoint_ControlStream_RW_ErrorCodes_t enum.
1063:../LUFA/Drivers/USB/Class/Device/../../HighLevel/../LowLevel/Endpoint.h **** 			 */
1064:../LUFA/Drivers/USB/Class/Device/../../HighLevel/../LowLevel/Endpoint.h **** 			uint8_t Endpoint_Write_Control_Stream_LE(const void* Buffer,
1065:../LUFA/Drivers/USB/Class/Device/../../HighLevel/../LowLevel/Endpoint.h **** 			                                         uint16_t Length) ATTR_NON_NULL_PTR_ARG(1);
1066:../LUFA/Drivers/USB/Class/Device/../../HighLevel/../LowLevel/Endpoint.h **** 
1067:../LUFA/Drivers/USB/Class/Device/../../HighLevel/../LowLevel/Endpoint.h **** 			/** EEPROM buffer source version of Endpoint_Write_Control_Stream_LE.
1068:../LUFA/Drivers/USB/Class/Device/../../HighLevel/../LowLevel/Endpoint.h **** 			 *
1069:../LUFA/Drivers/USB/Class/Device/../../HighLevel/../LowLevel/Endpoint.h **** 			 *  \note This function automatically clears the control transfer's status stage. Do not manuall
1070:../LUFA/Drivers/USB/Class/Device/../../HighLevel/../LowLevel/Endpoint.h **** 			 *        to clear the status stage when using this routine in a control transaction.
1071:../LUFA/Drivers/USB/Class/Device/../../HighLevel/../LowLevel/Endpoint.h **** 			 *        \n\n
1072:../LUFA/Drivers/USB/Class/Device/../../HighLevel/../LowLevel/Endpoint.h **** 			 *
1073:../LUFA/Drivers/USB/Class/Device/../../HighLevel/../LowLevel/Endpoint.h **** 			 *  \note This routine should only be used on CONTROL type endpoints.
1074:../LUFA/Drivers/USB/Class/Device/../../HighLevel/../LowLevel/Endpoint.h **** 			 *
1075:../LUFA/Drivers/USB/Class/Device/../../HighLevel/../LowLevel/Endpoint.h **** 			 *  \warning Unlike the standard stream read/write commands, the control stream commands cannot 
1076:../LUFA/Drivers/USB/Class/Device/../../HighLevel/../LowLevel/Endpoint.h **** 			 *           together; i.e. the entire stream data must be read or written at the one time.
1077:../LUFA/Drivers/USB/Class/Device/../../HighLevel/../LowLevel/Endpoint.h **** 			 *
1078:../LUFA/Drivers/USB/Class/Device/../../HighLevel/../LowLevel/Endpoint.h **** 			 *  \ingroup Group_EndpointStreamRW
1079:../LUFA/Drivers/USB/Class/Device/../../HighLevel/../LowLevel/Endpoint.h **** 			 *
1080:../LUFA/Drivers/USB/Class/Device/../../HighLevel/../LowLevel/Endpoint.h **** 			 *  \param[in] Buffer  Pointer to the source data buffer to read from.
1081:../LUFA/Drivers/USB/Class/Device/../../HighLevel/../LowLevel/Endpoint.h **** 			 *  \param[in] Length  Number of bytes to read for the currently selected endpoint into the buff
1082:../LUFA/Drivers/USB/Class/Device/../../HighLevel/../LowLevel/Endpoint.h **** 			 *
1083:../LUFA/Drivers/USB/Class/Device/../../HighLevel/../LowLevel/Endpoint.h **** 			 *  \return A value from the \ref Endpoint_ControlStream_RW_ErrorCodes_t enum.
1084:../LUFA/Drivers/USB/Class/Device/../../HighLevel/../LowLevel/Endpoint.h **** 			 */
1085:../LUFA/Drivers/USB/Class/Device/../../HighLevel/../LowLevel/Endpoint.h **** 			uint8_t Endpoint_Write_Control_EStream_LE(const void* Buffer,
1086:../LUFA/Drivers/USB/Class/Device/../../HighLevel/../LowLevel/Endpoint.h **** 			                                          uint16_t Length) ATTR_NON_NULL_PTR_ARG(1);
1087:../LUFA/Drivers/USB/Class/Device/../../HighLevel/../LowLevel/Endpoint.h **** 
1088:../LUFA/Drivers/USB/Class/Device/../../HighLevel/../LowLevel/Endpoint.h **** 			/** FLASH buffer source version of \ref Endpoint_Write_Control_Stream_LE().
1089:../LUFA/Drivers/USB/Class/Device/../../HighLevel/../LowLevel/Endpoint.h **** 			 *
1090:../LUFA/Drivers/USB/Class/Device/../../HighLevel/../LowLevel/Endpoint.h **** 			 *  \pre The FLASH data must be located in the first 64KB of FLASH for this function to work cor
1091:../LUFA/Drivers/USB/Class/Device/../../HighLevel/../LowLevel/Endpoint.h **** 			 *
1092:../LUFA/Drivers/USB/Class/Device/../../HighLevel/../LowLevel/Endpoint.h **** 			 *  \note This function automatically clears the control transfer's status stage. Do not manuall
1093:../LUFA/Drivers/USB/Class/Device/../../HighLevel/../LowLevel/Endpoint.h **** 			 *        to clear the status stage when using this routine in a control transaction.
1094:../LUFA/Drivers/USB/Class/Device/../../HighLevel/../LowLevel/Endpoint.h **** 			 *        \n\n
1095:../LUFA/Drivers/USB/Class/Device/../../HighLevel/../LowLevel/Endpoint.h **** 			 *
1096:../LUFA/Drivers/USB/Class/Device/../../HighLevel/../LowLevel/Endpoint.h **** 			 *  \note This routine should only be used on CONTROL type endpoints.
1097:../LUFA/Drivers/USB/Class/Device/../../HighLevel/../LowLevel/Endpoint.h **** 			 *
1098:../LUFA/Drivers/USB/Class/Device/../../HighLevel/../LowLevel/Endpoint.h **** 			 *  \warning Unlike the standard stream read/write commands, the control stream commands cannot 
1099:../LUFA/Drivers/USB/Class/Device/../../HighLevel/../LowLevel/Endpoint.h **** 			 *           together; i.e. the entire stream data must be read or written at the one time.
1100:../LUFA/Drivers/USB/Class/Device/../../HighLevel/../LowLevel/Endpoint.h **** 			 *
1101:../LUFA/Drivers/USB/Class/Device/../../HighLevel/../LowLevel/Endpoint.h **** 			 *  \ingroup Group_EndpointStreamRW
1102:../LUFA/Drivers/USB/Class/Device/../../HighLevel/../LowLevel/Endpoint.h **** 			 *
1103:../LUFA/Drivers/USB/Class/Device/../../HighLevel/../LowLevel/Endpoint.h **** 			 *  \param[in] Buffer  Pointer to the source data buffer to read from.
1104:../LUFA/Drivers/USB/Class/Device/../../HighLevel/../LowLevel/Endpoint.h **** 			 *  \param[in] Length  Number of bytes to read for the currently selected endpoint into the buff
1105:../LUFA/Drivers/USB/Class/Device/../../HighLevel/../LowLevel/Endpoint.h **** 			 *
1106:../LUFA/Drivers/USB/Class/Device/../../HighLevel/../LowLevel/Endpoint.h **** 			 *  \return A value from the \ref Endpoint_ControlStream_RW_ErrorCodes_t enum.
1107:../LUFA/Drivers/USB/Class/Device/../../HighLevel/../LowLevel/Endpoint.h **** 			 */
1108:../LUFA/Drivers/USB/Class/Device/../../HighLevel/../LowLevel/Endpoint.h **** 			uint8_t Endpoint_Write_Control_PStream_LE(const void* Buffer,
1109:../LUFA/Drivers/USB/Class/Device/../../HighLevel/../LowLevel/Endpoint.h **** 			                                          uint16_t Length) ATTR_NON_NULL_PTR_ARG(1);
1110:../LUFA/Drivers/USB/Class/Device/../../HighLevel/../LowLevel/Endpoint.h **** 
1111:../LUFA/Drivers/USB/Class/Device/../../HighLevel/../LowLevel/Endpoint.h **** 			/** Writes the given number of bytes to the CONTROL type endpoint from the given buffer in big e
1112:../LUFA/Drivers/USB/Class/Device/../../HighLevel/../LowLevel/Endpoint.h **** 			 *  sending full packets to the host as needed. The host OUT acknowledgement is not automaticall
1113:../LUFA/Drivers/USB/Class/Device/../../HighLevel/../LowLevel/Endpoint.h **** 			 *  in both failure and success states; the user is responsible for manually clearing the setup 
1114:../LUFA/Drivers/USB/Class/Device/../../HighLevel/../LowLevel/Endpoint.h **** 			 *  finalize the transfer via the \ref Endpoint_ClearOUT() macro.
1115:../LUFA/Drivers/USB/Class/Device/../../HighLevel/../LowLevel/Endpoint.h **** 			 *
1116:../LUFA/Drivers/USB/Class/Device/../../HighLevel/../LowLevel/Endpoint.h **** 			 *  \note This function automatically clears the control transfer's status stage. Do not manuall
1117:../LUFA/Drivers/USB/Class/Device/../../HighLevel/../LowLevel/Endpoint.h **** 			 *        to clear the status stage when using this routine in a control transaction.
1118:../LUFA/Drivers/USB/Class/Device/../../HighLevel/../LowLevel/Endpoint.h **** 			 *        \n\n
1119:../LUFA/Drivers/USB/Class/Device/../../HighLevel/../LowLevel/Endpoint.h **** 			 *
1120:../LUFA/Drivers/USB/Class/Device/../../HighLevel/../LowLevel/Endpoint.h **** 			 *  \note This routine should only be used on CONTROL type endpoints.
1121:../LUFA/Drivers/USB/Class/Device/../../HighLevel/../LowLevel/Endpoint.h **** 			 *
1122:../LUFA/Drivers/USB/Class/Device/../../HighLevel/../LowLevel/Endpoint.h **** 			 *  \warning Unlike the standard stream read/write commands, the control stream commands cannot 
1123:../LUFA/Drivers/USB/Class/Device/../../HighLevel/../LowLevel/Endpoint.h **** 			 *           together; i.e. the entire stream data must be read or written at the one time.
1124:../LUFA/Drivers/USB/Class/Device/../../HighLevel/../LowLevel/Endpoint.h **** 			 *
1125:../LUFA/Drivers/USB/Class/Device/../../HighLevel/../LowLevel/Endpoint.h **** 			 *  \ingroup Group_EndpointStreamRW
1126:../LUFA/Drivers/USB/Class/Device/../../HighLevel/../LowLevel/Endpoint.h **** 			 *
1127:../LUFA/Drivers/USB/Class/Device/../../HighLevel/../LowLevel/Endpoint.h **** 			 *  \param[in] Buffer  Pointer to the source data buffer to read from.
1128:../LUFA/Drivers/USB/Class/Device/../../HighLevel/../LowLevel/Endpoint.h **** 			 *  \param[in] Length  Number of bytes to read for the currently selected endpoint into the buff
1129:../LUFA/Drivers/USB/Class/Device/../../HighLevel/../LowLevel/Endpoint.h **** 			 *
1130:../LUFA/Drivers/USB/Class/Device/../../HighLevel/../LowLevel/Endpoint.h **** 			 *  \return A value from the \ref Endpoint_ControlStream_RW_ErrorCodes_t enum.
1131:../LUFA/Drivers/USB/Class/Device/../../HighLevel/../LowLevel/Endpoint.h **** 			 */
1132:../LUFA/Drivers/USB/Class/Device/../../HighLevel/../LowLevel/Endpoint.h **** 			uint8_t Endpoint_Write_Control_Stream_BE(const void* Buffer,
1133:../LUFA/Drivers/USB/Class/Device/../../HighLevel/../LowLevel/Endpoint.h **** 			                                         uint16_t Length) ATTR_NON_NULL_PTR_ARG(1);
1134:../LUFA/Drivers/USB/Class/Device/../../HighLevel/../LowLevel/Endpoint.h **** 
1135:../LUFA/Drivers/USB/Class/Device/../../HighLevel/../LowLevel/Endpoint.h **** 			/** EEPROM buffer source version of \ref Endpoint_Write_Control_Stream_BE().
1136:../LUFA/Drivers/USB/Class/Device/../../HighLevel/../LowLevel/Endpoint.h **** 			 *
1137:../LUFA/Drivers/USB/Class/Device/../../HighLevel/../LowLevel/Endpoint.h **** 			 *  \note This function automatically clears the control transfer's status stage. Do not manuall
1138:../LUFA/Drivers/USB/Class/Device/../../HighLevel/../LowLevel/Endpoint.h **** 			 *        to clear the status stage when using this routine in a control transaction.
1139:../LUFA/Drivers/USB/Class/Device/../../HighLevel/../LowLevel/Endpoint.h **** 			 *        \n\n
1140:../LUFA/Drivers/USB/Class/Device/../../HighLevel/../LowLevel/Endpoint.h **** 			 *
1141:../LUFA/Drivers/USB/Class/Device/../../HighLevel/../LowLevel/Endpoint.h **** 			 *  \note This routine should only be used on CONTROL type endpoints.
1142:../LUFA/Drivers/USB/Class/Device/../../HighLevel/../LowLevel/Endpoint.h **** 			 *
1143:../LUFA/Drivers/USB/Class/Device/../../HighLevel/../LowLevel/Endpoint.h **** 			 *  \warning Unlike the standard stream read/write commands, the control stream commands cannot 
1144:../LUFA/Drivers/USB/Class/Device/../../HighLevel/../LowLevel/Endpoint.h **** 			 *           together; i.e. the entire stream data must be read or written at the one time.
1145:../LUFA/Drivers/USB/Class/Device/../../HighLevel/../LowLevel/Endpoint.h **** 			 *
1146:../LUFA/Drivers/USB/Class/Device/../../HighLevel/../LowLevel/Endpoint.h **** 			 *  \ingroup Group_EndpointStreamRW
1147:../LUFA/Drivers/USB/Class/Device/../../HighLevel/../LowLevel/Endpoint.h **** 			 *
1148:../LUFA/Drivers/USB/Class/Device/../../HighLevel/../LowLevel/Endpoint.h **** 			 *  \param[in] Buffer  Pointer to the source data buffer to read from.
1149:../LUFA/Drivers/USB/Class/Device/../../HighLevel/../LowLevel/Endpoint.h **** 			 *  \param[in] Length  Number of bytes to read for the currently selected endpoint into the buff
1150:../LUFA/Drivers/USB/Class/Device/../../HighLevel/../LowLevel/Endpoint.h **** 			 *
1151:../LUFA/Drivers/USB/Class/Device/../../HighLevel/../LowLevel/Endpoint.h **** 			 *  \return A value from the \ref Endpoint_ControlStream_RW_ErrorCodes_t enum.
1152:../LUFA/Drivers/USB/Class/Device/../../HighLevel/../LowLevel/Endpoint.h **** 			 */
1153:../LUFA/Drivers/USB/Class/Device/../../HighLevel/../LowLevel/Endpoint.h **** 			uint8_t Endpoint_Write_Control_EStream_BE(const void* Buffer,
1154:../LUFA/Drivers/USB/Class/Device/../../HighLevel/../LowLevel/Endpoint.h **** 			                                          uint16_t Length) ATTR_NON_NULL_PTR_ARG(1);
1155:../LUFA/Drivers/USB/Class/Device/../../HighLevel/../LowLevel/Endpoint.h **** 
1156:../LUFA/Drivers/USB/Class/Device/../../HighLevel/../LowLevel/Endpoint.h **** 			/** FLASH buffer source version of \ref Endpoint_Write_Control_Stream_BE().
1157:../LUFA/Drivers/USB/Class/Device/../../HighLevel/../LowLevel/Endpoint.h **** 			 *
1158:../LUFA/Drivers/USB/Class/Device/../../HighLevel/../LowLevel/Endpoint.h **** 			 *  \pre The FLASH data must be located in the first 64KB of FLASH for this function to work cor
1159:../LUFA/Drivers/USB/Class/Device/../../HighLevel/../LowLevel/Endpoint.h **** 			 *
1160:../LUFA/Drivers/USB/Class/Device/../../HighLevel/../LowLevel/Endpoint.h **** 			 *  \note This function automatically clears the control transfer's status stage. Do not manuall
1161:../LUFA/Drivers/USB/Class/Device/../../HighLevel/../LowLevel/Endpoint.h **** 			 *        to clear the status stage when using this routine in a control transaction.
1162:../LUFA/Drivers/USB/Class/Device/../../HighLevel/../LowLevel/Endpoint.h **** 			 *        \n\n
1163:../LUFA/Drivers/USB/Class/Device/../../HighLevel/../LowLevel/Endpoint.h **** 			 *
1164:../LUFA/Drivers/USB/Class/Device/../../HighLevel/../LowLevel/Endpoint.h **** 			 *  \note This routine should only be used on CONTROL type endpoints.
1165:../LUFA/Drivers/USB/Class/Device/../../HighLevel/../LowLevel/Endpoint.h **** 			 *
1166:../LUFA/Drivers/USB/Class/Device/../../HighLevel/../LowLevel/Endpoint.h **** 			 *  \warning Unlike the standard stream read/write commands, the control stream commands cannot 
1167:../LUFA/Drivers/USB/Class/Device/../../HighLevel/../LowLevel/Endpoint.h **** 			 *           together; i.e. the entire stream data must be read or written at the one time.
1168:../LUFA/Drivers/USB/Class/Device/../../HighLevel/../LowLevel/Endpoint.h **** 			 *
1169:../LUFA/Drivers/USB/Class/Device/../../HighLevel/../LowLevel/Endpoint.h **** 			 *  \ingroup Group_EndpointStreamRW
1170:../LUFA/Drivers/USB/Class/Device/../../HighLevel/../LowLevel/Endpoint.h **** 			 *
1171:../LUFA/Drivers/USB/Class/Device/../../HighLevel/../LowLevel/Endpoint.h **** 			 *  \param[in] Buffer  Pointer to the source data buffer to read from.
1172:../LUFA/Drivers/USB/Class/Device/../../HighLevel/../LowLevel/Endpoint.h **** 			 *  \param[in] Length  Number of bytes to read for the currently selected endpoint into the buff
1173:../LUFA/Drivers/USB/Class/Device/../../HighLevel/../LowLevel/Endpoint.h **** 			 *
1174:../LUFA/Drivers/USB/Class/Device/../../HighLevel/../LowLevel/Endpoint.h **** 			 *  \return A value from the \ref Endpoint_ControlStream_RW_ErrorCodes_t enum.
1175:../LUFA/Drivers/USB/Class/Device/../../HighLevel/../LowLevel/Endpoint.h **** 			 */
1176:../LUFA/Drivers/USB/Class/Device/../../HighLevel/../LowLevel/Endpoint.h **** 			uint8_t Endpoint_Write_Control_PStream_BE(const void* Buffer,
1177:../LUFA/Drivers/USB/Class/Device/../../HighLevel/../LowLevel/Endpoint.h **** 			                                          uint16_t Length) ATTR_NON_NULL_PTR_ARG(1);
1178:../LUFA/Drivers/USB/Class/Device/../../HighLevel/../LowLevel/Endpoint.h **** 
1179:../LUFA/Drivers/USB/Class/Device/../../HighLevel/../LowLevel/Endpoint.h **** 			/** Reads the given number of bytes from the CONTROL endpoint from the given buffer in little en
1180:../LUFA/Drivers/USB/Class/Device/../../HighLevel/../LowLevel/Endpoint.h **** 			 *  discarding fully read packets from the host as needed. The device IN acknowledgement is not
1181:../LUFA/Drivers/USB/Class/Device/../../HighLevel/../LowLevel/Endpoint.h **** 			 *  automatically sent after success or failure states; the user is responsible for manually sen
1182:../LUFA/Drivers/USB/Class/Device/../../HighLevel/../LowLevel/Endpoint.h **** 			 *  setup IN to finalize the transfer via the \ref Endpoint_ClearIN() macro.
1183:../LUFA/Drivers/USB/Class/Device/../../HighLevel/../LowLevel/Endpoint.h **** 			 *
1184:../LUFA/Drivers/USB/Class/Device/../../HighLevel/../LowLevel/Endpoint.h **** 			 *  \note This function automatically clears the control transfer's status stage. Do not manuall
1185:../LUFA/Drivers/USB/Class/Device/../../HighLevel/../LowLevel/Endpoint.h **** 			 *        to clear the status stage when using this routine in a control transaction.
1186:../LUFA/Drivers/USB/Class/Device/../../HighLevel/../LowLevel/Endpoint.h **** 			 *        \n\n
1187:../LUFA/Drivers/USB/Class/Device/../../HighLevel/../LowLevel/Endpoint.h **** 			 *
1188:../LUFA/Drivers/USB/Class/Device/../../HighLevel/../LowLevel/Endpoint.h **** 			 *  \note This routine should only be used on CONTROL type endpoints.
1189:../LUFA/Drivers/USB/Class/Device/../../HighLevel/../LowLevel/Endpoint.h **** 			 *
1190:../LUFA/Drivers/USB/Class/Device/../../HighLevel/../LowLevel/Endpoint.h **** 			 *  \warning Unlike the standard stream read/write commands, the control stream commands cannot 
1191:../LUFA/Drivers/USB/Class/Device/../../HighLevel/../LowLevel/Endpoint.h **** 			 *           together; i.e. the entire stream data must be read or written at the one time.
1192:../LUFA/Drivers/USB/Class/Device/../../HighLevel/../LowLevel/Endpoint.h **** 			 *
1193:../LUFA/Drivers/USB/Class/Device/../../HighLevel/../LowLevel/Endpoint.h **** 			 *  \ingroup Group_EndpointStreamRW
1194:../LUFA/Drivers/USB/Class/Device/../../HighLevel/../LowLevel/Endpoint.h **** 			 *
1195:../LUFA/Drivers/USB/Class/Device/../../HighLevel/../LowLevel/Endpoint.h **** 			 *  \param[out] Buffer  Pointer to the destination data buffer to write to.
1196:../LUFA/Drivers/USB/Class/Device/../../HighLevel/../LowLevel/Endpoint.h **** 			 *  \param[in]  Length  Number of bytes to send via the currently selected endpoint.
1197:../LUFA/Drivers/USB/Class/Device/../../HighLevel/../LowLevel/Endpoint.h **** 			 *
1198:../LUFA/Drivers/USB/Class/Device/../../HighLevel/../LowLevel/Endpoint.h **** 			 *  \return A value from the \ref Endpoint_ControlStream_RW_ErrorCodes_t enum.
1199:../LUFA/Drivers/USB/Class/Device/../../HighLevel/../LowLevel/Endpoint.h **** 			 */
1200:../LUFA/Drivers/USB/Class/Device/../../HighLevel/../LowLevel/Endpoint.h **** 			uint8_t Endpoint_Read_Control_Stream_LE(void* Buffer,
1201:../LUFA/Drivers/USB/Class/Device/../../HighLevel/../LowLevel/Endpoint.h **** 			                                        uint16_t Length) ATTR_NON_NULL_PTR_ARG(1);
1202:../LUFA/Drivers/USB/Class/Device/../../HighLevel/../LowLevel/Endpoint.h **** 
1203:../LUFA/Drivers/USB/Class/Device/../../HighLevel/../LowLevel/Endpoint.h **** 			/** EEPROM buffer source version of \ref Endpoint_Read_Control_Stream_LE().
1204:../LUFA/Drivers/USB/Class/Device/../../HighLevel/../LowLevel/Endpoint.h **** 			 *
1205:../LUFA/Drivers/USB/Class/Device/../../HighLevel/../LowLevel/Endpoint.h **** 			 *  \note This function automatically clears the control transfer's status stage. Do not manuall
1206:../LUFA/Drivers/USB/Class/Device/../../HighLevel/../LowLevel/Endpoint.h **** 			 *        to clear the status stage when using this routine in a control transaction.
1207:../LUFA/Drivers/USB/Class/Device/../../HighLevel/../LowLevel/Endpoint.h **** 			 *        \n\n
1208:../LUFA/Drivers/USB/Class/Device/../../HighLevel/../LowLevel/Endpoint.h **** 			 *
1209:../LUFA/Drivers/USB/Class/Device/../../HighLevel/../LowLevel/Endpoint.h **** 			 *  \note This routine should only be used on CONTROL type endpoints.
1210:../LUFA/Drivers/USB/Class/Device/../../HighLevel/../LowLevel/Endpoint.h **** 			 *
1211:../LUFA/Drivers/USB/Class/Device/../../HighLevel/../LowLevel/Endpoint.h **** 			 *  \warning Unlike the standard stream read/write commands, the control stream commands cannot 
1212:../LUFA/Drivers/USB/Class/Device/../../HighLevel/../LowLevel/Endpoint.h **** 			 *           together; i.e. the entire stream data must be read or written at the one time.
1213:../LUFA/Drivers/USB/Class/Device/../../HighLevel/../LowLevel/Endpoint.h **** 			 *
1214:../LUFA/Drivers/USB/Class/Device/../../HighLevel/../LowLevel/Endpoint.h **** 			 *  \ingroup Group_EndpointStreamRW
1215:../LUFA/Drivers/USB/Class/Device/../../HighLevel/../LowLevel/Endpoint.h **** 			 *
1216:../LUFA/Drivers/USB/Class/Device/../../HighLevel/../LowLevel/Endpoint.h **** 			 *  \param[out] Buffer  Pointer to the destination data buffer to write to.
1217:../LUFA/Drivers/USB/Class/Device/../../HighLevel/../LowLevel/Endpoint.h **** 			 *  \param[in]  Length  Number of bytes to send via the currently selected endpoint.
1218:../LUFA/Drivers/USB/Class/Device/../../HighLevel/../LowLevel/Endpoint.h **** 			 *
1219:../LUFA/Drivers/USB/Class/Device/../../HighLevel/../LowLevel/Endpoint.h **** 			 *  \return A value from the \ref Endpoint_ControlStream_RW_ErrorCodes_t enum.
1220:../LUFA/Drivers/USB/Class/Device/../../HighLevel/../LowLevel/Endpoint.h **** 			 */
1221:../LUFA/Drivers/USB/Class/Device/../../HighLevel/../LowLevel/Endpoint.h **** 			uint8_t Endpoint_Read_Control_EStream_LE(void* Buffer,
1222:../LUFA/Drivers/USB/Class/Device/../../HighLevel/../LowLevel/Endpoint.h **** 			                                         uint16_t Length) ATTR_NON_NULL_PTR_ARG(1);
1223:../LUFA/Drivers/USB/Class/Device/../../HighLevel/../LowLevel/Endpoint.h **** 
1224:../LUFA/Drivers/USB/Class/Device/../../HighLevel/../LowLevel/Endpoint.h **** 			/** Reads the given number of bytes from the CONTROL endpoint from the given buffer in big endia
1225:../LUFA/Drivers/USB/Class/Device/../../HighLevel/../LowLevel/Endpoint.h **** 			 *  discarding fully read packets from the host as needed. The device IN acknowledgement is not
1226:../LUFA/Drivers/USB/Class/Device/../../HighLevel/../LowLevel/Endpoint.h **** 			 *  automatically sent after success or failure states; the user is responsible for manually sen
1227:../LUFA/Drivers/USB/Class/Device/../../HighLevel/../LowLevel/Endpoint.h **** 			 *  setup IN to finalize the transfer via the \ref Endpoint_ClearIN() macro.
1228:../LUFA/Drivers/USB/Class/Device/../../HighLevel/../LowLevel/Endpoint.h **** 			 *
1229:../LUFA/Drivers/USB/Class/Device/../../HighLevel/../LowLevel/Endpoint.h **** 			 *  \note This function automatically clears the control transfer's status stage. Do not manuall
1230:../LUFA/Drivers/USB/Class/Device/../../HighLevel/../LowLevel/Endpoint.h **** 			 *        to clear the status stage when using this routine in a control transaction.
1231:../LUFA/Drivers/USB/Class/Device/../../HighLevel/../LowLevel/Endpoint.h **** 			 *        \n\n
1232:../LUFA/Drivers/USB/Class/Device/../../HighLevel/../LowLevel/Endpoint.h **** 			 *
1233:../LUFA/Drivers/USB/Class/Device/../../HighLevel/../LowLevel/Endpoint.h **** 			 *  \note This routine should only be used on CONTROL type endpoints.
1234:../LUFA/Drivers/USB/Class/Device/../../HighLevel/../LowLevel/Endpoint.h **** 			 *
1235:../LUFA/Drivers/USB/Class/Device/../../HighLevel/../LowLevel/Endpoint.h **** 			 *  \warning Unlike the standard stream read/write commands, the control stream commands cannot 
1236:../LUFA/Drivers/USB/Class/Device/../../HighLevel/../LowLevel/Endpoint.h **** 			 *           together; i.e. the entire stream data must be read or written at the one time.
1237:../LUFA/Drivers/USB/Class/Device/../../HighLevel/../LowLevel/Endpoint.h **** 			 *
1238:../LUFA/Drivers/USB/Class/Device/../../HighLevel/../LowLevel/Endpoint.h **** 			 *  \ingroup Group_EndpointStreamRW
1239:../LUFA/Drivers/USB/Class/Device/../../HighLevel/../LowLevel/Endpoint.h **** 			 *
1240:../LUFA/Drivers/USB/Class/Device/../../HighLevel/../LowLevel/Endpoint.h **** 			 *  \param[out] Buffer  Pointer to the destination data buffer to write to.
1241:../LUFA/Drivers/USB/Class/Device/../../HighLevel/../LowLevel/Endpoint.h **** 			 *  \param[in]  Length  Number of bytes to send via the currently selected endpoint.
1242:../LUFA/Drivers/USB/Class/Device/../../HighLevel/../LowLevel/Endpoint.h **** 			 *
1243:../LUFA/Drivers/USB/Class/Device/../../HighLevel/../LowLevel/Endpoint.h **** 			 *  \return A value from the \ref Endpoint_ControlStream_RW_ErrorCodes_t enum.
1244:../LUFA/Drivers/USB/Class/Device/../../HighLevel/../LowLevel/Endpoint.h **** 			 */
1245:../LUFA/Drivers/USB/Class/Device/../../HighLevel/../LowLevel/Endpoint.h **** 			uint8_t Endpoint_Read_Control_Stream_BE(void* Buffer,
1246:../LUFA/Drivers/USB/Class/Device/../../HighLevel/../LowLevel/Endpoint.h **** 			                                        uint16_t Length) ATTR_NON_NULL_PTR_ARG(1);
1247:../LUFA/Drivers/USB/Class/Device/../../HighLevel/../LowLevel/Endpoint.h **** 			
1248:../LUFA/Drivers/USB/Class/Device/../../HighLevel/../LowLevel/Endpoint.h **** 			/** EEPROM buffer source version of \ref Endpoint_Read_Control_Stream_BE().
1249:../LUFA/Drivers/USB/Class/Device/../../HighLevel/../LowLevel/Endpoint.h **** 			 *
1250:../LUFA/Drivers/USB/Class/Device/../../HighLevel/../LowLevel/Endpoint.h **** 			 *  \note This function automatically clears the control transfer's status stage. Do not manuall
1251:../LUFA/Drivers/USB/Class/Device/../../HighLevel/../LowLevel/Endpoint.h **** 			 *        to clear the status stage when using this routine in a control transaction.
1252:../LUFA/Drivers/USB/Class/Device/../../HighLevel/../LowLevel/Endpoint.h **** 			 *        \n\n
1253:../LUFA/Drivers/USB/Class/Device/../../HighLevel/../LowLevel/Endpoint.h **** 			 *
1254:../LUFA/Drivers/USB/Class/Device/../../HighLevel/../LowLevel/Endpoint.h **** 			 *  \note This routine should only be used on CONTROL type endpoints.
1255:../LUFA/Drivers/USB/Class/Device/../../HighLevel/../LowLevel/Endpoint.h **** 			 *
1256:../LUFA/Drivers/USB/Class/Device/../../HighLevel/../LowLevel/Endpoint.h **** 			 *  \warning Unlike the standard stream read/write commands, the control stream commands cannot 
1257:../LUFA/Drivers/USB/Class/Device/../../HighLevel/../LowLevel/Endpoint.h **** 			 *           together; i.e. the entire stream data must be read or written at the one time.
1258:../LUFA/Drivers/USB/Class/Device/../../HighLevel/../LowLevel/Endpoint.h **** 			 *
1259:../LUFA/Drivers/USB/Class/Device/../../HighLevel/../LowLevel/Endpoint.h **** 			 *  \ingroup Group_EndpointStreamRW
1260:../LUFA/Drivers/USB/Class/Device/../../HighLevel/../LowLevel/Endpoint.h **** 			 *
1261:../LUFA/Drivers/USB/Class/Device/../../HighLevel/../LowLevel/Endpoint.h **** 			 *  \param[out] Buffer  Pointer to the destination data buffer to write to.
1262:../LUFA/Drivers/USB/Class/Device/../../HighLevel/../LowLevel/Endpoint.h **** 			 *  \param[in]  Length  Number of bytes to send via the currently selected endpoint.
1263:../LUFA/Drivers/USB/Class/Device/../../HighLevel/../LowLevel/Endpoint.h **** 			 *
1264:../LUFA/Drivers/USB/Class/Device/../../HighLevel/../LowLevel/Endpoint.h **** 			 *  \return A value from the \ref Endpoint_ControlStream_RW_ErrorCodes_t enum.
1265:../LUFA/Drivers/USB/Class/Device/../../HighLevel/../LowLevel/Endpoint.h **** 			 */
1266:../LUFA/Drivers/USB/Class/Device/../../HighLevel/../LowLevel/Endpoint.h **** 			uint8_t Endpoint_Read_Control_EStream_BE(void* Buffer,
1267:../LUFA/Drivers/USB/Class/Device/../../HighLevel/../LowLevel/Endpoint.h **** 			                                         uint16_t Length) ATTR_NON_NULL_PTR_ARG(1);
1268:../LUFA/Drivers/USB/Class/Device/../../HighLevel/../LowLevel/Endpoint.h **** 
1269:../LUFA/Drivers/USB/Class/Device/../../HighLevel/../LowLevel/Endpoint.h **** 	/* Private Interface - For use in library only: */
1270:../LUFA/Drivers/USB/Class/Device/../../HighLevel/../LowLevel/Endpoint.h **** 	#if !defined(__DOXYGEN__)
1271:../LUFA/Drivers/USB/Class/Device/../../HighLevel/../LowLevel/Endpoint.h **** 		/* Macros: */
1272:../LUFA/Drivers/USB/Class/Device/../../HighLevel/../LowLevel/Endpoint.h **** 			#define _ENDPOINT_GET_MAXSIZE(n)               _ENDPOINT_GET_MAXSIZE2(ENDPOINT_DETAILS_EP ## n)
1273:../LUFA/Drivers/USB/Class/Device/../../HighLevel/../LowLevel/Endpoint.h **** 			#define _ENDPOINT_GET_MAXSIZE2(details)        _ENDPOINT_GET_MAXSIZE3(details)
1274:../LUFA/Drivers/USB/Class/Device/../../HighLevel/../LowLevel/Endpoint.h **** 			#define _ENDPOINT_GET_MAXSIZE3(maxsize, db)    maxsize
1275:../LUFA/Drivers/USB/Class/Device/../../HighLevel/../LowLevel/Endpoint.h **** 
1276:../LUFA/Drivers/USB/Class/Device/../../HighLevel/../LowLevel/Endpoint.h **** 			#define _ENDPOINT_GET_DOUBLEBANK(n)            _ENDPOINT_GET_DOUBLEBANK2(ENDPOINT_DETAILS_EP ## 
1277:../LUFA/Drivers/USB/Class/Device/../../HighLevel/../LowLevel/Endpoint.h **** 			#define _ENDPOINT_GET_DOUBLEBANK2(details)     _ENDPOINT_GET_DOUBLEBANK3(details)
1278:../LUFA/Drivers/USB/Class/Device/../../HighLevel/../LowLevel/Endpoint.h **** 			#define _ENDPOINT_GET_DOUBLEBANK3(maxsize, db) db
1279:../LUFA/Drivers/USB/Class/Device/../../HighLevel/../LowLevel/Endpoint.h **** 			
1280:../LUFA/Drivers/USB/Class/Device/../../HighLevel/../LowLevel/Endpoint.h **** 			#if defined(USB_SERIES_4_AVR) || defined(USB_SERIES_6_AVR) || defined(USB_SERIES_7_AVR)
1281:../LUFA/Drivers/USB/Class/Device/../../HighLevel/../LowLevel/Endpoint.h **** 				#define ENDPOINT_DETAILS_EP0               64,  true
1282:../LUFA/Drivers/USB/Class/Device/../../HighLevel/../LowLevel/Endpoint.h **** 				#define ENDPOINT_DETAILS_EP1               256, true
1283:../LUFA/Drivers/USB/Class/Device/../../HighLevel/../LowLevel/Endpoint.h **** 				#define ENDPOINT_DETAILS_EP2               64,  true
1284:../LUFA/Drivers/USB/Class/Device/../../HighLevel/../LowLevel/Endpoint.h **** 				#define ENDPOINT_DETAILS_EP3               64,  true
1285:../LUFA/Drivers/USB/Class/Device/../../HighLevel/../LowLevel/Endpoint.h **** 				#define ENDPOINT_DETAILS_EP4               64,  true
1286:../LUFA/Drivers/USB/Class/Device/../../HighLevel/../LowLevel/Endpoint.h **** 				#define ENDPOINT_DETAILS_EP5               64,  true
1287:../LUFA/Drivers/USB/Class/Device/../../HighLevel/../LowLevel/Endpoint.h **** 				#define ENDPOINT_DETAILS_EP6               64,  true
1288:../LUFA/Drivers/USB/Class/Device/../../HighLevel/../LowLevel/Endpoint.h **** 			#else
1289:../LUFA/Drivers/USB/Class/Device/../../HighLevel/../LowLevel/Endpoint.h **** 				#define ENDPOINT_DETAILS_EP0               64,  true
1290:../LUFA/Drivers/USB/Class/Device/../../HighLevel/../LowLevel/Endpoint.h **** 				#define ENDPOINT_DETAILS_EP1               64,  false
1291:../LUFA/Drivers/USB/Class/Device/../../HighLevel/../LowLevel/Endpoint.h **** 				#define ENDPOINT_DETAILS_EP2               64,  false
1292:../LUFA/Drivers/USB/Class/Device/../../HighLevel/../LowLevel/Endpoint.h **** 				#define ENDPOINT_DETAILS_EP3               64,  true
1293:../LUFA/Drivers/USB/Class/Device/../../HighLevel/../LowLevel/Endpoint.h **** 				#define ENDPOINT_DETAILS_EP4               64,  true			
1294:../LUFA/Drivers/USB/Class/Device/../../HighLevel/../LowLevel/Endpoint.h **** 			#endif
1295:../LUFA/Drivers/USB/Class/Device/../../HighLevel/../LowLevel/Endpoint.h **** 
1296:../LUFA/Drivers/USB/Class/Device/../../HighLevel/../LowLevel/Endpoint.h **** 			#define Endpoint_ConfigureEndpoint(Number, Type, Direction, Size, Banks)                        
1297:../LUFA/Drivers/USB/Class/Device/../../HighLevel/../LowLevel/Endpoint.h **** 			                     (__builtin_constant_p(Size) ? Endpoint_ConfigureEndpointStatic((Number),   
1298:../LUFA/Drivers/USB/Class/Device/../../HighLevel/../LowLevel/Endpoint.h **** 			                                                                                    (Type),     
1299:../LUFA/Drivers/USB/Class/Device/../../HighLevel/../LowLevel/Endpoint.h **** 			                                                                                    (Direction),
1300:../LUFA/Drivers/USB/Class/Device/../../HighLevel/../LowLevel/Endpoint.h **** 			                                                                                    Size, Banks)
1301:../LUFA/Drivers/USB/Class/Device/../../HighLevel/../LowLevel/Endpoint.h **** 			                                                   Endpoint_ConfigureEndpointDynamic((Number),  
1302:../LUFA/Drivers/USB/Class/Device/../../HighLevel/../LowLevel/Endpoint.h **** 			                                                                                     (Type),    
1303:../LUFA/Drivers/USB/Class/Device/../../HighLevel/../LowLevel/Endpoint.h **** 			                                                                                     (Direction)
1304:../LUFA/Drivers/USB/Class/Device/../../HighLevel/../LowLevel/Endpoint.h **** 			                                                                                     Size, Banks
1305:../LUFA/Drivers/USB/Class/Device/../../HighLevel/../LowLevel/Endpoint.h **** 
1306:../LUFA/Drivers/USB/Class/Device/../../HighLevel/../LowLevel/Endpoint.h **** 		/* Function Prototypes: */
1307:../LUFA/Drivers/USB/Class/Device/../../HighLevel/../LowLevel/Endpoint.h **** 			void    Endpoint_ClearEndpoints(void);
1308:../LUFA/Drivers/USB/Class/Device/../../HighLevel/../LowLevel/Endpoint.h **** 			uint8_t Endpoint_BytesToEPSizeMaskDynamic(const uint16_t Size);
1309:../LUFA/Drivers/USB/Class/Device/../../HighLevel/../LowLevel/Endpoint.h **** 			bool    Endpoint_ConfigureEndpoint_Prv(const uint8_t Number,
1310:../LUFA/Drivers/USB/Class/Device/../../HighLevel/../LowLevel/Endpoint.h **** 			                                       const uint8_t UECFG0XData,
1311:../LUFA/Drivers/USB/Class/Device/../../HighLevel/../LowLevel/Endpoint.h **** 			                                       const uint8_t UECFG1XData);			
1312:../LUFA/Drivers/USB/Class/Device/../../HighLevel/../LowLevel/Endpoint.h **** 
1313:../LUFA/Drivers/USB/Class/Device/../../HighLevel/../LowLevel/Endpoint.h **** 		/* Inline Functions: */
1314:../LUFA/Drivers/USB/Class/Device/../../HighLevel/../LowLevel/Endpoint.h **** 			static inline uint8_t Endpoint_BytesToEPSizeMask(const uint16_t Bytes) ATTR_WARN_UNUSED_RESULT A
1315:../LUFA/Drivers/USB/Class/Device/../../HighLevel/../LowLevel/Endpoint.h **** 			static inline uint8_t Endpoint_BytesToEPSizeMask(const uint16_t Bytes)
1316:../LUFA/Drivers/USB/Class/Device/../../HighLevel/../LowLevel/Endpoint.h **** 			{
1317:../LUFA/Drivers/USB/Class/Device/../../HighLevel/../LowLevel/Endpoint.h **** 				uint8_t  MaskVal    = 0;
1318:../LUFA/Drivers/USB/Class/Device/../../HighLevel/../LowLevel/Endpoint.h **** 				uint16_t CheckBytes = 8;
1319:../LUFA/Drivers/USB/Class/Device/../../HighLevel/../LowLevel/Endpoint.h **** 				
1320:../LUFA/Drivers/USB/Class/Device/../../HighLevel/../LowLevel/Endpoint.h **** 				while (CheckBytes < Bytes)
1321:../LUFA/Drivers/USB/Class/Device/../../HighLevel/../LowLevel/Endpoint.h **** 				{
1322:../LUFA/Drivers/USB/Class/Device/../../HighLevel/../LowLevel/Endpoint.h **** 					MaskVal++;
1323:../LUFA/Drivers/USB/Class/Device/../../HighLevel/../LowLevel/Endpoint.h **** 					CheckBytes <<= 1;
1324:../LUFA/Drivers/USB/Class/Device/../../HighLevel/../LowLevel/Endpoint.h **** 				}
1325:../LUFA/Drivers/USB/Class/Device/../../HighLevel/../LowLevel/Endpoint.h **** 				
1326:../LUFA/Drivers/USB/Class/Device/../../HighLevel/../LowLevel/Endpoint.h **** 				return (MaskVal << EPSIZE0);
1327:../LUFA/Drivers/USB/Class/Device/../../HighLevel/../LowLevel/Endpoint.h **** 			}
1328:../LUFA/Drivers/USB/Class/Device/../../HighLevel/../LowLevel/Endpoint.h **** 			
1329:../LUFA/Drivers/USB/Class/Device/../../HighLevel/../LowLevel/Endpoint.h **** 			static inline bool Endpoint_ConfigureEndpointStatic(const uint8_t Number,
1330:../LUFA/Drivers/USB/Class/Device/../../HighLevel/../LowLevel/Endpoint.h **** 			                                                    const uint8_t Type,
1331:../LUFA/Drivers/USB/Class/Device/../../HighLevel/../LowLevel/Endpoint.h **** 			                                                    const uint8_t Direction,
1332:../LUFA/Drivers/USB/Class/Device/../../HighLevel/../LowLevel/Endpoint.h **** 			                                                    const uint16_t Size,
1333:../LUFA/Drivers/USB/Class/Device/../../HighLevel/../LowLevel/Endpoint.h **** 			                                                    const uint8_t Banks)
1334:../LUFA/Drivers/USB/Class/Device/../../HighLevel/../LowLevel/Endpoint.h **** 			{
1335:../LUFA/Drivers/USB/Class/Device/../../HighLevel/../LowLevel/Endpoint.h **** 				return Endpoint_ConfigureEndpoint_Prv(Number, (((Type) << EPTYPE0) | (Direction)),
1336:../LUFA/Drivers/USB/Class/Device/../../HighLevel/../LowLevel/Endpoint.h **** 				                                      ((1 << ALLOC) | Banks | Endpoint_BytesToEPSizeMask(Size))
1337:../LUFA/Drivers/USB/Class/Device/../../HighLevel/../LowLevel/Endpoint.h **** 			}
1338:../LUFA/Drivers/USB/Class/Device/../../HighLevel/../LowLevel/Endpoint.h **** 
1339:../LUFA/Drivers/USB/Class/Device/../../HighLevel/../LowLevel/Endpoint.h **** 			static inline bool Endpoint_ConfigureEndpointDynamic(const uint8_t Number,
1340:../LUFA/Drivers/USB/Class/Device/../../HighLevel/../LowLevel/Endpoint.h **** 			                                                     const uint8_t Type,
1341:../LUFA/Drivers/USB/Class/Device/../../HighLevel/../LowLevel/Endpoint.h **** 			                                                     const uint8_t Direction,
1342:../LUFA/Drivers/USB/Class/Device/../../HighLevel/../LowLevel/Endpoint.h **** 			                                                     const uint16_t Size,
1343:../LUFA/Drivers/USB/Class/Device/../../HighLevel/../LowLevel/Endpoint.h **** 			                                                     const uint8_t Banks)
1344:../LUFA/Drivers/USB/Class/Device/../../HighLevel/../LowLevel/Endpoint.h **** 			{
1345:../LUFA/Drivers/USB/Class/Device/../../HighLevel/../LowLevel/Endpoint.h **** 				return Endpoint_ConfigureEndpoint_Prv(Number, (((Type) << EPTYPE0) | (Direction)),
1346:../LUFA/Drivers/USB/Class/Device/../../HighLevel/../LowLevel/Endpoint.h **** 				                                      ((1 << ALLOC) | Banks | Endpoint_BytesToEPSizeMaskDynamic
 942               		.loc 2 1346 0 is_stmt 1 discriminator 11
 943 0030 0E94 0000 		call Endpoint_BytesToEPSizeMaskDynamic
 944               	.LVL67:
1345:../LUFA/Drivers/USB/Class/Device/../../HighLevel/../LowLevel/Endpoint.h **** 				                                      ((1 << ALLOC) | Banks | Endpoint_BytesToEPSizeMaskDynamic
 945               		.loc 2 1345 0 discriminator 11
 946 0034 812B      		or r24,r17
 947 0036 482F      		mov r20,r24
 948 0038 4260      		ori r20,lo8(2)
 949 003a 61E8      		ldi r22,lo8(-127)
 950 003c 802F      		mov r24,r16
 951 003e 0E94 0000 		call Endpoint_ConfigureEndpoint_Prv
 952               	.LVL68:
 953               	.LBE98:
 954               	.LBE97:
