	.file	"dualMoco.c"
__SP_H__ = 0x3e
__SP_L__ = 0x3d
__SREG__ = 0x3f
__tmp_reg__ = 0
__zero_reg__ = 1
	.text
.Ltext0:
	.cfi_sections	.debug_frame
	.section	.text.RingBuffer_Insert,"ax",@progbits
	.type	RingBuffer_Insert, @function
RingBuffer_Insert:
.LFB77:
	.file 1 "Lib/LightweightRingBuff.h"
	.loc 1 160 0
	.cfi_startproc
.LVL0:
/* prologue: function */
/* frame size = 0 */
/* stack size = 0 */
.L__stack_usage = 0
	.loc 1 161 0
	movw r30,r24
	subi r30,-128
	sbci r31,-1
	ld r26,Z
	ldd r27,Z+1
	st X,r22
	.loc 1 163 0
	ld r26,Z
	ldd r27,Z+1
	movw r18,r26
	subi r18,-1
	sbci r19,-1
	std Z+1,r19
	st Z,r18
	cp r18,r30
	cpc r19,r31
	brne .L2
	.loc 1 164 0
	adiw r26,1+1
	st X,r25
	st -X,r24
	sbiw r26,1
.L2:
.LBB41:
	.loc 1 166 0
	in r18,__SREG__
.LVL1:
.LBB42:
.LBB43:
	.file 2 "/usr/lib/avr/include/util/atomic.h"
	.loc 2 50 0
/* #APP */
 ;  50 "/usr/lib/avr/include/util/atomic.h" 1
	cli
 ;  0 "" 2
.LVL2:
/* #NOAPP */
.LBE43:
.LBE42:
	.loc 1 168 0
	movw r30,r24
	subi r30,124
	sbci r31,-1
	ld r24,Z
.LVL3:
	subi r24,lo8(-(1))
	st Z,r24
.LVL4:
.LBB44:
.LBB45:
	.loc 2 70 0
	out __SREG__,r18
	.loc 2 71 0
.LVL5:
	ret
.LBE45:
.LBE44:
.LBE41:
	.cfi_endproc
.LFE77:
	.size	RingBuffer_Insert, .-RingBuffer_Insert
	.section	.text.RingBuffer_Remove,"ax",@progbits
	.type	RingBuffer_Remove, @function
RingBuffer_Remove:
.LFB78:
	.loc 1 183 0
	.cfi_startproc
.LVL6:
/* prologue: function */
/* frame size = 0 */
/* stack size = 0 */
.L__stack_usage = 0
	.loc 1 184 0
	movw r26,r24
	subi r26,126
	sbci r27,-1
	ld r30,X+
	ld r31,X
	sbiw r26,1
	ld r18,Z+
.LVL7:
	.loc 1 186 0
	adiw r26,1
	st X,r31
	st -X,r30
	movw r20,r24
	subi r20,-128
	sbci r21,-1
	cp r30,r20
	cpc r31,r21
	brne .L5
	.loc 1 187 0
	st X+,r24
	st X,r25
.L5:
.LBB46:
	.loc 1 189 0
	in r19,__SREG__
.LVL8:
.LBB47:
.LBB48:
	.loc 2 50 0
/* #APP */
 ;  50 "/usr/lib/avr/include/util/atomic.h" 1
	cli
 ;  0 "" 2
.LVL9:
/* #NOAPP */
.LBE48:
.LBE47:
	.loc 1 191 0
	movw r30,r24
	subi r30,124
	sbci r31,-1
	ld r25,Z
	subi r25,lo8(-(-1))
	st Z,r25
.LVL10:
.LBB49:
.LBB50:
	.loc 2 70 0
	out __SREG__,r19
	.loc 2 71 0
.LVL11:
.LBE50:
.LBE49:
.LBE46:
	.loc 1 195 0
	mov r24,r18
.LVL12:
	ret
	.cfi_endproc
.LFE78:
	.size	RingBuffer_Remove, .-RingBuffer_Remove
	.section	.text.parseUSBMidiMessage,"ax",@progbits
.global	parseUSBMidiMessage
	.type	parseUSBMidiMessage, @function
parseUSBMidiMessage:
.LFB91:
	.file 3 "dualMoco.c"
	.loc 3 115 0
	.cfi_startproc
.LVL13:
	push r28
.LCFI0:
	.cfi_def_cfa_offset 3
	.cfi_offset 28, -2
	push r29
.LCFI1:
	.cfi_def_cfa_offset 4
	.cfi_offset 29, -3
/* prologue: function */
/* frame size = 0 */
/* stack size = 2 */
.L__stack_usage = 2
	movw r30,r24
	lds r25,uwptr
.LVL14:
.L14:
	.loc 3 116 0
	ld r19,Z
	mov r24,r19
	andi r24,lo8(15)
.LVL15:
	.loc 3 119 0
	cpi r24,lo8(2)
	brsh .L7
.L11:
	.loc 3 138 0
	cpi r22,lo8(5)
	brlo .L26
	.loc 3 139 0
	subi r22,lo8(-(-4))
	adiw r30,4
	rjmp .L14
.L7:
	movw r28,r30
	adiw r28,1
	.loc 3 119 0
	ldi r18,lo8(1)
	.loc 3 129 0
	andi r19,lo8(11)
	.loc 3 130 0
	ldi r20,lo8(-12)
	add r20,r24
.L13:
.LVL16:
	.loc 3 121 0
	ld r21,Y+
	mov r26,r25
	ldi r27,0
	subi r26,lo8(-(tx_buf))
	sbci r27,hi8(-(tx_buf))
	st X,r21
	.loc 3 122 0
	subi r25,lo8(-(1))
	andi r25,lo8(31)
	.loc 3 123 0
	cpi r18,lo8(1)
	brne .L10
.LVL17:
	.loc 3 124 0
	cpi r24,lo8(5)
	breq .L11
	.loc 3 124 0 is_stmt 0 discriminator 1
	cpi r24,lo8(15)
	brne .L12
	rjmp .L11
.LVL18:
.L10:
	.loc 3 128 0 is_stmt 1
	cpi r18,lo8(2)
	brne .L12
	.loc 3 129 0
	cpi r19,lo8(2)
	breq .L11
	.loc 3 130 0
	cpi r20,lo8(2)
	brlo .L11
.LVL19:
.L12:
	.loc 3 120 0 discriminator 2
	subi r18,lo8(-(1))
.LVL20:
	cpi r18,lo8(4)
	brne .L13
	rjmp .L11
.LVL21:
.L26:
	sts uwptr,r25
/* epilogue start */
	.loc 3 141 0
	pop r29
	pop r28
	ret
	.cfi_endproc
.LFE91:
	.size	parseUSBMidiMessage, .-parseUSBMidiMessage
	.section	.text.parseSerialMidiMessage,"ax",@progbits
.global	parseSerialMidiMessage
	.type	parseSerialMidiMessage, @function
parseSerialMidiMessage:
.LFB92:
	.loc 3 143 0
	.cfi_startproc
.LVL22:
/* prologue: function */
/* frame size = 0 */
/* stack size = 0 */
.L__stack_usage = 0
	mov r25,r24
	.loc 3 165 0
	lds r24,SysEx.3320
.LVL23:
	tst r24
	breq .L28
	.loc 3 166 0
	cpi r25,lo8(-9)
	brne .L36
	.loc 3 167 0
	sts SysEx.3320,__zero_reg__
.L36:
	.loc 3 169 0
	ldi r24,0
	ret
.L28:
	.loc 3 171 0
	cpi r25,lo8(-8)
	brlo .L31
	.loc 3 172 0
	ldi r24,lo8(15)
	sts utx_buf,r24
	.loc 3 173 0
	sts utx_buf+1,r25
	.loc 3 174 0
	sts utx_buf+2,__zero_reg__
	.loc 3 175 0
	sts utx_buf+3,__zero_reg__
	rjmp .L37
.L31:
	.loc 3 179 0
	sbrs r25,7
	rjmp .L32
	.loc 3 180 0
	cpi r25,lo8(-16)
	brne .L33
	.loc 3 181 0
	ldi r25,lo8(1)
.LVL24:
	sts SysEx.3320,r25
	.loc 3 182 0
	ret
.LVL25:
.L33:
	.loc 3 184 0
	sts PC.3319,__zero_reg__
.L32:
	.loc 3 187 0
	lds r24,PC.3319
	cpse r24,__zero_reg__
	rjmp .L34
	.loc 3 188 0
	mov r19,r25
	swap r19
	andi r19,lo8(15)
	mov r18,r19
	andi r18,lo8(7)
	lsl r18
	subi r18,lo8(-(2))
	sts PC.3319,r18
	.loc 3 191 0
	sts rx_buf,r19
	.loc 3 192 0
	sts rx_buf+1,r25
	.loc 3 193 0
	sts rx_buf+3,__zero_reg__
	ret
.L34:
.LBB51:
	.loc 3 195 0
	mov r30,r24
	ldi r31,0
	subi r30,lo8(-(stateTransTable.3321))
	sbci r31,hi8(-(stateTransTable.3321))
	ld r20,Z
.LVL26:
	.loc 3 196 0
	mov r18,r24
	andi r18,1
	ldi r19,0
	movw r30,r18
	subi r30,lo8(-(rx_buf))
	sbci r31,hi8(-(rx_buf))
	std Z+2,r25
	.loc 3 197 0
	mov r24,r20
	andi r24,lo8(15)
	sts PC.3319,r24
	.loc 3 198 0
	sbrs r20,7
	rjmp .L36
	.loc 3 199 0
	ldi r24,lo8(4)
	ldi r30,lo8(rx_buf)
	ldi r31,hi8(rx_buf)
	ldi r26,lo8(utx_buf)
	ldi r27,hi8(utx_buf)
	0:
	ld r0,Z+
	st X+,r0
	dec r24
	brne 0b
.LVL27:
.L37:
	.loc 3 200 0
	ldi r24,lo8(1)
.LBE51:
	.loc 3 204 0
	ret
	.cfi_endproc
.LFE92:
	.size	parseSerialMidiMessage, .-parseSerialMidiMessage
	.section	.text.processMIDI,"ax",@progbits
.global	processMIDI
	.type	processMIDI, @function
processMIDI:
.LFB94:
	.loc 3 221 0
	.cfi_startproc
	push r28
.LCFI2:
	.cfi_def_cfa_offset 3
	.cfi_offset 28, -2
	push r29
.LCFI3:
	.cfi_def_cfa_offset 4
	.cfi_offset 29, -3
	rcall .
	rcall .
.LCFI4:
	.cfi_def_cfa_offset 8
	in r28,__SP_L__
	in r29,__SP_H__
.LCFI5:
	.cfi_def_cfa_register 28
/* prologue: function */
/* frame size = 4 */
/* stack size = 6 */
.L__stack_usage = 6
	.loc 3 222 0
/* #APP */
 ;  222 "dualMoco.c" 1
	sei
 ;  0 "" 2
/* #NOAPP */
.LBB61:
	.loc 3 229 0
	ldi r17,lo8(3)
.L50:
	.loc 3 226 0
	lds r24,200
	sbrs r24,7
	rjmp .L39
	.loc 3 227 0
	lds r24,206
	call parseSerialMidiMessage
.LVL28:
	lds r25,utxrdy
	or r24,r25
	sts utxrdy,r24
.LVL29:
.LBB62:
.LBB63:
	.file 4 "./Board/LEDs.h"
	.loc 4 75 0
	cbi 0xb,5
.LVL30:
.LBE63:
.LBE62:
	.loc 3 229 0
	sts PulseMSRemaining,r17
.L39:
	.loc 3 233 0
	lds r24,utxrdy
	tst r24
	breq .L41
	.loc 3 234 0
	ldi r22,lo8(utx_buf)
	ldi r23,hi8(utx_buf)
	ldi r24,lo8(Keyboard_MIDI_Interface)
	ldi r25,hi8(Keyboard_MIDI_Interface)
	call MIDI_Device_SendEventPacket
.LVL31:
	.loc 3 235 0
	ldi r24,lo8(Keyboard_MIDI_Interface)
	ldi r25,hi8(Keyboard_MIDI_Interface)
	call MIDI_Device_Flush
.LVL32:
	.loc 3 236 0
	sts utxrdy,__zero_reg__
.L41:
	.loc 3 241 0
	movw r22,r28
	subi r22,-1
	sbci r23,-1
	ldi r24,lo8(Keyboard_MIDI_Interface)
	ldi r25,hi8(Keyboard_MIDI_Interface)
	call MIDI_Device_ReceiveEventPacket
.LVL33:
	tst r24
	breq .L60
	.loc 3 243 0
	ldi r22,lo8(4)
	movw r24,r28
	adiw r24,1
	call parseUSBMidiMessage
.LVL34:
.LBB64:
.LBB65:
	.loc 4 75 0
	cbi 0xb,4
.LVL35:
.LBE65:
.LBE64:
	.loc 3 245 0
	sts PulseMSRemaining+1,r17
	rjmp .L41
.L60:
	.loc 3 249 0
	lds r24,200
	sbrs r24,5
	rjmp .L43
	.loc 3 249 0 is_stmt 0 discriminator 1
	lds r30,irptr
	lds r24,uwptr
	cp r24,r30
	breq .L43
	.loc 3 250 0 is_stmt 1
	ldi r24,lo8(1)
	add r24,r30
	sts irptr,r24
	ldi r31,0
	subi r30,lo8(-(tx_buf))
	sbci r31,hi8(-(tx_buf))
	ld r24,Z
	sts 206,r24
	.loc 3 251 0
	lds r24,irptr
	andi r24,lo8(31)
	sts irptr,r24
.L43:
	.loc 3 254 0
	sbis 0x15,0
	rjmp .L45
	.loc 3 255 0
	sbi 0x15,0
	.loc 3 257 0
	lds r24,PulseMSRemaining
	tst r24
	breq .L47
	.loc 3 257 0 is_stmt 0 discriminator 1
	lds r24,PulseMSRemaining
	subi r24,lo8(-(-1))
	sts PulseMSRemaining,r24
	cpse r24,__zero_reg__
	rjmp .L47
.LVL36:
.LBB66:
.LBB67:
	.loc 4 80 0 is_stmt 1
	sbi 0xb,5
.LVL37:
.L47:
.LBE67:
.LBE66:
	.loc 3 261 0
	lds r24,PulseMSRemaining+1
	tst r24
	breq .L45
	.loc 3 261 0 is_stmt 0 discriminator 1
	lds r24,PulseMSRemaining+1
	subi r24,lo8(-(-1))
	sts PulseMSRemaining+1,r24
	cpse r24,__zero_reg__
	rjmp .L45
.LVL38:
.LBB68:
.LBB69:
	.loc 4 80 0 is_stmt 1
	sbi 0xb,4
.LVL39:
.L45:
.LBE69:
.LBE68:
	.loc 3 266 0
	call USB_USBTask
.LVL40:
.LBE61:
	.loc 3 267 0
	rjmp .L50
	.cfi_endproc
.LFE94:
	.size	processMIDI, .-processMIDI
	.section	.text.processSerial,"ax",@progbits
.global	processSerial
	.type	processSerial, @function
processSerial:
.LFB95:
	.loc 3 272 0
	.cfi_startproc
/* prologue: function */
/* frame size = 0 */
/* stack size = 0 */
.L__stack_usage = 0
.LVL41:
.LBB121:
.LBB122:
	.loc 1 87 0
	in r18,__SREG__
.LVL42:
.LBB123:
.LBB124:
	.loc 2 50 0
/* #APP */
 ;  50 "/usr/lib/avr/include/util/atomic.h" 1
	cli
 ;  0 "" 2
.LVL43:
/* #NOAPP */
.LBE124:
.LBE123:
	.loc 1 89 0
	ldi r24,lo8(USBtoUSART_Buffer)
	ldi r25,hi8(USBtoUSART_Buffer)
	sts USBtoUSART_Buffer+128+1,r25
	sts USBtoUSART_Buffer+128,r24
	.loc 1 90 0
	sts USBtoUSART_Buffer+130+1,r25
	sts USBtoUSART_Buffer+130,r24
.LVL44:
.LBB125:
.LBB126:
	.loc 2 70 0
	out __SREG__,r18
	.loc 2 71 0
.LVL45:
.LBE126:
.LBE125:
.LBE122:
.LBE121:
.LBB127:
.LBB128:
	.loc 1 87 0
	in r18,__SREG__
.LVL46:
.LBB129:
.LBB130:
	.loc 2 50 0
/* #APP */
 ;  50 "/usr/lib/avr/include/util/atomic.h" 1
	cli
 ;  0 "" 2
.LVL47:
/* #NOAPP */
.LBE130:
.LBE129:
	.loc 1 89 0
	ldi r24,lo8(USARTtoUSB_Buffer)
	ldi r25,hi8(USARTtoUSB_Buffer)
	sts USARTtoUSB_Buffer+128+1,r25
	sts USARTtoUSB_Buffer+128,r24
	.loc 1 90 0
	sts USARTtoUSB_Buffer+130+1,r25
	sts USARTtoUSB_Buffer+130,r24
.LVL48:
.LBB131:
.LBB132:
	.loc 2 70 0
	out __SREG__,r18
	.loc 2 71 0
.LVL49:
.LBE132:
.LBE131:
.LBE128:
.LBE127:
	.loc 3 277 0
/* #APP */
 ;  277 "dualMoco.c" 1
	sei
 ;  0 "" 2
/* #NOAPP */
.LBB133:
	.loc 3 299 0
	ldi r29,lo8(3)
.LVL50:
.L76:
.LBB134:
.LBB135:
.LBB136:
.LBB137:
	.loc 1 111 0
	in r25,__SREG__
.LVL51:
.LBB138:
.LBB139:
	.loc 2 50 0
/* #APP */
 ;  50 "/usr/lib/avr/include/util/atomic.h" 1
	cli
 ;  0 "" 2
.LVL52:
/* #NOAPP */
.LBE139:
.LBE138:
	.loc 1 113 0
	lds r24,USBtoUSART_Buffer+132
.LVL53:
.LBB140:
.LBB141:
	.loc 2 70 0
	out __SREG__,r25
	.loc 2 71 0
.LVL54:
.LBE141:
.LBE140:
.LBE137:
.LBE136:
.LBE135:
.LBE134:
	.loc 3 282 0
	cpi r24,lo8(-128)
	breq .L63
.LBB142:
	.loc 3 284 0
	ldi r24,lo8(VirtualSerial_CDC_Interface)
	ldi r25,hi8(VirtualSerial_CDC_Interface)
	call CDC_Device_ReceiveByte
.LVL55:
	.loc 3 287 0
	sbrc r25,7
	rjmp .L63
	.loc 3 288 0
	mov r22,r24
	ldi r24,lo8(USBtoUSART_Buffer)
	ldi r25,hi8(USBtoUSART_Buffer)
.LVL56:
	call RingBuffer_Insert
.LVL57:
.L63:
.LBE142:
.LBB143:
.LBB144:
.LBB145:
	.loc 1 111 0
	in r24,__SREG__
.LVL58:
.LBB146:
.LBB147:
	.loc 2 50 0
/* #APP */
 ;  50 "/usr/lib/avr/include/util/atomic.h" 1
	cli
 ;  0 "" 2
.LVL59:
/* #NOAPP */
.LBE147:
.LBE146:
	.loc 1 113 0
	lds r28,USARTtoUSB_Buffer+132
.LVL60:
.LBB148:
.LBB149:
	.loc 2 70 0
	out __SREG__,r24
	.loc 2 71 0
.LVL61:
.LBE149:
.LBE148:
.LBE145:
.LBE144:
.LBE143:
	.loc 3 293 0
	sbic 0x15,0
	rjmp .L65
	.loc 3 293 0 is_stmt 0 discriminator 1
	cpi r28,lo8(97)
	brlo .L66
.L65:
	.loc 3 295 0 is_stmt 1
	sbi 0x15,0
	.loc 3 297 0
	lds r24,USARTtoUSB_Buffer+132
	tst r24
	breq .L68
.LVL62:
.LBB150:
.LBB151:
	.loc 4 75 0
	cbi 0xb,5
.LVL63:
.LBE151:
.LBE150:
	.loc 3 299 0
	sts PulseMSRemaining,r29
.L68:
.LVL64:
	.loc 3 303 0
	tst r28
	breq .L88
	.loc 3 304 0
	ldi r24,lo8(USARTtoUSB_Buffer)
	ldi r25,hi8(USARTtoUSB_Buffer)
	call RingBuffer_Remove
.LVL65:
	mov r22,r24
	ldi r24,lo8(VirtualSerial_CDC_Interface)
	ldi r25,hi8(VirtualSerial_CDC_Interface)
	call CDC_Device_SendByte
.LVL66:
	subi r28,lo8(-(-1))
.LVL67:
	rjmp .L68
.LVL68:
.L88:
	.loc 3 307 0
	lds r24,PulseMSRemaining
	tst r24
	breq .L71
	.loc 3 307 0 is_stmt 0 discriminator 1
	lds r24,PulseMSRemaining
	subi r24,lo8(-(-1))
	sts PulseMSRemaining,r24
	cpse r24,__zero_reg__
	rjmp .L71
.LVL69:
.LBB152:
.LBB153:
	.loc 4 80 0 is_stmt 1
	sbi 0xb,5
.LVL70:
.L71:
.LBE153:
.LBE152:
	.loc 3 311 0
	lds r24,PulseMSRemaining+1
	tst r24
	breq .L66
	.loc 3 311 0 is_stmt 0 discriminator 1
	lds r24,PulseMSRemaining+1
	subi r24,lo8(-(-1))
	sts PulseMSRemaining+1,r24
	cpse r24,__zero_reg__
	rjmp .L66
.LVL71:
.LBB154:
.LBB155:
	.loc 4 80 0 is_stmt 1
	sbi 0xb,4
.LVL72:
.L66:
.LBE155:
.LBE154:
.LBB156:
.LBB157:
.LBB158:
.LBB159:
	.loc 1 111 0
	in r25,__SREG__
.LVL73:
.LBB160:
.LBB161:
	.loc 2 50 0
/* #APP */
 ;  50 "/usr/lib/avr/include/util/atomic.h" 1
	cli
 ;  0 "" 2
.LVL74:
/* #NOAPP */
.LBE161:
.LBE160:
	.loc 1 113 0
	lds r24,USBtoUSART_Buffer+132
.LVL75:
.LBB162:
.LBB163:
	.loc 2 70 0
	out __SREG__,r25
	.loc 2 71 0
.LVL76:
.LBE163:
.LBE162:
.LBE159:
.LBE158:
.LBE157:
.LBE156:
	.loc 3 316 0
	tst r24
	breq .L74
	.loc 3 317 0
	ldi r24,lo8(USBtoUSART_Buffer)
	ldi r25,hi8(USBtoUSART_Buffer)
	call RingBuffer_Remove
.LVL77:
.L75:
.LBB164:
.LBB165:
	.file 5 "../LUFA/Drivers/Peripheral/Serial.h"
	.loc 5 142 0
	lds r25,200
	sbrs r25,5
	rjmp .L75
	.loc 5 143 0
	sts 206,r24
.LVL78:
.LBE165:
.LBE164:
.LBB166:
.LBB167:
	.loc 4 75 0
	cbi 0xb,4
.LVL79:
.LBE167:
.LBE166:
	.loc 3 320 0
	sts PulseMSRemaining+1,r29
.L74:
	.loc 3 323 0
	ldi r24,lo8(VirtualSerial_CDC_Interface)
	ldi r25,hi8(VirtualSerial_CDC_Interface)
	call CDC_Device_USBTask
.LVL80:
	.loc 3 324 0
	call USB_USBTask
.LVL81:
.LBE133:
	.loc 3 325 0
	rjmp .L76
	.cfi_endproc
.LFE95:
	.size	processSerial, .-processSerial
	.section	.text.SetupHardware,"ax",@progbits
.global	SetupHardware
	.type	SetupHardware, @function
SetupHardware:
.LFB96:
	.loc 3 331 0
	.cfi_startproc
/* prologue: function */
/* frame size = 0 */
/* stack size = 0 */
.L__stack_usage = 0
	.loc 3 333 0
	in r24,0x34
	andi r24,lo8(-9)
	out 0x34,r24
.LBB174:
.LBB175:
	.file 6 "/usr/lib/avr/include/avr/wdt.h"
	.loc 6 515 0
/* #APP */
 ;  515 "/usr/lib/avr/include/avr/wdt.h" 1
	in __tmp_reg__,__SREG__
	cli
	wdr
	lds r24,96
	ori r24,24
	sts 96,r24
	sts 96,__zero_reg__
	out __SREG__,__tmp_reg__
	
 ;  0 "" 2
/* #NOAPP */
.LBE175:
.LBE174:
	.loc 3 336 0
	out 0x4,__zero_reg__
	.loc 3 337 0
	ldi r24,lo8(4)
	out 0x5,r24
	.loc 3 339 0
	sbic 0x3,2
	rjmp .L90
	.loc 3 340 0
	ldi r24,lo8(1)
	sts mocoMode,r24
.L90:
	.loc 3 344 0
	lds r24,mocoMode
	cpi r24,lo8(1)
	brne .L91
	.loc 3 346 0
	ldi r24,lo8(31)
	sts 204,r24
	.loc 3 348 0
	ldi r24,lo8(24)
	sts 201,r24
	rjmp .L92
.L91:
.LVL82:
.LBB176:
.LBB177:
	.loc 5 102 0
	ldi r24,lo8(103)
	ldi r25,0
	sts 204+1,r25
	sts 204,r24
	.loc 5 104 0
	ldi r24,lo8(6)
	sts 202,r24
	.loc 5 105 0
	sts 200,__zero_reg__
	.loc 5 106 0
	ldi r24,lo8(24)
	sts 201,r24
	.loc 5 108 0
	sbi 0xa,3
	.loc 5 109 0
	sbi 0xb,2
.LVL83:
.L92:
.LBE177:
.LBE176:
	.loc 3 353 0
	call USB_Init
.LVL84:
.LBB178:
.LBB179:
	.loc 4 69 0
	in r24,0xa
	ori r24,lo8(48)
	out 0xa,r24
	.loc 4 70 0
	in r24,0xb
	ori r24,lo8(48)
	out 0xb,r24
.LBE179:
.LBE178:
	.loc 3 357 0
	ldi r24,lo8(4)
	out 0x25,r24
	.loc 3 359 0
	lds r24,mocoMode
	cpse r24,__zero_reg__
	rjmp .L89
	.loc 3 361 0
	sbi 0xb,7
	.loc 3 362 0
	sbi 0xa,7
.L89:
	ret
	.cfi_endproc
.LFE96:
	.size	SetupHardware, .-SetupHardware
	.section	.text.startup.main,"ax",@progbits
.global	main
	.type	main, @function
main:
.LFB93:
	.loc 3 210 0
	.cfi_startproc
/* prologue: function */
/* frame size = 0 */
/* stack size = 0 */
.L__stack_usage = 0
	.loc 3 211 0
	call SetupHardware
.LVL85:
	.loc 3 213 0
	lds r24,mocoMode
	cpi r24,lo8(1)
	brne .L95
	.loc 3 214 0
	call processMIDI
.LVL86:
.L95:
	.loc 3 216 0
	call processSerial
.LVL87:
	.cfi_endproc
.LFE93:
	.size	main, .-main
	.section	.text.EVENT_USB_Device_Connect,"ax",@progbits
.global	EVENT_USB_Device_Connect
	.type	EVENT_USB_Device_Connect, @function
EVENT_USB_Device_Connect:
.LFB110:
	.cfi_startproc
/* prologue: function */
/* frame size = 0 */
/* stack size = 0 */
.L__stack_usage = 0
	ret
	.cfi_endproc
.LFE110:
	.size	EVENT_USB_Device_Connect, .-EVENT_USB_Device_Connect
	.section	.text.EVENT_USB_Device_Disconnect,"ax",@progbits
.global	EVENT_USB_Device_Disconnect
	.type	EVENT_USB_Device_Disconnect, @function
EVENT_USB_Device_Disconnect:
.LFB108:
	.cfi_startproc
/* prologue: function */
/* frame size = 0 */
/* stack size = 0 */
.L__stack_usage = 0
	ret
	.cfi_endproc
.LFE108:
	.size	EVENT_USB_Device_Disconnect, .-EVENT_USB_Device_Disconnect
	.section	.text.EVENT_USB_Device_ConfigurationChanged,"ax",@progbits
.global	EVENT_USB_Device_ConfigurationChanged
	.type	EVENT_USB_Device_ConfigurationChanged, @function
EVENT_USB_Device_ConfigurationChanged:
.LFB99:
	.loc 3 378 0
	.cfi_startproc
/* prologue: function */
/* frame size = 0 */
/* stack size = 0 */
.L__stack_usage = 0
	.loc 3 379 0
	lds r24,mocoMode
	cpi r24,lo8(1)
	brne .L99
.LVL88:
.LBB180:
	.loc 3 381 0
	ldi r24,lo8(Keyboard_MIDI_Interface)
	ldi r25,hi8(Keyboard_MIDI_Interface)
	jmp MIDI_Device_ConfigureEndpoints
.LVL89:
.L99:
.LBE180:
	.loc 3 383 0
	ldi r24,lo8(VirtualSerial_CDC_Interface)
	ldi r25,hi8(VirtualSerial_CDC_Interface)
	jmp CDC_Device_ConfigureEndpoints
.LVL90:
	.cfi_endproc
.LFE99:
	.size	EVENT_USB_Device_ConfigurationChanged, .-EVENT_USB_Device_ConfigurationChanged
	.section	.text.EVENT_USB_Device_ControlRequest,"ax",@progbits
.global	EVENT_USB_Device_ControlRequest
	.type	EVENT_USB_Device_ControlRequest, @function
EVENT_USB_Device_ControlRequest:
.LFB100:
	.loc 3 389 0
	.cfi_startproc
/* prologue: function */
/* frame size = 0 */
/* stack size = 0 */
.L__stack_usage = 0
	ret
	.cfi_endproc
.LFE100:
	.size	EVENT_USB_Device_ControlRequest, .-EVENT_USB_Device_ControlRequest
	.section	.text.EVENT_USB_Device_UnhandledControlRequest,"ax",@progbits
.global	EVENT_USB_Device_UnhandledControlRequest
	.type	EVENT_USB_Device_UnhandledControlRequest, @function
EVENT_USB_Device_UnhandledControlRequest:
.LFB101:
	.loc 3 397 0
	.cfi_startproc
/* prologue: function */
/* frame size = 0 */
/* stack size = 0 */
.L__stack_usage = 0
	.loc 3 398 0
	lds r24,mocoMode
	cpse r24,__zero_reg__
	rjmp .L101
	.loc 3 399 0
	ldi r24,lo8(VirtualSerial_CDC_Interface)
	ldi r25,hi8(VirtualSerial_CDC_Interface)
	jmp CDC_Device_ProcessControlRequest
.LVL91:
.L101:
	ret
	.cfi_endproc
.LFE101:
	.size	EVENT_USB_Device_UnhandledControlRequest, .-EVENT_USB_Device_UnhandledControlRequest
	.section	.text.EVENT_CDC_Device_LineEncodingChanged,"ax",@progbits
.global	EVENT_CDC_Device_LineEncodingChanged
	.type	EVENT_CDC_Device_LineEncodingChanged, @function
EVENT_CDC_Device_LineEncodingChanged:
.LFB102:
	.loc 3 410 0
	.cfi_startproc
.LVL92:
	push r16
.LCFI6:
	.cfi_def_cfa_offset 3
	.cfi_offset 16, -2
	push r17
.LCFI7:
	.cfi_def_cfa_offset 4
	.cfi_offset 17, -3
	push r28
.LCFI8:
	.cfi_def_cfa_offset 5
	.cfi_offset 28, -4
/* prologue: function */
/* frame size = 0 */
/* stack size = 3 */
.L__stack_usage = 3
	movw r16,r24
.LVL93:
	.loc 3 413 0
	movw r30,r24
	ldd r24,Z+20
.LVL94:
	cpi r24,lo8(1)
	breq .L105
	cpi r24,lo8(2)
	brne .L118
.LVL95:
	.loc 3 419 0
	ldi r28,lo8(32)
	.loc 3 420 0
	rjmp .L104
.LVL96:
.L105:
	.loc 3 416 0
	ldi r28,lo8(48)
	rjmp .L104
.L118:
	.loc 3 411 0
	ldi r28,0
.LVL97:
.L104:
	.loc 3 423 0
	movw r30,r16
	ldd r24,Z+19
	cpi r24,lo8(2)
	brne .L107
	.loc 3 424 0
	ori r28,lo8(8)
.LVL98:
.L107:
	.loc 3 426 0
	movw r30,r16
	ldd r24,Z+21
	cpi r24,lo8(7)
	breq .L109
	cpi r24,lo8(8)
	breq .L110
	cpi r24,lo8(6)
	brne .L108
	.loc 3 429 0
	ori r28,lo8(2)
.LVL99:
	.loc 3 430 0
	rjmp .L108
.L109:
	.loc 3 432 0
	ori r28,lo8(4)
.LVL100:
	.loc 3 433 0
	rjmp .L108
.L110:
	.loc 3 435 0
	ori r28,lo8(6)
.LVL101:
.L108:
	.loc 3 440 0
	sts 201,__zero_reg__
	.loc 3 441 0
	sts 200,__zero_reg__
	.loc 3 442 0
	sts 202,__zero_reg__
	.loc 3 445 0
	movw r30,r16
	ldd r18,Z+15
	ldd r19,Z+16
	ldd r20,Z+17
	ldd r21,Z+18
	cp r18,__zero_reg__
	ldi r31,-31
	cpc r19,r31
	cpc r20,__zero_reg__
	cpc r21,__zero_reg__
	breq .L115
	.loc 3 445 0 is_stmt 0 discriminator 2
	movw r26,r20
	movw r24,r18
	lsr r27
	ror r26
	ror r25
	ror r24
	movw r22,r24
	movw r24,r26
	subi r22,-128
	sbci r23,123
	sbci r24,-31
	sbci r25,-1
	call __udivmodsi4
	subi r18,1
	sbc r19,__zero_reg__
	rjmp .L112
.L115:
	.loc 3 445 0
	ldi r18,lo8(16)
	ldi r19,0
.L112:
	.loc 3 445 0 discriminator 4
	sts 204+1,r19
	sts 204,r18
	.loc 3 449 0 is_stmt 1 discriminator 4
	sts 202,r28
	.loc 3 450 0 discriminator 4
	movw r30,r16
	ldd r24,Z+15
	ldd r25,Z+16
	ldd r26,Z+17
	ldd r27,Z+18
	cp r24,__zero_reg__
	sbci r25,-31
	cpc r26,__zero_reg__
	cpc r27,__zero_reg__
	breq .L116
	.loc 3 450 0 is_stmt 0
	ldi r24,lo8(2)
	rjmp .L113
.L116:
	ldi r24,0
.L113:
	.loc 3 450 0 discriminator 4
	sts 200,r24
	.loc 3 451 0 is_stmt 1 discriminator 4
	ldi r24,lo8(-104)
	sts 201,r24
/* epilogue start */
	.loc 3 452 0 discriminator 4
	pop r28
.LVL102:
	pop r17
	pop r16
.LVL103:
	ret
	.cfi_endproc
.LFE102:
	.size	EVENT_CDC_Device_LineEncodingChanged, .-EVENT_CDC_Device_LineEncodingChanged
	.section	.text.__vector_23,"ax",@progbits
.global	__vector_23
	.type	__vector_23, @function
__vector_23:
.LFB103:
	.loc 3 458 0
	.cfi_startproc
	push r1
.LCFI9:
	.cfi_def_cfa_offset 3
	.cfi_offset 1, -2
	push r0
.LCFI10:
	.cfi_def_cfa_offset 4
	.cfi_offset 0, -3
	in r0,__SREG__
	push r0
	clr __zero_reg__
	push r18
.LCFI11:
	.cfi_def_cfa_offset 5
	.cfi_offset 18, -4
	push r19
.LCFI12:
	.cfi_def_cfa_offset 6
	.cfi_offset 19, -5
	push r20
.LCFI13:
	.cfi_def_cfa_offset 7
	.cfi_offset 20, -6
	push r21
.LCFI14:
	.cfi_def_cfa_offset 8
	.cfi_offset 21, -7
	push r22
.LCFI15:
	.cfi_def_cfa_offset 9
	.cfi_offset 22, -8
	push r23
.LCFI16:
	.cfi_def_cfa_offset 10
	.cfi_offset 23, -9
	push r24
.LCFI17:
	.cfi_def_cfa_offset 11
	.cfi_offset 24, -10
	push r25
.LCFI18:
	.cfi_def_cfa_offset 12
	.cfi_offset 25, -11
	push r26
.LCFI19:
	.cfi_def_cfa_offset 13
	.cfi_offset 26, -12
	push r27
.LCFI20:
	.cfi_def_cfa_offset 14
	.cfi_offset 27, -13
	push r30
.LCFI21:
	.cfi_def_cfa_offset 15
	.cfi_offset 30, -14
	push r31
.LCFI22:
	.cfi_def_cfa_offset 16
	.cfi_offset 31, -15
/* prologue: Signal */
/* frame size = 0 */
/* stack size = 15 */
.L__stack_usage = 15
	.loc 3 459 0
	lds r24,mocoMode
	cpse r24,__zero_reg__
	rjmp .L119
.LBB181:
	.loc 3 460 0
	lds r22,206
.LVL104:
	.loc 3 462 0
	in r24,0x1e
	cpi r24,lo8(4)
	brne .L119
	.loc 3 463 0
	ldi r24,lo8(USARTtoUSB_Buffer)
	ldi r25,hi8(USARTtoUSB_Buffer)
	call RingBuffer_Insert
.LVL105:
.L119:
/* epilogue start */
.LBE181:
	.loc 3 465 0
	pop r31
	pop r30
	pop r27
	pop r26
	pop r25
	pop r24
	pop r23
	pop r22
	pop r21
	pop r20
	pop r19
	pop r18
	pop r0
	out __SREG__,r0
	pop r0
	pop r1
	reti
	.cfi_endproc
.LFE103:
	.size	__vector_23, .-__vector_23
	.section	.text.EVENT_CDC_Device_ControLineStateChanged,"ax",@progbits
.global	EVENT_CDC_Device_ControLineStateChanged
	.type	EVENT_CDC_Device_ControLineStateChanged, @function
EVENT_CDC_Device_ControLineStateChanged:
.LFB104:
	.loc 3 472 0
	.cfi_startproc
.LVL106:
/* prologue: function */
/* frame size = 0 */
/* stack size = 0 */
.L__stack_usage = 0
	.loc 3 475 0
	movw r30,r24
	ldd r24,Z+13
.LVL107:
	sbrs r24,0
	rjmp .L122
	.loc 3 476 0
	cbi 0xb,7
	ret
.L122:
	.loc 3 478 0
	sbi 0xb,7
	ret
	.cfi_endproc
.LFE104:
	.size	EVENT_CDC_Device_ControLineStateChanged, .-EVENT_CDC_Device_ControLineStateChanged
	.section	.rodata
	.type	stateTransTable.3321, @object
	.size	stateTransTable.3321, 16
stateTransTable.3321:
	.byte	0
	.byte	0
	.byte	3
	.byte	-126
	.byte	5
	.byte	-124
	.byte	7
	.byte	-122
	.byte	9
	.byte	-120
	.byte	-118
	.byte	0
	.byte	-116
	.byte	0
	.byte	15
	.byte	-114
	.local	PC.3319
	.comm	PC.3319,1,1
	.local	SysEx.3320
	.comm	SysEx.3320,1,1
.global	Keyboard_MIDI_Interface
	.data
	.type	Keyboard_MIDI_Interface, @object
	.size	Keyboard_MIDI_Interface, 9
Keyboard_MIDI_Interface:
	.byte	1
	.byte	2
	.word	64
	.byte	0
	.byte	1
	.word	64
	.byte	0
.global	VirtualSerial_CDC_Interface
	.type	VirtualSerial_CDC_Interface, @object
	.size	VirtualSerial_CDC_Interface, 22
VirtualSerial_CDC_Interface:
	.byte	0
	.byte	3
	.word	64
	.byte	0
	.byte	4
	.word	64
	.byte	0
	.byte	2
	.word	8
	.byte	0
	.zero	9
	.local	tx_buf
	.comm	tx_buf,32,1
	.local	irptr
	.comm	irptr,1,1
	.local	uwptr
	.comm	uwptr,1,1
	.local	utx_buf
	.comm	utx_buf,8,1
	.local	rx_buf
	.comm	rx_buf,8,1
	.local	utxrdy
	.comm	utxrdy,1,1
	.comm	PulseMSRemaining,3,1
	.comm	USARTtoUSB_Buffer,133,1
	.comm	USBtoUSART_Buffer,133,1
.global	mocoMode
	.section .bss
	.type	mocoMode, @object
	.size	mocoMode, 1
mocoMode:
	.zero	1
	.text
.Letext0:
	.file 7 "/usr/lib/avr/include/stdint.h"
	.file 8 "../LUFA/Drivers/USB/HighLevel/../LowLevel/Device.h"
	.file 9 "../LUFA/Drivers/USB/Class/Device/../Common/CDC.h"
	.file 10 "../LUFA/Drivers/USB/Class/Device/CDC.h"
	.file 11 "../LUFA/Drivers/USB/Class/Device/../Common/MIDI.h"
	.file 12 "../LUFA/Drivers/USB/Class/Device/MIDI.h"
	.file 13 "dualMoco.h"
	.file 14 "../LUFA/Drivers/USB/HighLevel/USBTask.h"
	.file 15 "../LUFA/Drivers/USB/HighLevel/../LowLevel/USBController.h"